#SYMBOLS
Index	Identifier	Type	Flag	Data	Size	RefCount
0	__D0calibration	6	1	0	4	6
1	__signed_stack_002lineFollow	6	1	4	4	12
2	__signed_stack_001lineFollow	6	1	8	4	10
3	__signed_stack_002displayNum	6	1	12	4	2
4	__D0displayNum	6	1	16	4	3
5	__D0ballFind	6	1	20	4	2
6	__signed_stack_001switchDir	6	1	24	4	8
7	__TextOutMutex	9	0	28	4	14
8	__PointOutMutex	9	0	32	4	12
9	__signed_stack_003lineFollow	6	1	36	4	4
10	__rotate_theAngle1	5	1	40	4	2
11	__DU0SetSensorLight_inline_calibration	5	1	44	4	2
12	__D0SetSensorLight_inline_calibration	6	1	48	4	3
13	__rotate_angle1	6	1	52	4	5
14	__DU0SetSensorLowspeed_inline_SetSensorUltrasonic	5	1	56	4	2
15	__D0SetSensorLowspeed_inline_SetSensorUltrasonic	6	1	60	4	3
16	__signed_stack_001calibration	6	1	64	4	14
17	__Wait_7qG2_ms_7qG2_000_inline_calibration	5	1	68	4	6
18	__D0lineFollow	6	1	72	4	31
19	__signed_stack_001displayNum	6	1	76	4	2
20	__D0switchDir	6	1	80	4	10
21	__signed_stack_002calibration	6	1	84	4	12
22	white	4	1	88	2	4
23	lightAvg	4	1	90	2	8
24	black	4	1	92	2	4
25	__constVal200	4	0	94	2	12
26	dir	4	1	96	2	11
27	__rotate_OldRotCount1	4	1	98	2	2
28	__rotate_RotCount1	4	1	100	2	4
29	inMaze	4	1	102	2	1
30	__displayNum_7qG2_n_7qG2_000	4	1	104	2	4
31	__SetSensorType_7qG2_port_7qG2_000_inline_SetSensorLowspeed_inline_SetSensorUltrasonic_inline_calibration	1	1	106	1	2
32	__SetSensorLowspeed_7qG2_bIsPowered_7qG2_000_inline_SetSensorUltrasonic_inline_calibration	1	1	107	1	2
33	__SetSensorMode_7qG2_port_7qG2_000_inline_SetSensorLight_inline_calibration	1	1	108	1	2
34	__SetSensorMode_7qG2_mode_7qG2_000_inline_SetSensorLight_inline_calibration	1	1	109	1	2
35	__SetSensorLowspeed_7qG2_port_7qG2_000_inline_SetSensorUltrasonic_inline_calibration	1	1	110	1	4
36	__SetSensorMode_7qG2_mode_7qG2_000_inline_SetSensorLowspeed_inline_SetSensorUltrasonic_inline_calibration	1	1	111	1	2
37	__constVal60	2	0	112	1	6
38	__zfSetSensorLowspeed_inline_SetSensorUltrasonic	1	1	113	1	2
39	__SetSensorType_7qG2_type_7qG2_000_inline_SetSensorLowspeed_inline_SetSensorUltrasonic_inline_calibration	1	1	114	1	2
40	__SetSensorMode_7qG2_port_7qG2_000_inline_SetSensorLowspeed_inline_SetSensorUltrasonic_inline_calibration	1	1	115	1	2
41	__constVal63	2	0	116	1	5
42	__switchDir_return	1	1	117	1	4
43	__constVal96	2	0	118	1	7
44	____initialize_global_data_return	1	1	119	1	3
45	__calibration_return	1	1	120	1	3
46	__SetSensorType_7qG2_port_7qG2_000_inline_SetSensorLight_inline_calibration	1	1	121	1	2
47	__SetSensorType_7qG2_type_7qG2_000_inline_SetSensorLight_inline_calibration	1	1	122	1	2
48	__SetSensorLight_7qG2_bActive_7qG2_000_inline_calibration	1	1	123	1	2
49	__displayNum_return	1	1	124	1	5
50	__SetSensorLight_7qG2_port_7qG2_000_inline_calibration	1	1	125	1	4
51	__rotate_theRVI1	1	1	126	1	3
52	__rotate_theRVD1	1	1	127	1	3
53	__rotate_theRS1	1	1	128	1	3
54	__rotate_theRVP1	1	1	129	1	3
55	__rotate_theTurnPct1	2	1	130	1	4
56	__constVal32	2	0	131	1	20
57	__rotate_rs1	1	1	132	1	2
58	__rotate_thePower1	2	1	133	1	4
59	__rotate_sync1	1	1	134	1	3
60	__rotate_stop1	1	1	135	1	3
61	__rotate_power1	1	1	136	1	5
62	__rotate_firstPort1	1	1	137	1	5
63	__rotate_theOM1	1	1	138	1	7
64	__rotate_theRM1	1	1	139	1	4
65	__rotate_turnpct1	2	1	140	1	4
66	__rotate_theUF1	1	1	141	1	6
67	__constVal1	2	0	142	1	15
68	__zfballFind	1	1	143	1	2
69	__constVal2	2	0	144	1	5
70	__zflineFollow	1	1	145	1	9
71	__zfSetSensorLight_inline_calibration	1	1	146	1	2
72	__zfswitchDir	1	1	147	1	6
73	____ResetSensorSubroutine_return	1	1	148	1	4
74	__constVal0	2	1	149	1	32
75	____RotateMotor1_return	1	1	150	1	4
76	__constVal3	2	0	151	1	5
77	__ResetSensorPort	1	1	152	1	4
78	__ResetSensorTmp	1	1	153	1	2
79	__TextOutArgs	8	0	4	16	42
80	__TextOutArgs.Result	2	1	156	1	42
81	__TextOutArgs.Location	8	0	2	4	42
82	__TextOutArgs.Location.X	4	1	160	2	42
83	__TextOutArgs.Location.Y	4	1	162	2	42
84	__TextOutArgs.Text	7	0	164	4	42
85	__TextOutArgs.Text.Text_type	1	0	0	1	0
86	__TextOutArgs.Options	5	1	168	4	42
87	__PointOutArgs	8	0	3	12	24
88	__PointOutArgs.Result	2	1	172	1	24
89	__PointOutArgs.Location	8	0	2	4	24
90	__PointOutArgs.Location.X	4	1	176	2	24
91	__PointOutArgs.Location.Y	4	1	178	2	24
92	__PointOutArgs.Options	5	1	180	4	24
93	__constStr0011	7	0	184	4	1
94	__constStr0011.__constStr0011_type	1	1	0	1	0
95	__constStr0014	7	0	186	4	1
96	__constStr0014.__constStr0014_type	1	1	0	1	0
97	__OUT_AC	7	0	188	4	1
98	__OUT_AC.__OUT_AC_type	1	0	0	1	0
99	__constStr0012	7	0	190	4	1
100	__constStr0012.__constStr0012_type	1	1	0	1	0
101	__constStr0013	7	0	192	4	1
102	__constStr0013.__constStr0013_type	1	1	0	1	0
103	__constStr0010	7	0	194	4	1
104	__constStr0010.__constStr0010_type	1	1	0	1	0
105	__strbufcalibration	7	0	196	4	12
106	__strbufcalibration.__strbufcalibration_type	1	0	0	1	0
107	__constStr0009	7	0	198	4	1
108	__constStr0009.__constStr0009_type	1	1	0	1	0
109	__rotate_ports1	7	0	200	4	7
110	__rotate_ports1.__rotate_ports1_type	1	0	0	1	0
111	__strretvaldisplayNum	7	0	202	4	2
112	__strretvaldisplayNum.__strretvaldisplayNum_type	1	0	0	1	0
113	__strbufdisplayNum	7	0	204	4	2
114	__strbufdisplayNum.__strbufdisplayNum_type	1	0	0	1	0
#SOURCES
Clump	Line	PC	Source
0	24	0	#line 24 "C:\Users\Lshi\AppData\Local\Temp\temp.nxc"
0	25	0		subcall __initialize_global_data, ____initialize_global_data_return
0	24	2	#line 24 "C:\Users\Lshi\AppData\Local\Temp\temp.nxc"
0	25	2	#line 25 "C:\Users\Lshi\AppData\Local\Temp\temp.nxc"
0	26	2		subcall calibration, __calibration_return
0	25	4	#line 25 "C:\Users\Lshi\AppData\Local\Temp\temp.nxc"
0	26	4	#line 26 "C:\Users\Lshi\AppData\Local\Temp\temp.nxc"
0	26	4	#line 26 "C:\Users\Lshi\AppData\Local\Temp\temp.nxc"
0	27	4		exit 0, 0
1	4529	0		brtst 4, __rotate_Done1, __rotate_angle1
1	4530	3		sign __rotate_thePower1, __rotate_angle1
1	4531	6		abs __rotate_theAngle1, __rotate_angle1
1	4532	9		mul __rotate_thePower1, __rotate_thePower1, __rotate_power1
1	4534	13		set __rotate_theUF1, 23
1	4535	16		brtst 4, __rotate_NoSync1, __rotate_sync1
1	4536	19		set __rotate_theOM1, 7
1	4537	22		set __rotate_theRM1, 2
1	4538	25		mov __rotate_theTurnPct1, __rotate_turnpct1
1	4539	27		brtst 4, __rotate_Start1, __rotate_theTurnPct1
1	4540	30		add __rotate_theUF1, __rotate_theUF1, __constVal32
1	4541	34		jmp __rotate_Start1
1	4543	36		set __rotate_theOM1, 3
1	4544	39		set __rotate_theRM1, 0
1	4545	42		set __rotate_theTurnPct1, 0
1	4547	45		set __rotate_theRS1, 32
1	4548	48		setout __rotate_ports1, 1, __rotate_theOM1, 8, __rotate_theRM1, 5, __rotate_theAngle1, 6, __rotate_theRS1, 10, __rotate_theRVP1, 11, __rotate_theRVI1, 12, __rotate_theRVD1, 2, __rotate_thePower1, 7, __rotate_turnpct1, 0, __rotate_theUF1
1	4551	71		index __rotate_firstPort1, __rotate_ports1, 65535
1	4553	75		getout __rotate_power1, __rotate_firstPort1, 2
1	4554	79		brtst 4, __rotate_doneRunning1, __rotate_power1
1	4555	82		getout __rotate_rs1, __rotate_firstPort1, 6
1	4556	86		brcmp 4, __rotate_Running1, __rotate_rs1, __constVal32
1	4558	90		brtst 4, __rotate_Reset1, __rotate_stop1
1	4560	93		set __rotate_theOM1, 7
1	4561	96		set __rotate_theUF1, 7
1	4562	99		setout __rotate_ports1, 1, __rotate_theOM1, 8, __constVal1, 6, __rotate_theRS1, 2, __constVal0, 5, __constVal0, 0, __rotate_theUF1
1	4564	114		getout __rotate_RotCount1, __rotate_firstPort1, 14
1	4566	118		mov __rotate_OldRotCount1, __rotate_RotCount1
1	4567	120		wait 50
1	4569	122		getout __rotate_RotCount1, __rotate_firstPort1, 14
1	4570	126		brcmp 5, __rotate_Stabilize1, __rotate_OldRotCount1, __rotate_RotCount1
1	4571	130		set __rotate_theOM1, 4
1	4572	133		setout __rotate_ports1, 8, __rotate_theRM1, 6, __constVal0, 1, __rotate_theOM1, 0, __constVal1
1	4575	144		brtst 4, __rotate_Done1, __rotate_theTurnPct1
1	4576	147		setout __rotate_ports1, 0, __constVal32
1	4578	152		subret ____RotateMotor1_return
2	4885	0		setin __constVal1, __ResetSensorPort, 5
2	4887	4		getin __ResetSensorTmp, __ResetSensorPort, 5
2	4888	8		brtst 5, __SensorStillInvalid, __ResetSensorTmp
2	4889	11		subret ____ResetSensorSubroutine_return
3	29	0	#line 29 "C:\Users\Lshi\AppData\Local\Temp\temp.nxc"
3	30	0		mov __signed_stack_001lineFollow, inMaze
3	29	2	#line 29 "C:\Users\Lshi\AppData\Local\Temp\temp.nxc"
3	29	2	#line 29 "C:\Users\Lshi\AppData\Local\Temp\temp.nxc"
3	30	2		set __D0lineFollow, 0
3	29	5	#line 29 "C:\Users\Lshi\AppData\Local\Temp\temp.nxc"
3	30	5		cmp 4, __zflineFollow, __signed_stack_001lineFollow, __D0lineFollow
3	29	9	#line 29 "C:\Users\Lshi\AppData\Local\Temp\temp.nxc"
3	30	9		mov __D0lineFollow, __zflineFollow
3	30	11	#line 30 "C:\Users\Lshi\AppData\Local\Temp\temp.nxc"
3	31	11		brtst 4, __NXC_Label_605, __zflineFollow
3	30	14	#line 30 "C:\Users\Lshi\AppData\Local\Temp\temp.nxc"
3	31	14		getin __signed_stack_001lineFollow, __constVal0, 4
3	30	18	#line 30 "C:\Users\Lshi\AppData\Local\Temp\temp.nxc"
3	30	18	#line 30 "C:\Users\Lshi\AppData\Local\Temp\temp.nxc"
3	31	18		mov __D0lineFollow, lightAvg
3	30	20	#line 30 "C:\Users\Lshi\AppData\Local\Temp\temp.nxc"
3	31	20		cmp 1, __zflineFollow, __signed_stack_001lineFollow, __D0lineFollow
3	30	24	#line 30 "C:\Users\Lshi\AppData\Local\Temp\temp.nxc"
3	31	24		mov __D0lineFollow, __zflineFollow
3	31	26	#line 31 "C:\Users\Lshi\AppData\Local\Temp\temp.nxc"
3	32	26		brtst 4, __NXC_Label_610, __zflineFollow
3	31	29	#line 31 "C:\Users\Lshi\AppData\Local\Temp\temp.nxc"
3	31	29	#line 31 "C:\Users\Lshi\AppData\Local\Temp\temp.nxc"
3	31	29	#line 31 "C:\Users\Lshi\AppData\Local\Temp\temp.nxc"
3	31	29	#line 31 "C:\Users\Lshi\AppData\Local\Temp\temp.nxc"
3	32	29		mul __signed_stack_001lineFollow, dir, __constVal60
3	31	33	#line 31 "C:\Users\Lshi\AppData\Local\Temp\temp.nxc"
3	31	33	#line 31 "C:\Users\Lshi\AppData\Local\Temp\temp.nxc"
3	31	33	#line 31 "C:\Users\Lshi\AppData\Local\Temp\temp.nxc"
3	31	33	#line 31 "C:\Users\Lshi\AppData\Local\Temp\temp.nxc"
3	31	33	#line 31 "C:\Users\Lshi\AppData\Local\Temp\temp.nxc"
3	32	33		mul __signed_stack_002lineFollow, dir, __constVal60
3	31	37	#line 31 "C:\Users\Lshi\AppData\Local\Temp\temp.nxc"
3	31	37	#line 31 "C:\Users\Lshi\AppData\Local\Temp\temp.nxc"
3	31	37	#line 31 "C:\Users\Lshi\AppData\Local\Temp\temp.nxc"
3	32	37		mul __signed_stack_002lineFollow, __signed_stack_002lineFollow, __constVal2
3	31	41	#line 31 "C:\Users\Lshi\AppData\Local\Temp\temp.nxc"
3	31	41	#line 31 "C:\Users\Lshi\AppData\Local\Temp\temp.nxc"
3	32	41		getin __signed_stack_003lineFollow, __constVal0, 4
3	31	45	#line 31 "C:\Users\Lshi\AppData\Local\Temp\temp.nxc"
3	31	45	#line 31 "C:\Users\Lshi\AppData\Local\Temp\temp.nxc"
3	31	45	#line 31 "C:\Users\Lshi\AppData\Local\Temp\temp.nxc"
3	32	45		sub __D0lineFollow, __signed_stack_003lineFollow, lightAvg
3	31	49	#line 31 "C:\Users\Lshi\AppData\Local\Temp\temp.nxc"
3	32	49		mul __signed_stack_002lineFollow, __signed_stack_002lineFollow, __D0lineFollow
3	31	53	#line 31 "C:\Users\Lshi\AppData\Local\Temp\temp.nxc"
3	31	53	#line 31 "C:\Users\Lshi\AppData\Local\Temp\temp.nxc"
3	31	53	#line 31 "C:\Users\Lshi\AppData\Local\Temp\temp.nxc"
3	31	53	#line 31 "C:\Users\Lshi\AppData\Local\Temp\temp.nxc"
3	31	53	#line 31 "C:\Users\Lshi\AppData\Local\Temp\temp.nxc"
3	32	53		sub __D0lineFollow, white, lightAvg
3	31	57	#line 31 "C:\Users\Lshi\AppData\Local\Temp\temp.nxc"
3	32	57		div __D0lineFollow, __signed_stack_002lineFollow, __D0lineFollow
3	31	61	#line 31 "C:\Users\Lshi\AppData\Local\Temp\temp.nxc"
3	32	61		sub __D0lineFollow, __signed_stack_001lineFollow, __D0lineFollow
3	32	65	#line 32 "C:\Users\Lshi\AppData\Local\Temp\temp.nxc"
3	33	65	#pragma macro 7
3	33	65		setout __constVal0, 2, __D0lineFollow, 1, __constVal3, 8, __constVal0, 6, __constVal32, 7, __constVal0, 5, __constVal0, 10, __constVal96, 11, __constVal32, 12, __constVal32, 0, __constVal63
3	7000	88	#line 7000 "C:\Users\Lshi\AppData\Local\Temp\temp.nxc"
3	32	88	#line 32 "C:\Users\Lshi\AppData\Local\Temp\temp.nxc"
3	32	88	#line 32 "C:\Users\Lshi\AppData\Local\Temp\temp.nxc"
3	32	88	#line 32 "C:\Users\Lshi\AppData\Local\Temp\temp.nxc"
3	32	88	#line 32 "C:\Users\Lshi\AppData\Local\Temp\temp.nxc"
3	32	88	#line 32 "C:\Users\Lshi\AppData\Local\Temp\temp.nxc"
3	32	88	#line 32 "C:\Users\Lshi\AppData\Local\Temp\temp.nxc"
3	33	88		mul __D0lineFollow, dir, __constVal60
3	33	92	#line 33 "C:\Users\Lshi\AppData\Local\Temp\temp.nxc"
3	34	92	#pragma macro 7
3	34	92		setout __constVal2, 2, __D0lineFollow, 1, __constVal3, 8, __constVal0, 6, __constVal32, 7, __constVal0, 5, __constVal0, 10, __constVal96, 11, __constVal32, 12, __constVal32, 0, __constVal63
3	7014	115	#line 7014 "C:\Users\Lshi\AppData\Local\Temp\temp.nxc"
3	33	115	#line 33 "C:\Users\Lshi\AppData\Local\Temp\temp.nxc"
3	34	115	#line 34 "C:\Users\Lshi\AppData\Local\Temp\temp.nxc"
3	35	115		jmp __NXC_Label_619
3	34	117	#line 34 "C:\Users\Lshi\AppData\Local\Temp\temp.nxc"
3	35	117		getin __signed_stack_001lineFollow, __constVal0, 4
3	34	121	#line 34 "C:\Users\Lshi\AppData\Local\Temp\temp.nxc"
3	34	121	#line 34 "C:\Users\Lshi\AppData\Local\Temp\temp.nxc"
3	35	121		mov __D0lineFollow, lightAvg
3	34	123	#line 34 "C:\Users\Lshi\AppData\Local\Temp\temp.nxc"
3	35	123		cmp 2, __zflineFollow, __signed_stack_001lineFollow, __D0lineFollow
3	34	127	#line 34 "C:\Users\Lshi\AppData\Local\Temp\temp.nxc"
3	35	127		mov __D0lineFollow, __zflineFollow
3	35	129	#line 35 "C:\Users\Lshi\AppData\Local\Temp\temp.nxc"
3	36	129		brtst 4, __NXC_Label_622, __zflineFollow
3	35	132	#line 35 "C:\Users\Lshi\AppData\Local\Temp\temp.nxc"
3	35	132	#line 35 "C:\Users\Lshi\AppData\Local\Temp\temp.nxc"
3	35	132	#line 35 "C:\Users\Lshi\AppData\Local\Temp\temp.nxc"
3	35	132	#line 35 "C:\Users\Lshi\AppData\Local\Temp\temp.nxc"
3	36	132		mul __signed_stack_001lineFollow, dir, __constVal60
3	35	136	#line 35 "C:\Users\Lshi\AppData\Local\Temp\temp.nxc"
3	35	136	#line 35 "C:\Users\Lshi\AppData\Local\Temp\temp.nxc"
3	35	136	#line 35 "C:\Users\Lshi\AppData\Local\Temp\temp.nxc"
3	35	136	#line 35 "C:\Users\Lshi\AppData\Local\Temp\temp.nxc"
3	35	136	#line 35 "C:\Users\Lshi\AppData\Local\Temp\temp.nxc"
3	36	136		mul __signed_stack_002lineFollow, dir, __constVal60
3	35	140	#line 35 "C:\Users\Lshi\AppData\Local\Temp\temp.nxc"
3	35	140	#line 35 "C:\Users\Lshi\AppData\Local\Temp\temp.nxc"
3	35	140	#line 35 "C:\Users\Lshi\AppData\Local\Temp\temp.nxc"
3	36	140		mul __signed_stack_002lineFollow, __signed_stack_002lineFollow, __constVal2
3	35	144	#line 35 "C:\Users\Lshi\AppData\Local\Temp\temp.nxc"
3	35	144	#line 35 "C:\Users\Lshi\AppData\Local\Temp\temp.nxc"
3	36	144		getin __signed_stack_003lineFollow, __constVal0, 4
3	35	148	#line 35 "C:\Users\Lshi\AppData\Local\Temp\temp.nxc"
3	35	148	#line 35 "C:\Users\Lshi\AppData\Local\Temp\temp.nxc"
3	35	148	#line 35 "C:\Users\Lshi\AppData\Local\Temp\temp.nxc"
3	36	148		sub __D0lineFollow, __signed_stack_003lineFollow, lightAvg
3	35	152	#line 35 "C:\Users\Lshi\AppData\Local\Temp\temp.nxc"
3	36	152		mul __signed_stack_002lineFollow, __signed_stack_002lineFollow, __D0lineFollow
3	35	156	#line 35 "C:\Users\Lshi\AppData\Local\Temp\temp.nxc"
3	35	156	#line 35 "C:\Users\Lshi\AppData\Local\Temp\temp.nxc"
3	35	156	#line 35 "C:\Users\Lshi\AppData\Local\Temp\temp.nxc"
3	35	156	#line 35 "C:\Users\Lshi\AppData\Local\Temp\temp.nxc"
3	35	156	#line 35 "C:\Users\Lshi\AppData\Local\Temp\temp.nxc"
3	36	156		sub __D0lineFollow, black, lightAvg
3	35	160	#line 35 "C:\Users\Lshi\AppData\Local\Temp\temp.nxc"
3	36	160		div __D0lineFollow, __signed_stack_002lineFollow, __D0lineFollow
3	35	164	#line 35 "C:\Users\Lshi\AppData\Local\Temp\temp.nxc"
3	36	164		sub __D0lineFollow, __signed_stack_001lineFollow, __D0lineFollow
3	36	168	#line 36 "C:\Users\Lshi\AppData\Local\Temp\temp.nxc"
3	37	168	#pragma macro 7
3	37	168		setout __constVal2, 2, __D0lineFollow, 1, __constVal3, 8, __constVal0, 6, __constVal32, 7, __constVal0, 5, __constVal0, 10, __constVal96, 11, __constVal32, 12, __constVal32, 0, __constVal63
3	7090	191	#line 7090 "C:\Users\Lshi\AppData\Local\Temp\temp.nxc"
3	36	191	#line 36 "C:\Users\Lshi\AppData\Local\Temp\temp.nxc"
3	36	191	#line 36 "C:\Users\Lshi\AppData\Local\Temp\temp.nxc"
3	36	191	#line 36 "C:\Users\Lshi\AppData\Local\Temp\temp.nxc"
3	36	191	#line 36 "C:\Users\Lshi\AppData\Local\Temp\temp.nxc"
3	36	191	#line 36 "C:\Users\Lshi\AppData\Local\Temp\temp.nxc"
3	36	191	#line 36 "C:\Users\Lshi\AppData\Local\Temp\temp.nxc"
3	37	191		mul __D0lineFollow, dir, __constVal60
3	37	195	#line 37 "C:\Users\Lshi\AppData\Local\Temp\temp.nxc"
3	38	195	#pragma macro 7
3	38	195		setout __constVal0, 2, __D0lineFollow, 1, __constVal3, 8, __constVal0, 6, __constVal32, 7, __constVal0, 5, __constVal0, 10, __constVal96, 11, __constVal32, 12, __constVal32, 0, __constVal63
3	7104	218	#line 7104 "C:\Users\Lshi\AppData\Local\Temp\temp.nxc"
3	37	218	#line 37 "C:\Users\Lshi\AppData\Local\Temp\temp.nxc"
3	40	218	#line 40 "C:\Users\Lshi\AppData\Local\Temp\temp.nxc"
3	40	218	#line 40 "C:\Users\Lshi\AppData\Local\Temp\temp.nxc"
3	40	218	#line 40 "C:\Users\Lshi\AppData\Local\Temp\temp.nxc"
3	41	218		jmp __NXC_Label_604
3	40	220	#line 40 "C:\Users\Lshi\AppData\Local\Temp\temp.nxc"
3	40	220	#line 40 "C:\Users\Lshi\AppData\Local\Temp\temp.nxc"
3	41	220		set __D0lineFollow, 0
3	41	223	#line 41 "C:\Users\Lshi\AppData\Local\Temp\temp.nxc"
3	42	223	#pragma macro 7
3	42	223		setout __OUT_AC, 2, __D0lineFollow, 1, __constVal3, 8, __constVal0, 6, __constVal32, 7, __constVal0, 5, __constVal0, 10, __constVal96, 11, __constVal32, 12, __constVal32, 0, __constVal63
3	7119	246	#line 7119 "C:\Users\Lshi\AppData\Local\Temp\temp.nxc"
3	41	246	#line 41 "C:\Users\Lshi\AppData\Local\Temp\temp.nxc"
3	42	246	#line 42 "C:\Users\Lshi\AppData\Local\Temp\temp.nxc"
3	43	246		subcall switchDir, __switchDir_return
3	42	248	#line 42 "C:\Users\Lshi\AppData\Local\Temp\temp.nxc"
3	42	248	#line 42 "C:\Users\Lshi\AppData\Local\Temp\temp.nxc"
3	42	248	#line 42 "C:\Users\Lshi\AppData\Local\Temp\temp.nxc"
3	7921	248	#line 7921 "NXCDefs.h"
3	7922	248		wait 2000
3	7921	250	#line 7921 "NXCDefs.h"
3	43	250	#line 43 "C:\Users\Lshi\AppData\Local\Temp\temp.nxc"
3	44	250	#line 44 "C:\Users\Lshi\AppData\Local\Temp\temp.nxc"
3	45	250		subcall switchDir, __switchDir_return
3	44	252	#line 44 "C:\Users\Lshi\AppData\Local\Temp\temp.nxc"
3	45	252	#line 45 "C:\Users\Lshi\AppData\Local\Temp\temp.nxc"
3	45	252	#line 45 "C:\Users\Lshi\AppData\Local\Temp\temp.nxc"
3	46	252		exit 0, 1
4	69	0	#line 69 "C:\Users\Lshi\AppData\Local\Temp\temp.nxc"
4	70	0		set __D0ballFind, 1
4	75	3	#line 75 "C:\Users\Lshi\AppData\Local\Temp\temp.nxc"
4	76	3		tst 5, __zfballFind, __D0ballFind
4	75	6	#line 75 "C:\Users\Lshi\AppData\Local\Temp\temp.nxc"
4	76	6		brtst 4, __NXC_Label_640, __zfballFind
4	78	9	#line 78 "C:\Users\Lshi\AppData\Local\Temp\temp.nxc"
4	79	9		jmp __NXC_Label_639
4	78	11	#line 78 "C:\Users\Lshi\AppData\Local\Temp\temp.nxc"
4	79	11		exit -1, -1
5	83	0	#line 83 "C:\Users\Lshi\AppData\Local\Temp\temp.nxc"
5	84	0		mov __signed_stack_001switchDir, dir
5	83	2	#line 83 "C:\Users\Lshi\AppData\Local\Temp\temp.nxc"
5	83	2	#line 83 "C:\Users\Lshi\AppData\Local\Temp\temp.nxc"
5	84	2		set __D0switchDir, -1
5	83	5	#line 83 "C:\Users\Lshi\AppData\Local\Temp\temp.nxc"
5	84	5		cmp 4, __zfswitchDir, __signed_stack_001switchDir, __D0switchDir
5	83	9	#line 83 "C:\Users\Lshi\AppData\Local\Temp\temp.nxc"
5	84	9		mov __D0switchDir, __zfswitchDir
5	84	11	#line 84 "C:\Users\Lshi\AppData\Local\Temp\temp.nxc"
5	85	11		brtst 4, __NXC_Label_645, __zfswitchDir
5	85	14	#line 85 "C:\Users\Lshi\AppData\Local\Temp\temp.nxc"
5	86	14		set dir, 1
5	85	17	#line 85 "C:\Users\Lshi\AppData\Local\Temp\temp.nxc"
5	85	17	#line 85 "C:\Users\Lshi\AppData\Local\Temp\temp.nxc"
5	85	17	#line 85 "C:\Users\Lshi\AppData\Local\Temp\temp.nxc"
5	86	17		set __signed_stack_001switchDir, 30
5	85	20	#line 85 "C:\Users\Lshi\AppData\Local\Temp\temp.nxc"
5	85	20	#line 85 "C:\Users\Lshi\AppData\Local\Temp\temp.nxc"
5	86	20		set __D0switchDir, -180
5	87	23	#line 87 "C:\Users\Lshi\AppData\Local\Temp\temp.nxc"
5	88	23	#pragma macro 33
5	88	23		arrbuild __rotate_ports1, __constVal1
5	88	27		mov __rotate_power1, __signed_stack_001switchDir
5	88	29		mov __rotate_angle1, __D0switchDir
5	88	31		mov __rotate_turnpct1, __constVal0
5	88	33		mov __rotate_sync1, __constVal0
5	88	35		mov __rotate_stop1, __constVal1
5	88	37		mov __rotate_theRVP1, __constVal32
5	88	39		mov __rotate_theRVI1, __constVal0
5	88	41		mov __rotate_theRVD1, __constVal96
5	88	43		subcall __RotateMotor1, ____RotateMotor1_return
5	7216	45	#line 7216 "C:\Users\Lshi\AppData\Local\Temp\temp.nxc"
5	87	45	#line 87 "C:\Users\Lshi\AppData\Local\Temp\temp.nxc"
5	88	45	#line 88 "C:\Users\Lshi\AppData\Local\Temp\temp.nxc"
5	89	45		jmp __NXC_Label_652
5	88	47	#line 88 "C:\Users\Lshi\AppData\Local\Temp\temp.nxc"
5	89	47		mov __signed_stack_001switchDir, dir
5	88	49	#line 88 "C:\Users\Lshi\AppData\Local\Temp\temp.nxc"
5	88	49	#line 88 "C:\Users\Lshi\AppData\Local\Temp\temp.nxc"
5	89	49		set __D0switchDir, 1
5	88	52	#line 88 "C:\Users\Lshi\AppData\Local\Temp\temp.nxc"
5	89	52		cmp 4, __zfswitchDir, __signed_stack_001switchDir, __D0switchDir
5	88	56	#line 88 "C:\Users\Lshi\AppData\Local\Temp\temp.nxc"
5	89	56		mov __D0switchDir, __zfswitchDir
5	89	58	#line 89 "C:\Users\Lshi\AppData\Local\Temp\temp.nxc"
5	90	58		brtst 4, __NXC_Label_655, __zfswitchDir
5	90	61	#line 90 "C:\Users\Lshi\AppData\Local\Temp\temp.nxc"
5	91	61		set dir, -1
5	90	64	#line 90 "C:\Users\Lshi\AppData\Local\Temp\temp.nxc"
5	90	64	#line 90 "C:\Users\Lshi\AppData\Local\Temp\temp.nxc"
5	90	64	#line 90 "C:\Users\Lshi\AppData\Local\Temp\temp.nxc"
5	91	64		set __signed_stack_001switchDir, 30
5	90	67	#line 90 "C:\Users\Lshi\AppData\Local\Temp\temp.nxc"
5	90	67	#line 90 "C:\Users\Lshi\AppData\Local\Temp\temp.nxc"
5	91	67		set __D0switchDir, 180
5	91	70	#line 91 "C:\Users\Lshi\AppData\Local\Temp\temp.nxc"
5	92	70	#pragma macro 33
5	92	70		arrbuild __rotate_ports1, __constVal1
5	92	74		mov __rotate_power1, __signed_stack_001switchDir
5	92	76		mov __rotate_angle1, __D0switchDir
5	92	78		mov __rotate_turnpct1, __constVal0
5	92	80		mov __rotate_sync1, __constVal0
5	92	82		mov __rotate_stop1, __constVal1
5	92	84		mov __rotate_theRVP1, __constVal32
5	92	86		mov __rotate_theRVI1, __constVal0
5	92	88		mov __rotate_theRVD1, __constVal96
5	92	90		subcall __RotateMotor1, ____RotateMotor1_return
5	7253	92	#line 7253 "C:\Users\Lshi\AppData\Local\Temp\temp.nxc"
5	91	92	#line 91 "C:\Users\Lshi\AppData\Local\Temp\temp.nxc"
5	95	92	#line 95 "C:\Users\Lshi\AppData\Local\Temp\temp.nxc"
5	95	92	#line 95 "C:\Users\Lshi\AppData\Local\Temp\temp.nxc"
5	95	92	#line 95 "C:\Users\Lshi\AppData\Local\Temp\temp.nxc"
5	96	92		subret __switchDir_return
6	6069	0	#line 6069 "NXCDefs.h"
6	6070	0	#pragma macro 6
6	6070	0		acquire __PointOutMutex
6	6070	1		mov __PointOutArgs.Location.X, __constVal200
6	6070	3		mov __PointOutArgs.Location.Y, __constVal200
6	6070	5		mov __PointOutArgs.Options, __constVal1
6	6070	7		syscall 14, __PointOutArgs
6	6070	10		release __PointOutMutex
6	7265	11	#line 7265 "NXCDefs.h"
6	6069	11	#line 6069 "NXCDefs.h"
6	97	11	#line 97 "C:\Users\Lshi\AppData\Local\Temp\temp.nxc"
6	97	11	#line 97 "C:\Users\Lshi\AppData\Local\Temp\temp.nxc"
6	98	11		set __signed_stack_001displayNum, 0
6	97	14	#line 97 "C:\Users\Lshi\AppData\Local\Temp\temp.nxc"
6	97	14	#line 97 "C:\Users\Lshi\AppData\Local\Temp\temp.nxc"
6	98	14		set __signed_stack_002displayNum, 2
6	97	17	#line 97 "C:\Users\Lshi\AppData\Local\Temp\temp.nxc"
6	97	17	#line 97 "C:\Users\Lshi\AppData\Local\Temp\temp.nxc"
6	98	17		mov __D0displayNum, __displayNum_7qG2_n_7qG2_000
6	97	19	#line 97 "C:\Users\Lshi\AppData\Local\Temp\temp.nxc"
6	98	19		numtostr __strretvaldisplayNum, __D0displayNum
6	97	22	#line 97 "C:\Users\Lshi\AppData\Local\Temp\temp.nxc"
6	98	22		strcat __strbufdisplayNum, __strretvaldisplayNum
6	98	26	#line 98 "C:\Users\Lshi\AppData\Local\Temp\temp.nxc"
6	99	26		acquire __TextOutMutex
6	98	27	#line 98 "C:\Users\Lshi\AppData\Local\Temp\temp.nxc"
6	99	27		mov __TextOutArgs.Location.X, __signed_stack_001displayNum
6	98	29	#line 98 "C:\Users\Lshi\AppData\Local\Temp\temp.nxc"
6	99	29		mov __TextOutArgs.Location.Y, __signed_stack_002displayNum
6	98	31	#line 98 "C:\Users\Lshi\AppData\Local\Temp\temp.nxc"
6	99	31		set __TextOutArgs.Options, 0
6	98	34	#line 98 "C:\Users\Lshi\AppData\Local\Temp\temp.nxc"
6	99	34		mov __TextOutArgs.Text, __strbufdisplayNum
6	98	36	#line 98 "C:\Users\Lshi\AppData\Local\Temp\temp.nxc"
6	99	36		syscall 13, __TextOutArgs
6	98	39	#line 98 "C:\Users\Lshi\AppData\Local\Temp\temp.nxc"
6	99	39		mov __D0displayNum, __TextOutArgs.Result
6	98	41	#line 98 "C:\Users\Lshi\AppData\Local\Temp\temp.nxc"
6	99	41		release __TextOutMutex
6	98	42	#line 98 "C:\Users\Lshi\AppData\Local\Temp\temp.nxc"
6	98	42	#line 98 "C:\Users\Lshi\AppData\Local\Temp\temp.nxc"
6	98	42	#line 98 "C:\Users\Lshi\AppData\Local\Temp\temp.nxc"
6	7921	42	#line 7921 "NXCDefs.h"
6	7922	42		wait 1500
6	7921	44	#line 7921 "NXCDefs.h"
6	99	44	#line 99 "C:\Users\Lshi\AppData\Local\Temp\temp.nxc"
6	6069	44	#line 6069 "NXCDefs.h"
6	6070	44	#pragma macro 6
6	6070	44		acquire __PointOutMutex
6	6070	45		mov __PointOutArgs.Location.X, __constVal200
6	6070	47		mov __PointOutArgs.Location.Y, __constVal200
6	6070	49		mov __PointOutArgs.Options, __constVal1
6	6070	51		syscall 14, __PointOutArgs
6	6070	54		release __PointOutMutex
6	7320	55	#line 7320 "NXCDefs.h"
6	6069	55	#line 6069 "NXCDefs.h"
6	100	55	#line 100 "C:\Users\Lshi\AppData\Local\Temp\temp.nxc"
6	102	55	#line 102 "C:\Users\Lshi\AppData\Local\Temp\temp.nxc"
6	103	55		subret __displayNum_return
7	104	0	#line 104 "C:\Users\Lshi\AppData\Local\Temp\temp.nxc"
7	105	0		set dir, -1
7	104	3	#line 104 "C:\Users\Lshi\AppData\Local\Temp\temp.nxc"
7	104	3	#line 104 "C:\Users\Lshi\AppData\Local\Temp\temp.nxc"
7	104	3	#line 104 "C:\Users\Lshi\AppData\Local\Temp\temp.nxc"
7	105	3		set __SetSensorLight_7qG2_port_7qG2_000_inline_calibration, 0
7	104	6	#line 104 "C:\Users\Lshi\AppData\Local\Temp\temp.nxc"
7	104	6	#line 104 "C:\Users\Lshi\AppData\Local\Temp\temp.nxc"
7	105	6		set __SetSensorLight_7qG2_bActive_7qG2_000_inline_calibration, 1
7	104	9	#line 104 "C:\Users\Lshi\AppData\Local\Temp\temp.nxc"
7	3729	9	#line 3729 "NXCDefs.h"
7	3730	9		mov __SetSensorType_7qG2_port_7qG2_000_inline_SetSensorLight_inline_calibration, __SetSensorLight_7qG2_port_7qG2_000_inline_calibration
7	3729	11	#line 3729 "NXCDefs.h"
7	3729	11	#line 3729 "NXCDefs.h"
7	3730	11		mov __DU0SetSensorLight_inline_calibration, __SetSensorLight_7qG2_bActive_7qG2_000_inline_calibration
7	3729	13	#line 3729 "NXCDefs.h"
7	3730	13		tst 5, __zfSetSensorLight_inline_calibration, __DU0SetSensorLight_inline_calibration
7	3729	16	#line 3729 "NXCDefs.h"
7	3730	16		brtst 4, __001__NXC_Label_4, __zfSetSensorLight_inline_calibration
7	3729	19	#line 3729 "NXCDefs.h"
7	3730	19		set __D0SetSensorLight_inline_calibration, 5
7	3729	22	#line 3729 "NXCDefs.h"
7	3730	22		jmp __001__NXC_Label_5
7	3729	24	#line 3729 "NXCDefs.h"
7	3730	24		set __D0SetSensorLight_inline_calibration, 6
7	3729	27	#line 3729 "NXCDefs.h"
7	3730	27		mov __SetSensorType_7qG2_type_7qG2_000_inline_SetSensorLight_inline_calibration, __D0SetSensorLight_inline_calibration
7	3663	29	#line 3663 "NXCDefs.h"
7	3664	29		setin __SetSensorType_7qG2_type_7qG2_000_inline_SetSensorLight_inline_calibration, __SetSensorType_7qG2_port_7qG2_000_inline_SetSensorLight_inline_calibration, 0
7	3663	33	#line 3663 "NXCDefs.h"
7	3730	33	#line 3730 "NXCDefs.h"
7	3730	33	#line 3730 "NXCDefs.h"
7	3731	33		mov __SetSensorMode_7qG2_port_7qG2_000_inline_SetSensorLight_inline_calibration, __SetSensorLight_7qG2_port_7qG2_000_inline_calibration
7	3730	35	#line 3730 "NXCDefs.h"
7	3730	35	#line 3730 "NXCDefs.h"
7	3731	35		set __SetSensorMode_7qG2_mode_7qG2_000_inline_SetSensorLight_inline_calibration, 128
7	3730	38	#line 3730 "NXCDefs.h"
7	3676	38	#line 3676 "NXCDefs.h"
7	3677	38		setin __SetSensorMode_7qG2_mode_7qG2_000_inline_SetSensorLight_inline_calibration, __SetSensorMode_7qG2_port_7qG2_000_inline_SetSensorLight_inline_calibration, 1
7	3676	42	#line 3676 "NXCDefs.h"
7	3731	42	#line 3731 "NXCDefs.h"
7	3731	42	#line 3731 "NXCDefs.h"
7	3731	42	#line 3731 "NXCDefs.h"
7	3694	42	#line 3694 "NXCDefs.h"
7	3695	42	#pragma macro 4
7	3695	42		mov __ResetSensorPort, __SetSensorLight_7qG2_port_7qG2_000_inline_calibration
7	3695	44		subcall __ResetSensorSubroutine, ____ResetSensorSubroutine_return
7	7430	46	#line 7430 "NXCDefs.h"
7	3694	46	#line 3694 "NXCDefs.h"
7	3732	46	#line 3732 "NXCDefs.h"
7	105	46	#line 105 "C:\Users\Lshi\AppData\Local\Temp\temp.nxc"
7	105	46	#line 105 "C:\Users\Lshi\AppData\Local\Temp\temp.nxc"
7	106	46		set __signed_stack_001calibration, 0
7	105	49	#line 105 "C:\Users\Lshi\AppData\Local\Temp\temp.nxc"
7	105	49	#line 105 "C:\Users\Lshi\AppData\Local\Temp\temp.nxc"
7	106	49		set __signed_stack_002calibration, 2
7	105	52	#line 105 "C:\Users\Lshi\AppData\Local\Temp\temp.nxc"
7	105	52	#line 105 "C:\Users\Lshi\AppData\Local\Temp\temp.nxc"
7	106	52		strcat __strbufcalibration, __constStr0009
7	106	56	#line 106 "C:\Users\Lshi\AppData\Local\Temp\temp.nxc"
7	107	56		acquire __TextOutMutex
7	106	57	#line 106 "C:\Users\Lshi\AppData\Local\Temp\temp.nxc"
7	107	57		mov __TextOutArgs.Location.X, __signed_stack_001calibration
7	106	59	#line 106 "C:\Users\Lshi\AppData\Local\Temp\temp.nxc"
7	107	59		mov __TextOutArgs.Location.Y, __signed_stack_002calibration
7	106	61	#line 106 "C:\Users\Lshi\AppData\Local\Temp\temp.nxc"
7	107	61		set __TextOutArgs.Options, 0
7	106	64	#line 106 "C:\Users\Lshi\AppData\Local\Temp\temp.nxc"
7	107	64		mov __TextOutArgs.Text, __strbufcalibration
7	106	66	#line 106 "C:\Users\Lshi\AppData\Local\Temp\temp.nxc"
7	107	66		syscall 13, __TextOutArgs
7	106	69	#line 106 "C:\Users\Lshi\AppData\Local\Temp\temp.nxc"
7	107	69		mov __D0calibration, __TextOutArgs.Result
7	106	71	#line 106 "C:\Users\Lshi\AppData\Local\Temp\temp.nxc"
7	107	71		release __TextOutMutex
7	106	72	#line 106 "C:\Users\Lshi\AppData\Local\Temp\temp.nxc"
7	106	72	#line 106 "C:\Users\Lshi\AppData\Local\Temp\temp.nxc"
7	107	72		set __Wait_7qG2_ms_7qG2_000_inline_calibration, 3000
7	106	75	#line 106 "C:\Users\Lshi\AppData\Local\Temp\temp.nxc"
7	7921	75	#line 7921 "NXCDefs.h"
7	7922	75		wait 3000
7	7921	77	#line 7921 "NXCDefs.h"
7	107	77	#line 107 "C:\Users\Lshi\AppData\Local\Temp\temp.nxc"
7	107	77	#line 107 "C:\Users\Lshi\AppData\Local\Temp\temp.nxc"
7	108	77		getin black, __constVal0, 4
7	107	81	#line 107 "C:\Users\Lshi\AppData\Local\Temp\temp.nxc"
7	107	81	#line 107 "C:\Users\Lshi\AppData\Local\Temp\temp.nxc"
7	107	81	#line 107 "C:\Users\Lshi\AppData\Local\Temp\temp.nxc"
7	108	81	#line 108 "C:\Users\Lshi\AppData\Local\Temp\temp.nxc"
7	109	81		mov __displayNum_7qG2_n_7qG2_000, black
7	108	83	#line 108 "C:\Users\Lshi\AppData\Local\Temp\temp.nxc"
7	109	83	#line 109 "C:\Users\Lshi\AppData\Local\Temp\temp.nxc"
7	110	83		subcall displayNum, __displayNum_return
7	109	85	#line 109 "C:\Users\Lshi\AppData\Local\Temp\temp.nxc"
7	109	85	#line 109 "C:\Users\Lshi\AppData\Local\Temp\temp.nxc"
7	110	85		set __signed_stack_001calibration, 0
7	109	88	#line 109 "C:\Users\Lshi\AppData\Local\Temp\temp.nxc"
7	109	88	#line 109 "C:\Users\Lshi\AppData\Local\Temp\temp.nxc"
7	110	88		set __signed_stack_002calibration, 2
7	109	91	#line 109 "C:\Users\Lshi\AppData\Local\Temp\temp.nxc"
7	109	91	#line 109 "C:\Users\Lshi\AppData\Local\Temp\temp.nxc"
7	110	91		strcat __strbufcalibration, __constStr0010
7	110	95	#line 110 "C:\Users\Lshi\AppData\Local\Temp\temp.nxc"
7	111	95		acquire __TextOutMutex
7	110	96	#line 110 "C:\Users\Lshi\AppData\Local\Temp\temp.nxc"
7	111	96		mov __TextOutArgs.Location.X, __signed_stack_001calibration
7	110	98	#line 110 "C:\Users\Lshi\AppData\Local\Temp\temp.nxc"
7	111	98		mov __TextOutArgs.Location.Y, __signed_stack_002calibration
7	110	100	#line 110 "C:\Users\Lshi\AppData\Local\Temp\temp.nxc"
7	111	100		set __TextOutArgs.Options, 0
7	110	103	#line 110 "C:\Users\Lshi\AppData\Local\Temp\temp.nxc"
7	111	103		mov __TextOutArgs.Text, __strbufcalibration
7	110	105	#line 110 "C:\Users\Lshi\AppData\Local\Temp\temp.nxc"
7	111	105		syscall 13, __TextOutArgs
7	110	108	#line 110 "C:\Users\Lshi\AppData\Local\Temp\temp.nxc"
7	111	108		mov __D0calibration, __TextOutArgs.Result
7	110	110	#line 110 "C:\Users\Lshi\AppData\Local\Temp\temp.nxc"
7	111	110		release __TextOutMutex
7	110	111	#line 110 "C:\Users\Lshi\AppData\Local\Temp\temp.nxc"
7	110	111	#line 110 "C:\Users\Lshi\AppData\Local\Temp\temp.nxc"
7	111	111		set __Wait_7qG2_ms_7qG2_000_inline_calibration, 3000
7	110	114	#line 110 "C:\Users\Lshi\AppData\Local\Temp\temp.nxc"
7	7921	114	#line 7921 "NXCDefs.h"
7	7922	114		wait 3000
7	7921	116	#line 7921 "NXCDefs.h"
7	111	116	#line 111 "C:\Users\Lshi\AppData\Local\Temp\temp.nxc"
7	111	116	#line 111 "C:\Users\Lshi\AppData\Local\Temp\temp.nxc"
7	112	116		getin white, __constVal0, 4
7	111	120	#line 111 "C:\Users\Lshi\AppData\Local\Temp\temp.nxc"
7	111	120	#line 111 "C:\Users\Lshi\AppData\Local\Temp\temp.nxc"
7	111	120	#line 111 "C:\Users\Lshi\AppData\Local\Temp\temp.nxc"
7	112	120	#line 112 "C:\Users\Lshi\AppData\Local\Temp\temp.nxc"
7	113	120		mov __displayNum_7qG2_n_7qG2_000, white
7	112	122	#line 112 "C:\Users\Lshi\AppData\Local\Temp\temp.nxc"
7	114	122	#line 114 "C:\Users\Lshi\AppData\Local\Temp\temp.nxc"
7	115	122		subcall displayNum, __displayNum_return
7	114	124	#line 114 "C:\Users\Lshi\AppData\Local\Temp\temp.nxc"
7	114	124	#line 114 "C:\Users\Lshi\AppData\Local\Temp\temp.nxc"
7	114	124	#line 114 "C:\Users\Lshi\AppData\Local\Temp\temp.nxc"
7	114	124	#line 114 "C:\Users\Lshi\AppData\Local\Temp\temp.nxc"
7	114	124	#line 114 "C:\Users\Lshi\AppData\Local\Temp\temp.nxc"
7	115	124		add __signed_stack_001calibration, black, white
7	114	128	#line 114 "C:\Users\Lshi\AppData\Local\Temp\temp.nxc"
7	115	128	#line 115 "C:\Users\Lshi\AppData\Local\Temp\temp.nxc"
7	115	128	#line 115 "C:\Users\Lshi\AppData\Local\Temp\temp.nxc"
7	116	128		div lightAvg, __signed_stack_001calibration, __constVal2
7	115	132	#line 115 "C:\Users\Lshi\AppData\Local\Temp\temp.nxc"
7	115	132	#line 115 "C:\Users\Lshi\AppData\Local\Temp\temp.nxc"
7	115	132	#line 115 "C:\Users\Lshi\AppData\Local\Temp\temp.nxc"
7	116	132		mov __displayNum_7qG2_n_7qG2_000, lightAvg
7	115	134	#line 115 "C:\Users\Lshi\AppData\Local\Temp\temp.nxc"
7	117	134	#line 117 "C:\Users\Lshi\AppData\Local\Temp\temp.nxc"
7	118	134		subcall displayNum, __displayNum_return
7	117	136	#line 117 "C:\Users\Lshi\AppData\Local\Temp\temp.nxc"
7	117	136	#line 117 "C:\Users\Lshi\AppData\Local\Temp\temp.nxc"
7	117	136	#line 117 "C:\Users\Lshi\AppData\Local\Temp\temp.nxc"
7	3768	136	#line 3768 "NXCDefs.h"
7	3769	136		mov __SetSensorLowspeed_7qG2_port_7qG2_000_inline_SetSensorUltrasonic_inline_calibration, __constVal1
7	3768	138	#line 3768 "NXCDefs.h"
7	3768	138	#line 3768 "NXCDefs.h"
7	3769	138		mov __SetSensorLowspeed_7qG2_bIsPowered_7qG2_000_inline_SetSensorUltrasonic_inline_calibration, __constVal1
7	3758	140	#line 3758 "NXCDefs.h"
7	3759	140		mov __SetSensorType_7qG2_port_7qG2_000_inline_SetSensorLowspeed_inline_SetSensorUltrasonic_inline_calibration, __SetSensorLowspeed_7qG2_port_7qG2_000_inline_SetSensorUltrasonic_inline_calibration
7	3758	142	#line 3758 "NXCDefs.h"
7	3758	142	#line 3758 "NXCDefs.h"
7	3759	142		mov __DU0SetSensorLowspeed_inline_SetSensorUltrasonic, __SetSensorLowspeed_7qG2_bIsPowered_7qG2_000_inline_SetSensorUltrasonic_inline_calibration
7	3758	144	#line 3758 "NXCDefs.h"
7	3759	144		tst 5, __zfSetSensorLowspeed_inline_SetSensorUltrasonic, __DU0SetSensorLowspeed_inline_SetSensorUltrasonic
7	3758	147	#line 3758 "NXCDefs.h"
7	3759	147		brtst 4, __001__001__NXC_Label_36, __zfSetSensorLowspeed_inline_SetSensorUltrasonic
7	3758	150	#line 3758 "NXCDefs.h"
7	3759	150		set __D0SetSensorLowspeed_inline_SetSensorUltrasonic, 11
7	3758	153	#line 3758 "NXCDefs.h"
7	3759	153		jmp __001__001__NXC_Label_37
7	3758	155	#line 3758 "NXCDefs.h"
7	3759	155		set __D0SetSensorLowspeed_inline_SetSensorUltrasonic, 10
7	3758	158	#line 3758 "NXCDefs.h"
7	3759	158		mov __SetSensorType_7qG2_type_7qG2_000_inline_SetSensorLowspeed_inline_SetSensorUltrasonic_inline_calibration, __D0SetSensorLowspeed_inline_SetSensorUltrasonic
7	3663	160	#line 3663 "NXCDefs.h"
7	3664	160		setin __SetSensorType_7qG2_type_7qG2_000_inline_SetSensorLowspeed_inline_SetSensorUltrasonic_inline_calibration, __SetSensorType_7qG2_port_7qG2_000_inline_SetSensorLowspeed_inline_SetSensorUltrasonic_inline_calibration, 0
7	3663	164	#line 3663 "NXCDefs.h"
7	3759	164	#line 3759 "NXCDefs.h"
7	3759	164	#line 3759 "NXCDefs.h"
7	3760	164		mov __SetSensorMode_7qG2_port_7qG2_000_inline_SetSensorLowspeed_inline_SetSensorUltrasonic_inline_calibration, __SetSensorLowspeed_7qG2_port_7qG2_000_inline_SetSensorUltrasonic_inline_calibration
7	3759	166	#line 3759 "NXCDefs.h"
7	3759	166	#line 3759 "NXCDefs.h"
7	3760	166		set __SetSensorMode_7qG2_mode_7qG2_000_inline_SetSensorLowspeed_inline_SetSensorUltrasonic_inline_calibration, 0
7	3759	169	#line 3759 "NXCDefs.h"
7	3676	169	#line 3676 "NXCDefs.h"
7	3677	169		setin __SetSensorMode_7qG2_mode_7qG2_000_inline_SetSensorLowspeed_inline_SetSensorUltrasonic_inline_calibration, __SetSensorMode_7qG2_port_7qG2_000_inline_SetSensorLowspeed_inline_SetSensorUltrasonic_inline_calibration, 1
7	3676	173	#line 3676 "NXCDefs.h"
7	3760	173	#line 3760 "NXCDefs.h"
7	3760	173	#line 3760 "NXCDefs.h"
7	3760	173	#line 3760 "NXCDefs.h"
7	3694	173	#line 3694 "NXCDefs.h"
7	3695	173	#pragma macro 4
7	3695	173		mov __ResetSensorPort, __SetSensorLowspeed_7qG2_port_7qG2_000_inline_SetSensorUltrasonic_inline_calibration
7	3695	175		subcall __ResetSensorSubroutine, ____ResetSensorSubroutine_return
7	7685	177	#line 7685 "NXCDefs.h"
7	3694	177	#line 3694 "NXCDefs.h"
7	3761	177	#line 3761 "NXCDefs.h"
7	3768	177	#line 3768 "NXCDefs.h"
7	119	177	#line 119 "C:\Users\Lshi\AppData\Local\Temp\temp.nxc"
7	119	177	#line 119 "C:\Users\Lshi\AppData\Local\Temp\temp.nxc"
7	120	177		set __signed_stack_001calibration, 0
7	119	180	#line 119 "C:\Users\Lshi\AppData\Local\Temp\temp.nxc"
7	119	180	#line 119 "C:\Users\Lshi\AppData\Local\Temp\temp.nxc"
7	120	180		set __signed_stack_002calibration, 2
7	119	183	#line 119 "C:\Users\Lshi\AppData\Local\Temp\temp.nxc"
7	119	183	#line 119 "C:\Users\Lshi\AppData\Local\Temp\temp.nxc"
7	120	183		strcat __strbufcalibration, __constStr0011
7	120	187	#line 120 "C:\Users\Lshi\AppData\Local\Temp\temp.nxc"
7	121	187		acquire __TextOutMutex
7	120	188	#line 120 "C:\Users\Lshi\AppData\Local\Temp\temp.nxc"
7	121	188		mov __TextOutArgs.Location.X, __signed_stack_001calibration
7	120	190	#line 120 "C:\Users\Lshi\AppData\Local\Temp\temp.nxc"
7	121	190		mov __TextOutArgs.Location.Y, __signed_stack_002calibration
7	120	192	#line 120 "C:\Users\Lshi\AppData\Local\Temp\temp.nxc"
7	121	192		set __TextOutArgs.Options, 0
7	120	195	#line 120 "C:\Users\Lshi\AppData\Local\Temp\temp.nxc"
7	121	195		mov __TextOutArgs.Text, __strbufcalibration
7	120	197	#line 120 "C:\Users\Lshi\AppData\Local\Temp\temp.nxc"
7	121	197		syscall 13, __TextOutArgs
7	120	200	#line 120 "C:\Users\Lshi\AppData\Local\Temp\temp.nxc"
7	121	200		mov __D0calibration, __TextOutArgs.Result
7	120	202	#line 120 "C:\Users\Lshi\AppData\Local\Temp\temp.nxc"
7	121	202		release __TextOutMutex
7	120	203	#line 120 "C:\Users\Lshi\AppData\Local\Temp\temp.nxc"
7	120	203	#line 120 "C:\Users\Lshi\AppData\Local\Temp\temp.nxc"
7	121	203		set __Wait_7qG2_ms_7qG2_000_inline_calibration, 1000
7	120	206	#line 120 "C:\Users\Lshi\AppData\Local\Temp\temp.nxc"
7	7921	206	#line 7921 "NXCDefs.h"
7	7922	206		wait 1000
7	7921	208	#line 7921 "NXCDefs.h"
7	121	208	#line 121 "C:\Users\Lshi\AppData\Local\Temp\temp.nxc"
7	6069	208	#line 6069 "NXCDefs.h"
7	6070	208	#pragma macro 6
7	6070	208		acquire __PointOutMutex
7	6070	209		mov __PointOutArgs.Location.X, __constVal200
7	6070	211		mov __PointOutArgs.Location.Y, __constVal200
7	6070	213		mov __PointOutArgs.Options, __constVal1
7	6070	215		syscall 14, __PointOutArgs
7	6070	218		release __PointOutMutex
7	7732	219	#line 7732 "NXCDefs.h"
7	6069	219	#line 6069 "NXCDefs.h"
7	122	219	#line 122 "C:\Users\Lshi\AppData\Local\Temp\temp.nxc"
7	122	219	#line 122 "C:\Users\Lshi\AppData\Local\Temp\temp.nxc"
7	123	219		set __signed_stack_001calibration, 0
7	122	222	#line 122 "C:\Users\Lshi\AppData\Local\Temp\temp.nxc"
7	122	222	#line 122 "C:\Users\Lshi\AppData\Local\Temp\temp.nxc"
7	123	222		set __signed_stack_002calibration, 2
7	122	225	#line 122 "C:\Users\Lshi\AppData\Local\Temp\temp.nxc"
7	122	225	#line 122 "C:\Users\Lshi\AppData\Local\Temp\temp.nxc"
7	123	225		strcat __strbufcalibration, __constStr0012
7	123	229	#line 123 "C:\Users\Lshi\AppData\Local\Temp\temp.nxc"
7	124	229		acquire __TextOutMutex
7	123	230	#line 123 "C:\Users\Lshi\AppData\Local\Temp\temp.nxc"
7	124	230		mov __TextOutArgs.Location.X, __signed_stack_001calibration
7	123	232	#line 123 "C:\Users\Lshi\AppData\Local\Temp\temp.nxc"
7	124	232		mov __TextOutArgs.Location.Y, __signed_stack_002calibration
7	123	234	#line 123 "C:\Users\Lshi\AppData\Local\Temp\temp.nxc"
7	124	234		set __TextOutArgs.Options, 0
7	123	237	#line 123 "C:\Users\Lshi\AppData\Local\Temp\temp.nxc"
7	124	237		mov __TextOutArgs.Text, __strbufcalibration
7	123	239	#line 123 "C:\Users\Lshi\AppData\Local\Temp\temp.nxc"
7	124	239		syscall 13, __TextOutArgs
7	123	242	#line 123 "C:\Users\Lshi\AppData\Local\Temp\temp.nxc"
7	124	242		mov __D0calibration, __TextOutArgs.Result
7	123	244	#line 123 "C:\Users\Lshi\AppData\Local\Temp\temp.nxc"
7	124	244		release __TextOutMutex
7	123	245	#line 123 "C:\Users\Lshi\AppData\Local\Temp\temp.nxc"
7	123	245	#line 123 "C:\Users\Lshi\AppData\Local\Temp\temp.nxc"
7	124	245		set __Wait_7qG2_ms_7qG2_000_inline_calibration, 1000
7	123	248	#line 123 "C:\Users\Lshi\AppData\Local\Temp\temp.nxc"
7	7921	248	#line 7921 "NXCDefs.h"
7	7922	248		wait 1000
7	7921	250	#line 7921 "NXCDefs.h"
7	124	250	#line 124 "C:\Users\Lshi\AppData\Local\Temp\temp.nxc"
7	6069	250	#line 6069 "NXCDefs.h"
7	6070	250	#pragma macro 6
7	6070	250		acquire __PointOutMutex
7	6070	251		mov __PointOutArgs.Location.X, __constVal200
7	6070	253		mov __PointOutArgs.Location.Y, __constVal200
7	6070	255		mov __PointOutArgs.Options, __constVal1
7	6070	257		syscall 14, __PointOutArgs
7	6070	260		release __PointOutMutex
7	7777	261	#line 7777 "NXCDefs.h"
7	6069	261	#line 6069 "NXCDefs.h"
7	125	261	#line 125 "C:\Users\Lshi\AppData\Local\Temp\temp.nxc"
7	125	261	#line 125 "C:\Users\Lshi\AppData\Local\Temp\temp.nxc"
7	126	261		set __signed_stack_001calibration, 0
7	125	264	#line 125 "C:\Users\Lshi\AppData\Local\Temp\temp.nxc"
7	125	264	#line 125 "C:\Users\Lshi\AppData\Local\Temp\temp.nxc"
7	126	264		set __signed_stack_002calibration, 2
7	125	267	#line 125 "C:\Users\Lshi\AppData\Local\Temp\temp.nxc"
7	125	267	#line 125 "C:\Users\Lshi\AppData\Local\Temp\temp.nxc"
7	126	267		strcat __strbufcalibration, __constStr0013
7	126	271	#line 126 "C:\Users\Lshi\AppData\Local\Temp\temp.nxc"
7	127	271		acquire __TextOutMutex
7	126	272	#line 126 "C:\Users\Lshi\AppData\Local\Temp\temp.nxc"
7	127	272		mov __TextOutArgs.Location.X, __signed_stack_001calibration
7	126	274	#line 126 "C:\Users\Lshi\AppData\Local\Temp\temp.nxc"
7	127	274		mov __TextOutArgs.Location.Y, __signed_stack_002calibration
7	126	276	#line 126 "C:\Users\Lshi\AppData\Local\Temp\temp.nxc"
7	127	276		set __TextOutArgs.Options, 0
7	126	279	#line 126 "C:\Users\Lshi\AppData\Local\Temp\temp.nxc"
7	127	279		mov __TextOutArgs.Text, __strbufcalibration
7	126	281	#line 126 "C:\Users\Lshi\AppData\Local\Temp\temp.nxc"
7	127	281		syscall 13, __TextOutArgs
7	126	284	#line 126 "C:\Users\Lshi\AppData\Local\Temp\temp.nxc"
7	127	284		mov __D0calibration, __TextOutArgs.Result
7	126	286	#line 126 "C:\Users\Lshi\AppData\Local\Temp\temp.nxc"
7	127	286		release __TextOutMutex
7	126	287	#line 126 "C:\Users\Lshi\AppData\Local\Temp\temp.nxc"
7	126	287	#line 126 "C:\Users\Lshi\AppData\Local\Temp\temp.nxc"
7	127	287		set __Wait_7qG2_ms_7qG2_000_inline_calibration, 1000
7	126	290	#line 126 "C:\Users\Lshi\AppData\Local\Temp\temp.nxc"
7	7921	290	#line 7921 "NXCDefs.h"
7	7922	290		wait 1000
7	7921	292	#line 7921 "NXCDefs.h"
7	127	292	#line 127 "C:\Users\Lshi\AppData\Local\Temp\temp.nxc"
7	6069	292	#line 6069 "NXCDefs.h"
7	6070	292	#pragma macro 6
7	6070	292		acquire __PointOutMutex
7	6070	293		mov __PointOutArgs.Location.X, __constVal200
7	6070	295		mov __PointOutArgs.Location.Y, __constVal200
7	6070	297		mov __PointOutArgs.Options, __constVal1
7	6070	299		syscall 14, __PointOutArgs
7	6070	302		release __PointOutMutex
7	7822	303	#line 7822 "NXCDefs.h"
7	6069	303	#line 6069 "NXCDefs.h"
7	128	303	#line 128 "C:\Users\Lshi\AppData\Local\Temp\temp.nxc"
7	128	303	#line 128 "C:\Users\Lshi\AppData\Local\Temp\temp.nxc"
7	129	303		set __signed_stack_001calibration, 0
7	128	306	#line 128 "C:\Users\Lshi\AppData\Local\Temp\temp.nxc"
7	128	306	#line 128 "C:\Users\Lshi\AppData\Local\Temp\temp.nxc"
7	129	306		set __signed_stack_002calibration, 2
7	128	309	#line 128 "C:\Users\Lshi\AppData\Local\Temp\temp.nxc"
7	128	309	#line 128 "C:\Users\Lshi\AppData\Local\Temp\temp.nxc"
7	129	309		strcat __strbufcalibration, __constStr0014
7	129	313	#line 129 "C:\Users\Lshi\AppData\Local\Temp\temp.nxc"
7	130	313		acquire __TextOutMutex
7	129	314	#line 129 "C:\Users\Lshi\AppData\Local\Temp\temp.nxc"
7	130	314		mov __TextOutArgs.Location.X, __signed_stack_001calibration
7	129	316	#line 129 "C:\Users\Lshi\AppData\Local\Temp\temp.nxc"
7	130	316		mov __TextOutArgs.Location.Y, __signed_stack_002calibration
7	129	318	#line 129 "C:\Users\Lshi\AppData\Local\Temp\temp.nxc"
7	130	318		set __TextOutArgs.Options, 0
7	129	321	#line 129 "C:\Users\Lshi\AppData\Local\Temp\temp.nxc"
7	130	321		mov __TextOutArgs.Text, __strbufcalibration
7	129	323	#line 129 "C:\Users\Lshi\AppData\Local\Temp\temp.nxc"
7	130	323		syscall 13, __TextOutArgs
7	129	326	#line 129 "C:\Users\Lshi\AppData\Local\Temp\temp.nxc"
7	130	326		mov __D0calibration, __TextOutArgs.Result
7	129	328	#line 129 "C:\Users\Lshi\AppData\Local\Temp\temp.nxc"
7	130	328		release __TextOutMutex
7	129	329	#line 129 "C:\Users\Lshi\AppData\Local\Temp\temp.nxc"
7	129	329	#line 129 "C:\Users\Lshi\AppData\Local\Temp\temp.nxc"
7	130	329		set __Wait_7qG2_ms_7qG2_000_inline_calibration, 1000
7	129	332	#line 129 "C:\Users\Lshi\AppData\Local\Temp\temp.nxc"
7	7921	332	#line 7921 "NXCDefs.h"
7	7922	332		wait 1000
7	7921	334	#line 7921 "NXCDefs.h"
7	130	334	#line 130 "C:\Users\Lshi\AppData\Local\Temp\temp.nxc"
7	6069	334	#line 6069 "NXCDefs.h"
7	6070	334	#pragma macro 6
7	6070	334		acquire __PointOutMutex
7	6070	335		mov __PointOutArgs.Location.X, __constVal200
7	6070	337		mov __PointOutArgs.Location.Y, __constVal200
7	6070	339		mov __PointOutArgs.Options, __constVal1
7	6070	341		syscall 14, __PointOutArgs
7	6070	344		release __PointOutMutex
7	7867	345	#line 7867 "NXCDefs.h"
7	6069	345	#line 6069 "NXCDefs.h"
7	131	345	#line 131 "C:\Users\Lshi\AppData\Local\Temp\temp.nxc"
7	133	345	#line 133 "C:\Users\Lshi\AppData\Local\Temp\temp.nxc"
7	134	345		subret __calibration_return
8	134	0	#line 134 "C:\Users\Lshi\AppData\Local\Temp\temp.nxc"
8	135	0		subret ____initialize_global_data_return
#CLUMPS
Clump	Name	Offset	File
0	main	0	C:\Users\Lshi\AppData\Local\Temp\temp.nxc
1	__RotateMotor1	7	NXTDefs.h
2	__ResetSensorSubroutine	161	NXTDefs.h
3	lineFollow	174	C:\Users\Lshi\AppData\Local\Temp\temp.nxc
4	ballFind	429	C:\Users\Lshi\AppData\Local\Temp\temp.nxc
5	switchDir	443	C:\Users\Lshi\AppData\Local\Temp\temp.nxc
6	displayNum	537	C:\Users\Lshi\AppData\Local\Temp\temp.nxc
7	calibration	594	C:\Users\Lshi\AppData\Local\Temp\temp.nxc
8	__initialize_global_data	941	C:\Users\Lshi\AppData\Local\Temp\temp.nxc
