#SYMBOLS
Index	Identifier	Type	Flag	Data	Size	RefCount
0	__D0lineFollow	6	1	0	4	37
1	__D0displayNum	6	1	4	4	3
2	__D0calibration	6	1	8	4	6
3	__DU0SetSensorLight_inline_calibration	5	1	12	4	2
4	__D0SetSensorLight_inline_calibration	6	1	16	4	3
5	__D0switchDir	6	1	20	4	10
6	__CLSRMutex1	9	0	24	4	2
7	__CLSWMutex1	9	0	28	4	2
8	__CLSCSMutex1	9	0	32	4	2
9	__RLSBmutex1	9	0	36	4	2
10	__PointOutMutex	9	0	40	4	12
11	__TextOutMutex	9	0	44	4	14
12	__D0SetSensorLowspeed_inline_SetSensorUltrasonic	6	1	48	4	3
13	__signed_stack_001switchDir	6	1	52	4	8
14	__signed_stack_003lineFollow	6	1	56	4	4
15	__signed_stack_002lineFollow	6	1	60	4	12
16	__Wait_7qG2_ms_7qG2_000_inline_calibration	5	1	64	4	12
17	__Wait_7qG2_ms_7qG2_000_inline_displayNum	5	1	68	4	2
18	__Wait_7qG2_ms_7qG2_000_inline_lineFollow	5	1	72	4	4
19	__signed_stack_002calibration	6	1	76	4	12
20	__signed_stack_001calibration	6	1	80	4	14
21	__DU0SetSensorLowspeed_inline_SetSensorUltrasonic	5	1	84	4	2
22	__signed_stack_001lineFollow	6	1	88	4	10
23	__signed_stack_002displayNum	6	1	92	4	2
24	__signed_stack_001displayNum	6	1	96	4	2
25	__rotate_angle1	6	1	100	4	6
26	__rotate_theAngle1	5	1	104	4	2
27	white	4	1	108	2	4
28	__constVal200	4	0	110	2	12
29	__rotate_RotCount1	4	1	112	2	4
30	black	4	1	114	2	4
31	dir	4	1	116	2	13
32	__displayNum_7qG2_n_7qG2_000	4	1	118	2	4
33	lightAvg	4	1	120	2	8
34	__constValNeg180	4	0	122	2	1
35	__rotate_OldRotCount1	4	1	124	2	2
36	__zfSetSensorLowspeed_inline_SetSensorUltrasonic	1	1	126	1	2
37	__rotate_theRM1	1	1	127	1	4
38	__rotate_theRS1	1	1	128	1	3
39	____initialize_global_data_return	1	1	129	1	3
40	__calibration_return	1	1	130	1	3
41	__rotate_theOM1	1	1	131	1	7
42	__rotate_sync1	1	1	132	1	3
43	__rotate_firstPort1	1	1	133	1	5
44	__rotate_stop1	1	1	134	1	3
45	__rotate_theUF1	1	1	135	1	6
46	__rotate_turnpct1	2	1	136	1	4
47	__SetSensorLowspeed_7qG2_port_7qG2_000_inline_SetSensorUltrasonic_inline_calibration	1	1	137	1	4
48	__SetSensorLowspeed_7qG2_bIsPowered_7qG2_000_inline_SetSensorUltrasonic_inline_calibration	1	1	138	1	2
49	__SetSensorMode_7qG2_port_7qG2_000_inline_SetSensorLight_inline_calibration	1	1	139	1	2
50	__SetSensorMode_7qG2_mode_7qG2_000_inline_SetSensorLight_inline_calibration	1	1	140	1	2
51	__SetSensorType_7qG2_port_7qG2_000_inline_SetSensorLowspeed_inline_SetSensorUltrasonic_inline_calibration	1	1	141	1	2
52	__SetSensorMode_7qG2_mode_7qG2_000_inline_SetSensorLowspeed_inline_SetSensorUltrasonic_inline_calibration	1	1	142	1	2
53	__constVal60	2	0	143	1	8
54	__SetSensorType_7qG2_type_7qG2_000_inline_SetSensorLowspeed_inline_SetSensorUltrasonic_inline_calibration	1	1	144	1	2
55	__SetSensorMode_7qG2_port_7qG2_000_inline_SetSensorLowspeed_inline_SetSensorUltrasonic_inline_calibration	1	1	145	1	2
56	__SetSensorType_7qG2_type_7qG2_000_inline_SetSensorLight_inline_calibration	1	1	146	1	2
57	__switchDir_return	1	1	147	1	4
58	__constValNeg1	2	0	148	1	3
59	__constVal96	2	0	149	1	9
60	__constVal63	2	0	150	1	7
61	__displayNum_return	1	1	151	1	5
62	__SetSensorLight_7qG2_bActive_7qG2_000_inline_calibration	1	1	152	1	2
63	__SetSensorType_7qG2_port_7qG2_000_inline_SetSensorLight_inline_calibration	1	1	153	1	2
64	__rotate_power1	1	1	154	1	5
65	__SetSensorLight_7qG2_port_7qG2_000_inline_calibration	1	1	155	1	4
66	__rotate_theTurnPct1	2	1	156	1	4
67	__constVal32	2	0	157	1	26
68	__constVal1	2	0	158	1	16
69	__constVal15	2	0	159	1	3
70	__RLSBytesCount1	1	1	160	1	7
71	__RLSBResult1	2	1	161	1	7
72	____ReadLSBytes1_return	1	1	162	1	3
73	__constVal0	2	1	163	1	39
74	__constVal3	2	0	164	1	7
75	____RotateMotor1_sign_tmp	2	1	165	1	4
76	____RotateMotor1_return	1	1	166	1	4
77	__ResetSensorPort	1	1	167	1	4
78	__constVal50	2	0	168	1	1
79	____ResetSensorSubroutine_return	1	1	169	1	4
80	__ResetSensorTmp	1	1	170	1	2
81	__RLSBIterations1	1	1	171	1	4
82	__zfswitchDir	1	1	172	1	6
83	__rotate_rs1	1	1	173	1	2
84	__zflineFollow	1	1	174	1	9
85	__rotate_theRVD1	1	1	175	1	3
86	__rotate_theRVP1	1	1	176	1	3
87	__zfSetSensorLight_inline_calibration	1	1	177	1	2
88	__rotate_theRVI1	1	1	178	1	3
89	__constVal2	2	0	179	1	5
90	__PFTmp	1	1	180	1	1
91	__rotate_thePower1	2	1	181	1	4
92	__CLSWArgs1	8	0	4	12	5
93	__CLSWArgs1.Result	2	1	184	1	5
94	__CLSWArgs1.Port	1	1	185	1	5
95	__CLSWArgs1.Buffer	7	0	186	4	5
96	__CLSWArgs1.Buffer.Buffer_type	1	0	0	1	0
97	__CLSWArgs1.ReturnLen	1	1	188	1	5
98	__CLSCSArgs1	8	0	3	4	4
99	__CLSCSArgs1.Result	2	1	192	1	4
100	__CLSCSArgs1.Port	1	1	193	1	4
101	__CLSCSArgs1.BytesReady	1	1	194	1	4
102	__TextOutArgs	8	0	4	16	42
103	__TextOutArgs.Result	2	1	196	1	42
104	__TextOutArgs.Location	8	0	2	4	42
105	__TextOutArgs.Location.X	4	1	200	2	42
106	__TextOutArgs.Location.Y	4	1	202	2	42
107	__TextOutArgs.Text	7	0	204	4	42
108	__TextOutArgs.Text.Text_type	1	0	0	1	0
109	__TextOutArgs.Options	5	1	208	4	42
110	__CLSRArgs1	8	0	4	12	5
111	__CLSRArgs1.Result	2	1	212	1	5
112	__CLSRArgs1.Port	1	1	213	1	5
113	__CLSRArgs1.Buffer	7	0	214	4	5
114	__CLSRArgs1.Buffer.Buffer_type	1	0	0	1	0
115	__CLSRArgs1.BufferLen	1	1	216	1	5
116	__PointOutArgs	8	0	3	12	24
117	__PointOutArgs.Result	2	1	220	1	24
118	__PointOutArgs.Location	8	0	2	4	24
119	__PointOutArgs.Location.X	4	1	224	2	24
120	__PointOutArgs.Location.Y	4	1	226	2	24
121	__PointOutArgs.Options	5	1	228	4	24
122	__RLSLastGoodRead1	7	0	232	4	2
123	__RLSLastGoodRead1.__RLSLastGoodRead1_type	1	0	0	1	0
124	__RLSReadBuf1	7	0	234	4	8
125	__RLSReadBuf1.__RLSReadBuf1_type	1	0	0	1	0
126	__constStr0012	7	0	236	4	1
127	__constStr0012.__constStr0012_type	1	1	0	1	0
128	__constStr0013	7	0	238	4	1
129	__constStr0013.__constStr0013_type	1	1	0	1	0
130	__constStr0014	7	0	240	4	1
131	__constStr0014.__constStr0014_type	1	1	0	1	0
132	__constStr0011	7	0	242	4	1
133	__constStr0011.__constStr0011_type	1	1	0	1	0
134	__strretvaldisplayNum	7	0	244	4	2
135	__strretvaldisplayNum.__strretvaldisplayNum_type	1	0	0	1	0
136	__strbufcalibration	7	0	246	4	12
137	__strbufcalibration.__strbufcalibration_type	1	0	0	1	0
138	__rotate_ports1	7	0	248	4	7
139	__rotate_ports1.__rotate_ports1_type	1	0	0	1	0
140	__strbufdisplayNum	7	0	250	4	2
141	__strbufdisplayNum.__strbufdisplayNum_type	1	0	0	1	0
142	__constStr0010	7	0	252	4	1
143	__constStr0010.__constStr0010_type	1	1	0	1	0
144	__RLSBbufLSWrite1	7	0	254	4	1
145	__RLSBbufLSWrite1.__RLSBbufLSWrite1_type	1	0	0	1	0
146	__constStr0009	7	0	256	4	1
147	__constStr0009.__constStr0009_type	1	1	0	1	0
148	__OUT_AC	7	0	258	4	3
149	__OUT_AC.__OUT_AC_type	1	0	0	1	0
#SOURCES
Clump	Line	PC	Source
0	19	0	#line 19 "C:\Users\Lshi\Documents\Extracurriculars\Gov School\Robotics\GSET_Robotics\Maze\409_Maze_Test.nxc"
0	20	0		subcall __initialize_global_data, ____initialize_global_data_return
0	19	2	#line 19 "C:\Users\Lshi\Documents\Extracurriculars\Gov School\Robotics\GSET_Robotics\Maze\409_Maze_Test.nxc"
0	20	2	#line 20 "C:\Users\Lshi\Documents\Extracurriculars\Gov School\Robotics\GSET_Robotics\Maze\409_Maze_Test.nxc"
0	21	2		subcall calibration, __calibration_return
0	20	4	#line 20 "C:\Users\Lshi\Documents\Extracurriculars\Gov School\Robotics\GSET_Robotics\Maze\409_Maze_Test.nxc"
0	21	4	#line 21 "C:\Users\Lshi\Documents\Extracurriculars\Gov School\Robotics\GSET_Robotics\Maze\409_Maze_Test.nxc"
0	21	4	#line 21 "C:\Users\Lshi\Documents\Extracurriculars\Gov School\Robotics\GSET_Robotics\Maze\409_Maze_Test.nxc"
0	22	4		exit 0, 1
1	4529	0		brtst 4, __rotate_Done1, __rotate_angle1
1	4530	3		set ____RotateMotor1_sign_tmp, 0
1	4530	6		brtst EQ, __sign_1, __rotate_angle1
1	4530	9		set ____RotateMotor1_sign_tmp, -1
1	4530	12		brtst LT, __sign_1, __rotate_angle1
1	4530	15		set ____RotateMotor1_sign_tmp, 1
1	4530	18	__sign_1:	mov __rotate_thePower1, ____RotateMotor1_sign_tmp
1	4531	20		abs __rotate_theAngle1, __rotate_angle1
1	4532	23		mul __rotate_thePower1, __rotate_thePower1, __rotate_power1
1	4534	27		set __rotate_theUF1, 23
1	4535	30		brtst 4, __rotate_NoSync1, __rotate_sync1
1	4536	33		set __rotate_theOM1, 7
1	4537	36		set __rotate_theRM1, 2
1	4538	39		mov __rotate_theTurnPct1, __rotate_turnpct1
1	4539	41		brtst 4, __rotate_Start1, __rotate_theTurnPct1
1	4540	44		add __rotate_theUF1, __rotate_theUF1, __constVal32
1	4541	48		jmp __rotate_Start1
1	4543	50		set __rotate_theOM1, 3
1	4544	53		set __rotate_theRM1, 0
1	4545	56		set __rotate_theTurnPct1, 0
1	4547	59		set __rotate_theRS1, 32
1	4548	62		setout __rotate_ports1, 1, __rotate_theOM1, 8, __rotate_theRM1, 5, __rotate_theAngle1, 6, __rotate_theRS1, 10, __rotate_theRVP1, 11, __rotate_theRVI1, 12, __rotate_theRVD1, 2, __rotate_thePower1, 7, __rotate_turnpct1, 0, __rotate_theUF1
1	4551	85		index __rotate_firstPort1, __rotate_ports1, 65535
1	4553	89		getout __rotate_power1, __rotate_firstPort1, 2
1	4554	93		brtst 4, __rotate_doneRunning1, __rotate_power1
1	4555	96		getout __rotate_rs1, __rotate_firstPort1, 6
1	4556	100		brcmp 4, __rotate_Running1, __rotate_rs1, __constVal32
1	4558	104		brtst 4, __rotate_Reset1, __rotate_stop1
1	4560	107		set __rotate_theOM1, 7
1	4561	110		set __rotate_theUF1, 7
1	4562	113		setout __rotate_ports1, 1, __rotate_theOM1, 8, __constVal1, 6, __rotate_theRS1, 2, __constVal0, 5, __constVal0, 0, __rotate_theUF1
1	4564	128		getout __rotate_RotCount1, __rotate_firstPort1, 14
1	4566	132		mov __rotate_OldRotCount1, __rotate_RotCount1
1	4567	134		wait2 NA, __constVal50
1	4569	137		getout __rotate_RotCount1, __rotate_firstPort1, 14
1	4570	141		brcmp 5, __rotate_Stabilize1, __rotate_OldRotCount1, __rotate_RotCount1
1	4571	145		set __rotate_theOM1, 4
1	4572	148		setout __rotate_ports1, 8, __rotate_theRM1, 6, __constVal0, 1, __rotate_theOM1, 0, __constVal1
1	4575	159		brtst 4, __rotate_Done1, __rotate_theTurnPct1
1	4576	162		setout __rotate_ports1, 0, __constVal32
1	4578	167		subret ____RotateMotor1_return
2	4885	0		setin __constVal1, __ResetSensorPort, 5
2	4887	4		getin __ResetSensorTmp, __ResetSensorPort, 5
2	4888	8		brtst 5, __SensorStillInvalid, __ResetSensorTmp
2	4889	11		subret ____ResetSensorSubroutine_return
3	5710	0	#pragma macro 25
3	5710	0		acquire __CLSWMutex1
3	5710	1		set __CLSWArgs1.Port, 1
3	5710	4		mov __CLSWArgs1.ReturnLen, __RLSBytesCount1
3	5710	6		mov __CLSWArgs1.Buffer, __RLSReadBuf1
3	5710	8		syscall 21, __CLSWArgs1
3	5710	11		mov __RLSBResult1, __CLSWArgs1.Result
3	5710	13		release __CLSWMutex1
3	5710	14	#line 5710 "NXTDefs.h"
3	5711	14		brtst 4, __RLSBReturn1, __RLSBytesCount1
3	5712	17		arrinit __RLSReadBuf1, __constVal0, __RLSBytesCount1
3	5713	21		brtst 5, __RLSBError1, __RLSBResult1
3	5714	24		set __RLSBIterations1, 4
3	5716	27	#pragma macro 23
3	5716	27		acquire __CLSCSMutex1
3	5716	28		set __CLSCSArgs1.Port, 1
3	5716	31		syscall 23, __CLSCSArgs1
3	5716	34		mov __RLSBytesCount1, __CLSCSArgs1.BytesReady
3	5716	36		mov __RLSBResult1, __CLSCSArgs1.Result
3	5716	38		release __CLSCSMutex1
3	5716	39	#line 5716 "NXTDefs.h"
3	5717	39		sub __RLSBIterations1, __RLSBIterations1, __constVal1
3	5718	43		brtst 2, __RLSBError1, __RLSBIterations1
3	5719	46		brtst 0, __RLSBError1, __RLSBResult1
3	5720	49		brtst 4, __RLSBReadyToRead1, __RLSBResult1
3	5722	52		wait2 NA, __constVal15
3	5723	55		jmp __RLSBDoCheckStatus1
3	5726	57	#pragma macro 25
3	5726	57		acquire __CLSRMutex1
3	5726	58		set __CLSRArgs1.Port, 1
3	5726	61		mov __CLSRArgs1.BufferLen, __RLSBytesCount1
3	5726	63		syscall 22, __CLSRArgs1
3	5726	66		mov __RLSReadBuf1, __CLSRArgs1.Buffer
3	5726	68		mov __RLSBResult1, __CLSRArgs1.Result
3	5726	70		release __CLSRMutex1
3	5726	71	#line 5726 "NXTDefs.h"
3	5727	71		brtst 5, __RLSBError1, __RLSBResult1
3	5728	74		mov __RLSLastGoodRead1, __RLSReadBuf1
3	5729	76		jmp __RLSBDone1
3	5731	78		mov __RLSReadBuf1, __RLSLastGoodRead1
3	5733	80		arrsize __RLSBytesCount1, __RLSReadBuf1
3	5735	83		subret ____ReadLSBytes1_return
4	24	0	#line 24 "C:\Users\Lshi\Documents\Extracurriculars\Gov School\Robotics\GSET_Robotics\Maze\409_Maze_Test.nxc"
4	25	0	#pragma macro 26
4	25	0		acquire __RLSBmutex1
4	25	1		mov __RLSReadBuf1, __RLSBbufLSWrite1
4	25	3		set __RLSBytesCount1, 1
4	25	6		wait2 NA, __constVal15
4	25	9		subcall __ReadLSBytes1, ____ReadLSBytes1_return
4	25	11		index __D0lineFollow, __RLSReadBuf1, 65535
4	25	15		release __RLSBmutex1
4	4015	16	#line 4015 "C:\Users\Lshi\Documents\Extracurriculars\Gov School\Robotics\GSET_Robotics\Maze\409_Maze_Test.nxc"
4	24	16	#line 24 "C:\Users\Lshi\Documents\Extracurriculars\Gov School\Robotics\GSET_Robotics\Maze\409_Maze_Test.nxc"
4	25	16		mov __signed_stack_001lineFollow, __D0lineFollow
4	24	18	#line 24 "C:\Users\Lshi\Documents\Extracurriculars\Gov School\Robotics\GSET_Robotics\Maze\409_Maze_Test.nxc"
4	25	18		set __D0lineFollow, 18
4	24	21	#line 24 "C:\Users\Lshi\Documents\Extracurriculars\Gov School\Robotics\GSET_Robotics\Maze\409_Maze_Test.nxc"
4	25	21		cmp 1, __zflineFollow, __signed_stack_001lineFollow, __D0lineFollow
4	24	25	#line 24 "C:\Users\Lshi\Documents\Extracurriculars\Gov School\Robotics\GSET_Robotics\Maze\409_Maze_Test.nxc"
4	25	25		mov __D0lineFollow, __zflineFollow
4	25	27	#line 25 "C:\Users\Lshi\Documents\Extracurriculars\Gov School\Robotics\GSET_Robotics\Maze\409_Maze_Test.nxc"
4	26	27		brtst 4, __NXC_Label_490, __zflineFollow
4	25	30	#line 25 "C:\Users\Lshi\Documents\Extracurriculars\Gov School\Robotics\GSET_Robotics\Maze\409_Maze_Test.nxc"
4	26	30		getin __signed_stack_001lineFollow, __constVal0, 4
4	25	34	#line 25 "C:\Users\Lshi\Documents\Extracurriculars\Gov School\Robotics\GSET_Robotics\Maze\409_Maze_Test.nxc"
4	25	34	#line 25 "C:\Users\Lshi\Documents\Extracurriculars\Gov School\Robotics\GSET_Robotics\Maze\409_Maze_Test.nxc"
4	26	34		mov __D0lineFollow, lightAvg
4	25	36	#line 25 "C:\Users\Lshi\Documents\Extracurriculars\Gov School\Robotics\GSET_Robotics\Maze\409_Maze_Test.nxc"
4	26	36		cmp 1, __zflineFollow, __signed_stack_001lineFollow, __D0lineFollow
4	25	40	#line 25 "C:\Users\Lshi\Documents\Extracurriculars\Gov School\Robotics\GSET_Robotics\Maze\409_Maze_Test.nxc"
4	26	40		mov __D0lineFollow, __zflineFollow
4	26	42	#line 26 "C:\Users\Lshi\Documents\Extracurriculars\Gov School\Robotics\GSET_Robotics\Maze\409_Maze_Test.nxc"
4	27	42		brtst 4, __NXC_Label_495, __zflineFollow
4	26	45	#line 26 "C:\Users\Lshi\Documents\Extracurriculars\Gov School\Robotics\GSET_Robotics\Maze\409_Maze_Test.nxc"
4	26	45	#line 26 "C:\Users\Lshi\Documents\Extracurriculars\Gov School\Robotics\GSET_Robotics\Maze\409_Maze_Test.nxc"
4	26	45	#line 26 "C:\Users\Lshi\Documents\Extracurriculars\Gov School\Robotics\GSET_Robotics\Maze\409_Maze_Test.nxc"
4	26	45	#line 26 "C:\Users\Lshi\Documents\Extracurriculars\Gov School\Robotics\GSET_Robotics\Maze\409_Maze_Test.nxc"
4	27	45		mul __signed_stack_001lineFollow, dir, __constVal60
4	26	49	#line 26 "C:\Users\Lshi\Documents\Extracurriculars\Gov School\Robotics\GSET_Robotics\Maze\409_Maze_Test.nxc"
4	26	49	#line 26 "C:\Users\Lshi\Documents\Extracurriculars\Gov School\Robotics\GSET_Robotics\Maze\409_Maze_Test.nxc"
4	26	49	#line 26 "C:\Users\Lshi\Documents\Extracurriculars\Gov School\Robotics\GSET_Robotics\Maze\409_Maze_Test.nxc"
4	26	49	#line 26 "C:\Users\Lshi\Documents\Extracurriculars\Gov School\Robotics\GSET_Robotics\Maze\409_Maze_Test.nxc"
4	26	49	#line 26 "C:\Users\Lshi\Documents\Extracurriculars\Gov School\Robotics\GSET_Robotics\Maze\409_Maze_Test.nxc"
4	27	49		mul __signed_stack_002lineFollow, dir, __constVal60
4	26	53	#line 26 "C:\Users\Lshi\Documents\Extracurriculars\Gov School\Robotics\GSET_Robotics\Maze\409_Maze_Test.nxc"
4	26	53	#line 26 "C:\Users\Lshi\Documents\Extracurriculars\Gov School\Robotics\GSET_Robotics\Maze\409_Maze_Test.nxc"
4	26	53	#line 26 "C:\Users\Lshi\Documents\Extracurriculars\Gov School\Robotics\GSET_Robotics\Maze\409_Maze_Test.nxc"
4	27	53		mul __signed_stack_002lineFollow, __signed_stack_002lineFollow, __constVal2
4	26	57	#line 26 "C:\Users\Lshi\Documents\Extracurriculars\Gov School\Robotics\GSET_Robotics\Maze\409_Maze_Test.nxc"
4	26	57	#line 26 "C:\Users\Lshi\Documents\Extracurriculars\Gov School\Robotics\GSET_Robotics\Maze\409_Maze_Test.nxc"
4	27	57		getin __signed_stack_003lineFollow, __constVal0, 4
4	26	61	#line 26 "C:\Users\Lshi\Documents\Extracurriculars\Gov School\Robotics\GSET_Robotics\Maze\409_Maze_Test.nxc"
4	26	61	#line 26 "C:\Users\Lshi\Documents\Extracurriculars\Gov School\Robotics\GSET_Robotics\Maze\409_Maze_Test.nxc"
4	26	61	#line 26 "C:\Users\Lshi\Documents\Extracurriculars\Gov School\Robotics\GSET_Robotics\Maze\409_Maze_Test.nxc"
4	27	61		sub __D0lineFollow, __signed_stack_003lineFollow, lightAvg
4	26	65	#line 26 "C:\Users\Lshi\Documents\Extracurriculars\Gov School\Robotics\GSET_Robotics\Maze\409_Maze_Test.nxc"
4	27	65		mul __signed_stack_002lineFollow, __signed_stack_002lineFollow, __D0lineFollow
4	26	69	#line 26 "C:\Users\Lshi\Documents\Extracurriculars\Gov School\Robotics\GSET_Robotics\Maze\409_Maze_Test.nxc"
4	26	69	#line 26 "C:\Users\Lshi\Documents\Extracurriculars\Gov School\Robotics\GSET_Robotics\Maze\409_Maze_Test.nxc"
4	26	69	#line 26 "C:\Users\Lshi\Documents\Extracurriculars\Gov School\Robotics\GSET_Robotics\Maze\409_Maze_Test.nxc"
4	26	69	#line 26 "C:\Users\Lshi\Documents\Extracurriculars\Gov School\Robotics\GSET_Robotics\Maze\409_Maze_Test.nxc"
4	26	69	#line 26 "C:\Users\Lshi\Documents\Extracurriculars\Gov School\Robotics\GSET_Robotics\Maze\409_Maze_Test.nxc"
4	27	69		sub __D0lineFollow, white, lightAvg
4	26	73	#line 26 "C:\Users\Lshi\Documents\Extracurriculars\Gov School\Robotics\GSET_Robotics\Maze\409_Maze_Test.nxc"
4	27	73		div __D0lineFollow, __signed_stack_002lineFollow, __D0lineFollow
4	26	77	#line 26 "C:\Users\Lshi\Documents\Extracurriculars\Gov School\Robotics\GSET_Robotics\Maze\409_Maze_Test.nxc"
4	27	77		sub __D0lineFollow, __signed_stack_001lineFollow, __D0lineFollow
4	27	81	#line 27 "C:\Users\Lshi\Documents\Extracurriculars\Gov School\Robotics\GSET_Robotics\Maze\409_Maze_Test.nxc"
4	28	81	#pragma macro 7
4	28	81		setout __constVal0, 2, __D0lineFollow, 1, __constVal3, 8, __constVal0, 6, __constVal32, 7, __constVal0, 5, __constVal0, 10, __constVal96, 11, __constVal32, 12, __constVal32, 0, __constVal63
4	4099	104	#line 4099 "C:\Users\Lshi\Documents\Extracurriculars\Gov School\Robotics\GSET_Robotics\Maze\409_Maze_Test.nxc"
4	27	104	#line 27 "C:\Users\Lshi\Documents\Extracurriculars\Gov School\Robotics\GSET_Robotics\Maze\409_Maze_Test.nxc"
4	27	104	#line 27 "C:\Users\Lshi\Documents\Extracurriculars\Gov School\Robotics\GSET_Robotics\Maze\409_Maze_Test.nxc"
4	27	104	#line 27 "C:\Users\Lshi\Documents\Extracurriculars\Gov School\Robotics\GSET_Robotics\Maze\409_Maze_Test.nxc"
4	27	104	#line 27 "C:\Users\Lshi\Documents\Extracurriculars\Gov School\Robotics\GSET_Robotics\Maze\409_Maze_Test.nxc"
4	27	104	#line 27 "C:\Users\Lshi\Documents\Extracurriculars\Gov School\Robotics\GSET_Robotics\Maze\409_Maze_Test.nxc"
4	27	104	#line 27 "C:\Users\Lshi\Documents\Extracurriculars\Gov School\Robotics\GSET_Robotics\Maze\409_Maze_Test.nxc"
4	28	104		mul __D0lineFollow, dir, __constVal60
4	28	108	#line 28 "C:\Users\Lshi\Documents\Extracurriculars\Gov School\Robotics\GSET_Robotics\Maze\409_Maze_Test.nxc"
4	29	108	#pragma macro 7
4	29	108		setout __constVal2, 2, __D0lineFollow, 1, __constVal3, 8, __constVal0, 6, __constVal32, 7, __constVal0, 5, __constVal0, 10, __constVal96, 11, __constVal32, 12, __constVal32, 0, __constVal63
4	4113	131	#line 4113 "C:\Users\Lshi\Documents\Extracurriculars\Gov School\Robotics\GSET_Robotics\Maze\409_Maze_Test.nxc"
4	28	131	#line 28 "C:\Users\Lshi\Documents\Extracurriculars\Gov School\Robotics\GSET_Robotics\Maze\409_Maze_Test.nxc"
4	29	131	#line 29 "C:\Users\Lshi\Documents\Extracurriculars\Gov School\Robotics\GSET_Robotics\Maze\409_Maze_Test.nxc"
4	30	131		jmp __NXC_Label_504
4	29	133	#line 29 "C:\Users\Lshi\Documents\Extracurriculars\Gov School\Robotics\GSET_Robotics\Maze\409_Maze_Test.nxc"
4	30	133		getin __signed_stack_001lineFollow, __constVal0, 4
4	29	137	#line 29 "C:\Users\Lshi\Documents\Extracurriculars\Gov School\Robotics\GSET_Robotics\Maze\409_Maze_Test.nxc"
4	29	137	#line 29 "C:\Users\Lshi\Documents\Extracurriculars\Gov School\Robotics\GSET_Robotics\Maze\409_Maze_Test.nxc"
4	30	137		mov __D0lineFollow, lightAvg
4	29	139	#line 29 "C:\Users\Lshi\Documents\Extracurriculars\Gov School\Robotics\GSET_Robotics\Maze\409_Maze_Test.nxc"
4	30	139		cmp 2, __zflineFollow, __signed_stack_001lineFollow, __D0lineFollow
4	29	143	#line 29 "C:\Users\Lshi\Documents\Extracurriculars\Gov School\Robotics\GSET_Robotics\Maze\409_Maze_Test.nxc"
4	30	143		mov __D0lineFollow, __zflineFollow
4	30	145	#line 30 "C:\Users\Lshi\Documents\Extracurriculars\Gov School\Robotics\GSET_Robotics\Maze\409_Maze_Test.nxc"
4	31	145		brtst 4, __NXC_Label_507, __zflineFollow
4	30	148	#line 30 "C:\Users\Lshi\Documents\Extracurriculars\Gov School\Robotics\GSET_Robotics\Maze\409_Maze_Test.nxc"
4	30	148	#line 30 "C:\Users\Lshi\Documents\Extracurriculars\Gov School\Robotics\GSET_Robotics\Maze\409_Maze_Test.nxc"
4	30	148	#line 30 "C:\Users\Lshi\Documents\Extracurriculars\Gov School\Robotics\GSET_Robotics\Maze\409_Maze_Test.nxc"
4	30	148	#line 30 "C:\Users\Lshi\Documents\Extracurriculars\Gov School\Robotics\GSET_Robotics\Maze\409_Maze_Test.nxc"
4	31	148		mul __signed_stack_001lineFollow, dir, __constVal60
4	30	152	#line 30 "C:\Users\Lshi\Documents\Extracurriculars\Gov School\Robotics\GSET_Robotics\Maze\409_Maze_Test.nxc"
4	30	152	#line 30 "C:\Users\Lshi\Documents\Extracurriculars\Gov School\Robotics\GSET_Robotics\Maze\409_Maze_Test.nxc"
4	30	152	#line 30 "C:\Users\Lshi\Documents\Extracurriculars\Gov School\Robotics\GSET_Robotics\Maze\409_Maze_Test.nxc"
4	30	152	#line 30 "C:\Users\Lshi\Documents\Extracurriculars\Gov School\Robotics\GSET_Robotics\Maze\409_Maze_Test.nxc"
4	30	152	#line 30 "C:\Users\Lshi\Documents\Extracurriculars\Gov School\Robotics\GSET_Robotics\Maze\409_Maze_Test.nxc"
4	31	152		mul __signed_stack_002lineFollow, dir, __constVal60
4	30	156	#line 30 "C:\Users\Lshi\Documents\Extracurriculars\Gov School\Robotics\GSET_Robotics\Maze\409_Maze_Test.nxc"
4	30	156	#line 30 "C:\Users\Lshi\Documents\Extracurriculars\Gov School\Robotics\GSET_Robotics\Maze\409_Maze_Test.nxc"
4	30	156	#line 30 "C:\Users\Lshi\Documents\Extracurriculars\Gov School\Robotics\GSET_Robotics\Maze\409_Maze_Test.nxc"
4	31	156		mul __signed_stack_002lineFollow, __signed_stack_002lineFollow, __constVal2
4	30	160	#line 30 "C:\Users\Lshi\Documents\Extracurriculars\Gov School\Robotics\GSET_Robotics\Maze\409_Maze_Test.nxc"
4	30	160	#line 30 "C:\Users\Lshi\Documents\Extracurriculars\Gov School\Robotics\GSET_Robotics\Maze\409_Maze_Test.nxc"
4	31	160		getin __signed_stack_003lineFollow, __constVal0, 4
4	30	164	#line 30 "C:\Users\Lshi\Documents\Extracurriculars\Gov School\Robotics\GSET_Robotics\Maze\409_Maze_Test.nxc"
4	30	164	#line 30 "C:\Users\Lshi\Documents\Extracurriculars\Gov School\Robotics\GSET_Robotics\Maze\409_Maze_Test.nxc"
4	30	164	#line 30 "C:\Users\Lshi\Documents\Extracurriculars\Gov School\Robotics\GSET_Robotics\Maze\409_Maze_Test.nxc"
4	31	164		sub __D0lineFollow, __signed_stack_003lineFollow, lightAvg
4	30	168	#line 30 "C:\Users\Lshi\Documents\Extracurriculars\Gov School\Robotics\GSET_Robotics\Maze\409_Maze_Test.nxc"
4	31	168		mul __signed_stack_002lineFollow, __signed_stack_002lineFollow, __D0lineFollow
4	30	172	#line 30 "C:\Users\Lshi\Documents\Extracurriculars\Gov School\Robotics\GSET_Robotics\Maze\409_Maze_Test.nxc"
4	30	172	#line 30 "C:\Users\Lshi\Documents\Extracurriculars\Gov School\Robotics\GSET_Robotics\Maze\409_Maze_Test.nxc"
4	30	172	#line 30 "C:\Users\Lshi\Documents\Extracurriculars\Gov School\Robotics\GSET_Robotics\Maze\409_Maze_Test.nxc"
4	30	172	#line 30 "C:\Users\Lshi\Documents\Extracurriculars\Gov School\Robotics\GSET_Robotics\Maze\409_Maze_Test.nxc"
4	30	172	#line 30 "C:\Users\Lshi\Documents\Extracurriculars\Gov School\Robotics\GSET_Robotics\Maze\409_Maze_Test.nxc"
4	31	172		sub __D0lineFollow, black, lightAvg
4	30	176	#line 30 "C:\Users\Lshi\Documents\Extracurriculars\Gov School\Robotics\GSET_Robotics\Maze\409_Maze_Test.nxc"
4	31	176		div __D0lineFollow, __signed_stack_002lineFollow, __D0lineFollow
4	30	180	#line 30 "C:\Users\Lshi\Documents\Extracurriculars\Gov School\Robotics\GSET_Robotics\Maze\409_Maze_Test.nxc"
4	31	180		sub __D0lineFollow, __signed_stack_001lineFollow, __D0lineFollow
4	31	184	#line 31 "C:\Users\Lshi\Documents\Extracurriculars\Gov School\Robotics\GSET_Robotics\Maze\409_Maze_Test.nxc"
4	32	184	#pragma macro 7
4	32	184		setout __constVal2, 2, __D0lineFollow, 1, __constVal3, 8, __constVal0, 6, __constVal32, 7, __constVal0, 5, __constVal0, 10, __constVal96, 11, __constVal32, 12, __constVal32, 0, __constVal63
4	4189	207	#line 4189 "C:\Users\Lshi\Documents\Extracurriculars\Gov School\Robotics\GSET_Robotics\Maze\409_Maze_Test.nxc"
4	31	207	#line 31 "C:\Users\Lshi\Documents\Extracurriculars\Gov School\Robotics\GSET_Robotics\Maze\409_Maze_Test.nxc"
4	31	207	#line 31 "C:\Users\Lshi\Documents\Extracurriculars\Gov School\Robotics\GSET_Robotics\Maze\409_Maze_Test.nxc"
4	31	207	#line 31 "C:\Users\Lshi\Documents\Extracurriculars\Gov School\Robotics\GSET_Robotics\Maze\409_Maze_Test.nxc"
4	31	207	#line 31 "C:\Users\Lshi\Documents\Extracurriculars\Gov School\Robotics\GSET_Robotics\Maze\409_Maze_Test.nxc"
4	31	207	#line 31 "C:\Users\Lshi\Documents\Extracurriculars\Gov School\Robotics\GSET_Robotics\Maze\409_Maze_Test.nxc"
4	31	207	#line 31 "C:\Users\Lshi\Documents\Extracurriculars\Gov School\Robotics\GSET_Robotics\Maze\409_Maze_Test.nxc"
4	32	207		mul __D0lineFollow, dir, __constVal60
4	32	211	#line 32 "C:\Users\Lshi\Documents\Extracurriculars\Gov School\Robotics\GSET_Robotics\Maze\409_Maze_Test.nxc"
4	33	211	#pragma macro 7
4	33	211		setout __constVal0, 2, __D0lineFollow, 1, __constVal3, 8, __constVal0, 6, __constVal32, 7, __constVal0, 5, __constVal0, 10, __constVal96, 11, __constVal32, 12, __constVal32, 0, __constVal63
4	4203	234	#line 4203 "C:\Users\Lshi\Documents\Extracurriculars\Gov School\Robotics\GSET_Robotics\Maze\409_Maze_Test.nxc"
4	32	234	#line 32 "C:\Users\Lshi\Documents\Extracurriculars\Gov School\Robotics\GSET_Robotics\Maze\409_Maze_Test.nxc"
4	35	234	#line 35 "C:\Users\Lshi\Documents\Extracurriculars\Gov School\Robotics\GSET_Robotics\Maze\409_Maze_Test.nxc"
4	35	234	#line 35 "C:\Users\Lshi\Documents\Extracurriculars\Gov School\Robotics\GSET_Robotics\Maze\409_Maze_Test.nxc"
4	35	234	#line 35 "C:\Users\Lshi\Documents\Extracurriculars\Gov School\Robotics\GSET_Robotics\Maze\409_Maze_Test.nxc"
4	36	234		jmp __NXC_Label_489
4	35	236	#line 35 "C:\Users\Lshi\Documents\Extracurriculars\Gov School\Robotics\GSET_Robotics\Maze\409_Maze_Test.nxc"
4	35	236	#line 35 "C:\Users\Lshi\Documents\Extracurriculars\Gov School\Robotics\GSET_Robotics\Maze\409_Maze_Test.nxc"
4	36	236		set __D0lineFollow, 0
4	36	239	#line 36 "C:\Users\Lshi\Documents\Extracurriculars\Gov School\Robotics\GSET_Robotics\Maze\409_Maze_Test.nxc"
4	37	239	#pragma macro 7
4	37	239		setout __OUT_AC, 2, __D0lineFollow, 1, __constVal3, 8, __constVal0, 6, __constVal32, 7, __constVal0, 5, __constVal0, 10, __constVal96, 11, __constVal32, 12, __constVal32, 0, __constVal63
4	4218	262	#line 4218 "C:\Users\Lshi\Documents\Extracurriculars\Gov School\Robotics\GSET_Robotics\Maze\409_Maze_Test.nxc"
4	36	262	#line 36 "C:\Users\Lshi\Documents\Extracurriculars\Gov School\Robotics\GSET_Robotics\Maze\409_Maze_Test.nxc"
4	37	262	#line 37 "C:\Users\Lshi\Documents\Extracurriculars\Gov School\Robotics\GSET_Robotics\Maze\409_Maze_Test.nxc"
4	38	262		subcall switchDir, __switchDir_return
4	37	264	#line 37 "C:\Users\Lshi\Documents\Extracurriculars\Gov School\Robotics\GSET_Robotics\Maze\409_Maze_Test.nxc"
4	37	264	#line 37 "C:\Users\Lshi\Documents\Extracurriculars\Gov School\Robotics\GSET_Robotics\Maze\409_Maze_Test.nxc"
4	37	264	#line 37 "C:\Users\Lshi\Documents\Extracurriculars\Gov School\Robotics\GSET_Robotics\Maze\409_Maze_Test.nxc"
4	37	264	#line 37 "C:\Users\Lshi\Documents\Extracurriculars\Gov School\Robotics\GSET_Robotics\Maze\409_Maze_Test.nxc"
4	37	264	#line 37 "C:\Users\Lshi\Documents\Extracurriculars\Gov School\Robotics\GSET_Robotics\Maze\409_Maze_Test.nxc"
4	38	264		mul __D0lineFollow, dir, __constVal60
4	38	268	#line 38 "C:\Users\Lshi\Documents\Extracurriculars\Gov School\Robotics\GSET_Robotics\Maze\409_Maze_Test.nxc"
4	39	268	#pragma macro 7
4	39	268		setout __OUT_AC, 2, __D0lineFollow, 1, __constVal3, 8, __constVal0, 6, __constVal32, 7, __constVal0, 5, __constVal0, 10, __constVal96, 11, __constVal32, 12, __constVal32, 0, __constVal63
4	4234	291	#line 4234 "C:\Users\Lshi\Documents\Extracurriculars\Gov School\Robotics\GSET_Robotics\Maze\409_Maze_Test.nxc"
4	38	291	#line 38 "C:\Users\Lshi\Documents\Extracurriculars\Gov School\Robotics\GSET_Robotics\Maze\409_Maze_Test.nxc"
4	38	291	#line 38 "C:\Users\Lshi\Documents\Extracurriculars\Gov School\Robotics\GSET_Robotics\Maze\409_Maze_Test.nxc"
4	39	291		set __Wait_7qG2_ms_7qG2_000_inline_lineFollow, 3000
4	38	294	#line 38 "C:\Users\Lshi\Documents\Extracurriculars\Gov School\Robotics\GSET_Robotics\Maze\409_Maze_Test.nxc"
4	7921	294	#line 7921 "NXCDefs.h"
4	7922	294		wait2 NA, __Wait_7qG2_ms_7qG2_000_inline_lineFollow
4	7921	297	#line 7921 "NXCDefs.h"
4	39	297	#line 39 "C:\Users\Lshi\Documents\Extracurriculars\Gov School\Robotics\GSET_Robotics\Maze\409_Maze_Test.nxc"
4	40	297	#line 40 "C:\Users\Lshi\Documents\Extracurriculars\Gov School\Robotics\GSET_Robotics\Maze\409_Maze_Test.nxc"
4	41	297		subcall switchDir, __switchDir_return
4	40	299	#line 40 "C:\Users\Lshi\Documents\Extracurriculars\Gov School\Robotics\GSET_Robotics\Maze\409_Maze_Test.nxc"
4	40	299	#line 40 "C:\Users\Lshi\Documents\Extracurriculars\Gov School\Robotics\GSET_Robotics\Maze\409_Maze_Test.nxc"
4	40	299	#line 40 "C:\Users\Lshi\Documents\Extracurriculars\Gov School\Robotics\GSET_Robotics\Maze\409_Maze_Test.nxc"
4	40	299	#line 40 "C:\Users\Lshi\Documents\Extracurriculars\Gov School\Robotics\GSET_Robotics\Maze\409_Maze_Test.nxc"
4	40	299	#line 40 "C:\Users\Lshi\Documents\Extracurriculars\Gov School\Robotics\GSET_Robotics\Maze\409_Maze_Test.nxc"
4	41	299		mul __D0lineFollow, dir, __constVal60
4	41	303	#line 41 "C:\Users\Lshi\Documents\Extracurriculars\Gov School\Robotics\GSET_Robotics\Maze\409_Maze_Test.nxc"
4	42	303	#pragma macro 7
4	42	303		setout __OUT_AC, 2, __D0lineFollow, 1, __constVal3, 8, __constVal0, 6, __constVal32, 7, __constVal0, 5, __constVal0, 10, __constVal96, 11, __constVal32, 12, __constVal32, 0, __constVal63
4	4264	326	#line 4264 "C:\Users\Lshi\Documents\Extracurriculars\Gov School\Robotics\GSET_Robotics\Maze\409_Maze_Test.nxc"
4	41	326	#line 41 "C:\Users\Lshi\Documents\Extracurriculars\Gov School\Robotics\GSET_Robotics\Maze\409_Maze_Test.nxc"
4	41	326	#line 41 "C:\Users\Lshi\Documents\Extracurriculars\Gov School\Robotics\GSET_Robotics\Maze\409_Maze_Test.nxc"
4	42	326		set __Wait_7qG2_ms_7qG2_000_inline_lineFollow, 3000
4	41	329	#line 41 "C:\Users\Lshi\Documents\Extracurriculars\Gov School\Robotics\GSET_Robotics\Maze\409_Maze_Test.nxc"
4	7921	329	#line 7921 "NXCDefs.h"
4	7922	329		wait2 NA, __Wait_7qG2_ms_7qG2_000_inline_lineFollow
4	7921	332	#line 7921 "NXCDefs.h"
4	42	332	#line 42 "C:\Users\Lshi\Documents\Extracurriculars\Gov School\Robotics\GSET_Robotics\Maze\409_Maze_Test.nxc"
4	43	332		exit -1, -1
5	45	0	#line 45 "C:\Users\Lshi\Documents\Extracurriculars\Gov School\Robotics\GSET_Robotics\Maze\409_Maze_Test.nxc"
5	46	0		mov __signed_stack_001switchDir, dir
5	45	2	#line 45 "C:\Users\Lshi\Documents\Extracurriculars\Gov School\Robotics\GSET_Robotics\Maze\409_Maze_Test.nxc"
5	45	2	#line 45 "C:\Users\Lshi\Documents\Extracurriculars\Gov School\Robotics\GSET_Robotics\Maze\409_Maze_Test.nxc"
5	46	2		mov __D0switchDir, __constValNeg1
5	45	4	#line 45 "C:\Users\Lshi\Documents\Extracurriculars\Gov School\Robotics\GSET_Robotics\Maze\409_Maze_Test.nxc"
5	46	4		cmp 4, __zfswitchDir, __signed_stack_001switchDir, __D0switchDir
5	45	8	#line 45 "C:\Users\Lshi\Documents\Extracurriculars\Gov School\Robotics\GSET_Robotics\Maze\409_Maze_Test.nxc"
5	46	8		mov __D0switchDir, __zfswitchDir
5	46	10	#line 46 "C:\Users\Lshi\Documents\Extracurriculars\Gov School\Robotics\GSET_Robotics\Maze\409_Maze_Test.nxc"
5	47	10		brtst 4, __NXC_Label_528, __zfswitchDir
5	47	13	#line 47 "C:\Users\Lshi\Documents\Extracurriculars\Gov School\Robotics\GSET_Robotics\Maze\409_Maze_Test.nxc"
5	48	13		set dir, 1
5	47	16	#line 47 "C:\Users\Lshi\Documents\Extracurriculars\Gov School\Robotics\GSET_Robotics\Maze\409_Maze_Test.nxc"
5	47	16	#line 47 "C:\Users\Lshi\Documents\Extracurriculars\Gov School\Robotics\GSET_Robotics\Maze\409_Maze_Test.nxc"
5	47	16	#line 47 "C:\Users\Lshi\Documents\Extracurriculars\Gov School\Robotics\GSET_Robotics\Maze\409_Maze_Test.nxc"
5	48	16		set __signed_stack_001switchDir, 30
5	47	19	#line 47 "C:\Users\Lshi\Documents\Extracurriculars\Gov School\Robotics\GSET_Robotics\Maze\409_Maze_Test.nxc"
5	47	19	#line 47 "C:\Users\Lshi\Documents\Extracurriculars\Gov School\Robotics\GSET_Robotics\Maze\409_Maze_Test.nxc"
5	48	19		mov __D0switchDir, __constValNeg180
5	49	21	#line 49 "C:\Users\Lshi\Documents\Extracurriculars\Gov School\Robotics\GSET_Robotics\Maze\409_Maze_Test.nxc"
5	50	21	#pragma macro 33
5	50	21		arrbuild __rotate_ports1, __constVal1
5	50	25		mov __rotate_power1, __signed_stack_001switchDir
5	50	27		mov __rotate_angle1, __D0switchDir
5	50	29		mov __rotate_turnpct1, __constVal0
5	50	31		mov __rotate_sync1, __constVal0
5	50	33		mov __rotate_stop1, __constVal1
5	50	35		mov __rotate_theRVP1, __constVal32
5	50	37		mov __rotate_theRVI1, __constVal0
5	50	39		mov __rotate_theRVD1, __constVal96
5	50	41		subcall __RotateMotor1, ____RotateMotor1_return
5	4311	43	#line 4311 "C:\Users\Lshi\Documents\Extracurriculars\Gov School\Robotics\GSET_Robotics\Maze\409_Maze_Test.nxc"
5	49	43	#line 49 "C:\Users\Lshi\Documents\Extracurriculars\Gov School\Robotics\GSET_Robotics\Maze\409_Maze_Test.nxc"
5	50	43	#line 50 "C:\Users\Lshi\Documents\Extracurriculars\Gov School\Robotics\GSET_Robotics\Maze\409_Maze_Test.nxc"
5	51	43		jmp __NXC_Label_535
5	50	45	#line 50 "C:\Users\Lshi\Documents\Extracurriculars\Gov School\Robotics\GSET_Robotics\Maze\409_Maze_Test.nxc"
5	51	45		mov __signed_stack_001switchDir, dir
5	50	47	#line 50 "C:\Users\Lshi\Documents\Extracurriculars\Gov School\Robotics\GSET_Robotics\Maze\409_Maze_Test.nxc"
5	50	47	#line 50 "C:\Users\Lshi\Documents\Extracurriculars\Gov School\Robotics\GSET_Robotics\Maze\409_Maze_Test.nxc"
5	51	47		set __D0switchDir, 1
5	50	50	#line 50 "C:\Users\Lshi\Documents\Extracurriculars\Gov School\Robotics\GSET_Robotics\Maze\409_Maze_Test.nxc"
5	51	50		cmp 4, __zfswitchDir, __signed_stack_001switchDir, __D0switchDir
5	50	54	#line 50 "C:\Users\Lshi\Documents\Extracurriculars\Gov School\Robotics\GSET_Robotics\Maze\409_Maze_Test.nxc"
5	51	54		mov __D0switchDir, __zfswitchDir
5	51	56	#line 51 "C:\Users\Lshi\Documents\Extracurriculars\Gov School\Robotics\GSET_Robotics\Maze\409_Maze_Test.nxc"
5	52	56		brtst 4, __NXC_Label_538, __zfswitchDir
5	52	59	#line 52 "C:\Users\Lshi\Documents\Extracurriculars\Gov School\Robotics\GSET_Robotics\Maze\409_Maze_Test.nxc"
5	53	59		mov dir, __constValNeg1
5	52	61	#line 52 "C:\Users\Lshi\Documents\Extracurriculars\Gov School\Robotics\GSET_Robotics\Maze\409_Maze_Test.nxc"
5	52	61	#line 52 "C:\Users\Lshi\Documents\Extracurriculars\Gov School\Robotics\GSET_Robotics\Maze\409_Maze_Test.nxc"
5	52	61	#line 52 "C:\Users\Lshi\Documents\Extracurriculars\Gov School\Robotics\GSET_Robotics\Maze\409_Maze_Test.nxc"
5	53	61		set __signed_stack_001switchDir, 30
5	52	64	#line 52 "C:\Users\Lshi\Documents\Extracurriculars\Gov School\Robotics\GSET_Robotics\Maze\409_Maze_Test.nxc"
5	52	64	#line 52 "C:\Users\Lshi\Documents\Extracurriculars\Gov School\Robotics\GSET_Robotics\Maze\409_Maze_Test.nxc"
5	53	64		set __D0switchDir, 180
5	53	67	#line 53 "C:\Users\Lshi\Documents\Extracurriculars\Gov School\Robotics\GSET_Robotics\Maze\409_Maze_Test.nxc"
5	54	67	#pragma macro 33
5	54	67		arrbuild __rotate_ports1, __constVal1
5	54	71		mov __rotate_power1, __signed_stack_001switchDir
5	54	73		mov __rotate_angle1, __D0switchDir
5	54	75		mov __rotate_turnpct1, __constVal0
5	54	77		mov __rotate_sync1, __constVal0
5	54	79		mov __rotate_stop1, __constVal1
5	54	81		mov __rotate_theRVP1, __constVal32
5	54	83		mov __rotate_theRVI1, __constVal0
5	54	85		mov __rotate_theRVD1, __constVal96
5	54	87		subcall __RotateMotor1, ____RotateMotor1_return
5	4348	89	#line 4348 "C:\Users\Lshi\Documents\Extracurriculars\Gov School\Robotics\GSET_Robotics\Maze\409_Maze_Test.nxc"
5	53	89	#line 53 "C:\Users\Lshi\Documents\Extracurriculars\Gov School\Robotics\GSET_Robotics\Maze\409_Maze_Test.nxc"
5	57	89	#line 57 "C:\Users\Lshi\Documents\Extracurriculars\Gov School\Robotics\GSET_Robotics\Maze\409_Maze_Test.nxc"
5	57	89	#line 57 "C:\Users\Lshi\Documents\Extracurriculars\Gov School\Robotics\GSET_Robotics\Maze\409_Maze_Test.nxc"
5	57	89	#line 57 "C:\Users\Lshi\Documents\Extracurriculars\Gov School\Robotics\GSET_Robotics\Maze\409_Maze_Test.nxc"
5	58	89		subret __switchDir_return
6	6069	0	#line 6069 "NXCDefs.h"
6	6070	0	#pragma macro 6
6	6070	0		acquire __PointOutMutex
6	6070	1		mov __PointOutArgs.Location.X, __constVal200
6	6070	3		mov __PointOutArgs.Location.Y, __constVal200
6	6070	5		mov __PointOutArgs.Options, __constVal1
6	6070	7		syscall 14, __PointOutArgs
6	6070	10		release __PointOutMutex
6	4360	11	#line 4360 "NXCDefs.h"
6	6069	11	#line 6069 "NXCDefs.h"
6	59	11	#line 59 "C:\Users\Lshi\Documents\Extracurriculars\Gov School\Robotics\GSET_Robotics\Maze\409_Maze_Test.nxc"
6	59	11	#line 59 "C:\Users\Lshi\Documents\Extracurriculars\Gov School\Robotics\GSET_Robotics\Maze\409_Maze_Test.nxc"
6	60	11		set __signed_stack_001displayNum, 0
6	59	14	#line 59 "C:\Users\Lshi\Documents\Extracurriculars\Gov School\Robotics\GSET_Robotics\Maze\409_Maze_Test.nxc"
6	59	14	#line 59 "C:\Users\Lshi\Documents\Extracurriculars\Gov School\Robotics\GSET_Robotics\Maze\409_Maze_Test.nxc"
6	60	14		set __signed_stack_002displayNum, 2
6	59	17	#line 59 "C:\Users\Lshi\Documents\Extracurriculars\Gov School\Robotics\GSET_Robotics\Maze\409_Maze_Test.nxc"
6	59	17	#line 59 "C:\Users\Lshi\Documents\Extracurriculars\Gov School\Robotics\GSET_Robotics\Maze\409_Maze_Test.nxc"
6	60	17		mov __D0displayNum, __displayNum_7qG2_n_7qG2_000
6	59	19	#line 59 "C:\Users\Lshi\Documents\Extracurriculars\Gov School\Robotics\GSET_Robotics\Maze\409_Maze_Test.nxc"
6	60	19		numtostr __strretvaldisplayNum, __D0displayNum
6	59	22	#line 59 "C:\Users\Lshi\Documents\Extracurriculars\Gov School\Robotics\GSET_Robotics\Maze\409_Maze_Test.nxc"
6	60	22		strcat __strbufdisplayNum, __strretvaldisplayNum
6	60	26	#line 60 "C:\Users\Lshi\Documents\Extracurriculars\Gov School\Robotics\GSET_Robotics\Maze\409_Maze_Test.nxc"
6	61	26		acquire __TextOutMutex
6	60	27	#line 60 "C:\Users\Lshi\Documents\Extracurriculars\Gov School\Robotics\GSET_Robotics\Maze\409_Maze_Test.nxc"
6	61	27		mov __TextOutArgs.Location.X, __signed_stack_001displayNum
6	60	29	#line 60 "C:\Users\Lshi\Documents\Extracurriculars\Gov School\Robotics\GSET_Robotics\Maze\409_Maze_Test.nxc"
6	61	29		mov __TextOutArgs.Location.Y, __signed_stack_002displayNum
6	60	31	#line 60 "C:\Users\Lshi\Documents\Extracurriculars\Gov School\Robotics\GSET_Robotics\Maze\409_Maze_Test.nxc"
6	61	31		set __TextOutArgs.Options, 0
6	60	34	#line 60 "C:\Users\Lshi\Documents\Extracurriculars\Gov School\Robotics\GSET_Robotics\Maze\409_Maze_Test.nxc"
6	61	34		mov __TextOutArgs.Text, __strbufdisplayNum
6	60	36	#line 60 "C:\Users\Lshi\Documents\Extracurriculars\Gov School\Robotics\GSET_Robotics\Maze\409_Maze_Test.nxc"
6	61	36		syscall 13, __TextOutArgs
6	60	39	#line 60 "C:\Users\Lshi\Documents\Extracurriculars\Gov School\Robotics\GSET_Robotics\Maze\409_Maze_Test.nxc"
6	61	39		mov __D0displayNum, __TextOutArgs.Result
6	60	41	#line 60 "C:\Users\Lshi\Documents\Extracurriculars\Gov School\Robotics\GSET_Robotics\Maze\409_Maze_Test.nxc"
6	61	41		release __TextOutMutex
6	60	42	#line 60 "C:\Users\Lshi\Documents\Extracurriculars\Gov School\Robotics\GSET_Robotics\Maze\409_Maze_Test.nxc"
6	60	42	#line 60 "C:\Users\Lshi\Documents\Extracurriculars\Gov School\Robotics\GSET_Robotics\Maze\409_Maze_Test.nxc"
6	61	42		set __Wait_7qG2_ms_7qG2_000_inline_displayNum, 1500
6	60	45	#line 60 "C:\Users\Lshi\Documents\Extracurriculars\Gov School\Robotics\GSET_Robotics\Maze\409_Maze_Test.nxc"
6	7921	45	#line 7921 "NXCDefs.h"
6	7922	45		wait2 NA, __Wait_7qG2_ms_7qG2_000_inline_displayNum
6	7921	48	#line 7921 "NXCDefs.h"
6	61	48	#line 61 "C:\Users\Lshi\Documents\Extracurriculars\Gov School\Robotics\GSET_Robotics\Maze\409_Maze_Test.nxc"
6	6069	48	#line 6069 "NXCDefs.h"
6	6070	48	#pragma macro 6
6	6070	48		acquire __PointOutMutex
6	6070	49		mov __PointOutArgs.Location.X, __constVal200
6	6070	51		mov __PointOutArgs.Location.Y, __constVal200
6	6070	53		mov __PointOutArgs.Options, __constVal1
6	6070	55		syscall 14, __PointOutArgs
6	6070	58		release __PointOutMutex
6	4415	59	#line 4415 "NXCDefs.h"
6	6069	59	#line 6069 "NXCDefs.h"
6	62	59	#line 62 "C:\Users\Lshi\Documents\Extracurriculars\Gov School\Robotics\GSET_Robotics\Maze\409_Maze_Test.nxc"
6	64	59	#line 64 "C:\Users\Lshi\Documents\Extracurriculars\Gov School\Robotics\GSET_Robotics\Maze\409_Maze_Test.nxc"
6	65	59		subret __displayNum_return
7	66	0	#line 66 "C:\Users\Lshi\Documents\Extracurriculars\Gov School\Robotics\GSET_Robotics\Maze\409_Maze_Test.nxc"
7	67	0		mov dir, __constValNeg1
7	66	2	#line 66 "C:\Users\Lshi\Documents\Extracurriculars\Gov School\Robotics\GSET_Robotics\Maze\409_Maze_Test.nxc"
7	66	2	#line 66 "C:\Users\Lshi\Documents\Extracurriculars\Gov School\Robotics\GSET_Robotics\Maze\409_Maze_Test.nxc"
7	66	2	#line 66 "C:\Users\Lshi\Documents\Extracurriculars\Gov School\Robotics\GSET_Robotics\Maze\409_Maze_Test.nxc"
7	67	2		set __SetSensorLight_7qG2_port_7qG2_000_inline_calibration, 0
7	66	5	#line 66 "C:\Users\Lshi\Documents\Extracurriculars\Gov School\Robotics\GSET_Robotics\Maze\409_Maze_Test.nxc"
7	66	5	#line 66 "C:\Users\Lshi\Documents\Extracurriculars\Gov School\Robotics\GSET_Robotics\Maze\409_Maze_Test.nxc"
7	67	5		set __SetSensorLight_7qG2_bActive_7qG2_000_inline_calibration, 1
7	66	8	#line 66 "C:\Users\Lshi\Documents\Extracurriculars\Gov School\Robotics\GSET_Robotics\Maze\409_Maze_Test.nxc"
7	3729	8	#line 3729 "NXCDefs.h"
7	3730	8		mov __SetSensorType_7qG2_port_7qG2_000_inline_SetSensorLight_inline_calibration, __SetSensorLight_7qG2_port_7qG2_000_inline_calibration
7	3729	10	#line 3729 "NXCDefs.h"
7	3729	10	#line 3729 "NXCDefs.h"
7	3730	10		mov __DU0SetSensorLight_inline_calibration, __SetSensorLight_7qG2_bActive_7qG2_000_inline_calibration
7	3729	12	#line 3729 "NXCDefs.h"
7	3730	12		tst 5, __zfSetSensorLight_inline_calibration, __DU0SetSensorLight_inline_calibration
7	3729	15	#line 3729 "NXCDefs.h"
7	3730	15		brtst 4, __001__NXC_Label_4, __zfSetSensorLight_inline_calibration
7	3729	18	#line 3729 "NXCDefs.h"
7	3730	18		set __D0SetSensorLight_inline_calibration, 5
7	3729	21	#line 3729 "NXCDefs.h"
7	3730	21		jmp __001__NXC_Label_5
7	3729	23	#line 3729 "NXCDefs.h"
7	3730	23		set __D0SetSensorLight_inline_calibration, 6
7	3729	26	#line 3729 "NXCDefs.h"
7	3730	26		mov __SetSensorType_7qG2_type_7qG2_000_inline_SetSensorLight_inline_calibration, __D0SetSensorLight_inline_calibration
7	3663	28	#line 3663 "NXCDefs.h"
7	3664	28		setin __SetSensorType_7qG2_type_7qG2_000_inline_SetSensorLight_inline_calibration, __SetSensorType_7qG2_port_7qG2_000_inline_SetSensorLight_inline_calibration, 0
7	3663	32	#line 3663 "NXCDefs.h"
7	3730	32	#line 3730 "NXCDefs.h"
7	3730	32	#line 3730 "NXCDefs.h"
7	3731	32		mov __SetSensorMode_7qG2_port_7qG2_000_inline_SetSensorLight_inline_calibration, __SetSensorLight_7qG2_port_7qG2_000_inline_calibration
7	3730	34	#line 3730 "NXCDefs.h"
7	3730	34	#line 3730 "NXCDefs.h"
7	3731	34		set __SetSensorMode_7qG2_mode_7qG2_000_inline_SetSensorLight_inline_calibration, 128
7	3730	37	#line 3730 "NXCDefs.h"
7	3676	37	#line 3676 "NXCDefs.h"
7	3677	37		setin __SetSensorMode_7qG2_mode_7qG2_000_inline_SetSensorLight_inline_calibration, __SetSensorMode_7qG2_port_7qG2_000_inline_SetSensorLight_inline_calibration, 1
7	3676	41	#line 3676 "NXCDefs.h"
7	3731	41	#line 3731 "NXCDefs.h"
7	3731	41	#line 3731 "NXCDefs.h"
7	3731	41	#line 3731 "NXCDefs.h"
7	3694	41	#line 3694 "NXCDefs.h"
7	3695	41	#pragma macro 4
7	3695	41		mov __ResetSensorPort, __SetSensorLight_7qG2_port_7qG2_000_inline_calibration
7	3695	43		subcall __ResetSensorSubroutine, ____ResetSensorSubroutine_return
7	4525	45	#line 4525 "NXCDefs.h"
7	3694	45	#line 3694 "NXCDefs.h"
7	3732	45	#line 3732 "NXCDefs.h"
7	67	45	#line 67 "C:\Users\Lshi\Documents\Extracurriculars\Gov School\Robotics\GSET_Robotics\Maze\409_Maze_Test.nxc"
7	67	45	#line 67 "C:\Users\Lshi\Documents\Extracurriculars\Gov School\Robotics\GSET_Robotics\Maze\409_Maze_Test.nxc"
7	68	45		set __signed_stack_001calibration, 0
7	67	48	#line 67 "C:\Users\Lshi\Documents\Extracurriculars\Gov School\Robotics\GSET_Robotics\Maze\409_Maze_Test.nxc"
7	67	48	#line 67 "C:\Users\Lshi\Documents\Extracurriculars\Gov School\Robotics\GSET_Robotics\Maze\409_Maze_Test.nxc"
7	68	48		set __signed_stack_002calibration, 2
7	67	51	#line 67 "C:\Users\Lshi\Documents\Extracurriculars\Gov School\Robotics\GSET_Robotics\Maze\409_Maze_Test.nxc"
7	67	51	#line 67 "C:\Users\Lshi\Documents\Extracurriculars\Gov School\Robotics\GSET_Robotics\Maze\409_Maze_Test.nxc"
7	68	51		strcat __strbufcalibration, __constStr0009
7	68	55	#line 68 "C:\Users\Lshi\Documents\Extracurriculars\Gov School\Robotics\GSET_Robotics\Maze\409_Maze_Test.nxc"
7	69	55		acquire __TextOutMutex
7	68	56	#line 68 "C:\Users\Lshi\Documents\Extracurriculars\Gov School\Robotics\GSET_Robotics\Maze\409_Maze_Test.nxc"
7	69	56		mov __TextOutArgs.Location.X, __signed_stack_001calibration
7	68	58	#line 68 "C:\Users\Lshi\Documents\Extracurriculars\Gov School\Robotics\GSET_Robotics\Maze\409_Maze_Test.nxc"
7	69	58		mov __TextOutArgs.Location.Y, __signed_stack_002calibration
7	68	60	#line 68 "C:\Users\Lshi\Documents\Extracurriculars\Gov School\Robotics\GSET_Robotics\Maze\409_Maze_Test.nxc"
7	69	60		set __TextOutArgs.Options, 0
7	68	63	#line 68 "C:\Users\Lshi\Documents\Extracurriculars\Gov School\Robotics\GSET_Robotics\Maze\409_Maze_Test.nxc"
7	69	63		mov __TextOutArgs.Text, __strbufcalibration
7	68	65	#line 68 "C:\Users\Lshi\Documents\Extracurriculars\Gov School\Robotics\GSET_Robotics\Maze\409_Maze_Test.nxc"
7	69	65		syscall 13, __TextOutArgs
7	68	68	#line 68 "C:\Users\Lshi\Documents\Extracurriculars\Gov School\Robotics\GSET_Robotics\Maze\409_Maze_Test.nxc"
7	69	68		mov __D0calibration, __TextOutArgs.Result
7	68	70	#line 68 "C:\Users\Lshi\Documents\Extracurriculars\Gov School\Robotics\GSET_Robotics\Maze\409_Maze_Test.nxc"
7	69	70		release __TextOutMutex
7	68	71	#line 68 "C:\Users\Lshi\Documents\Extracurriculars\Gov School\Robotics\GSET_Robotics\Maze\409_Maze_Test.nxc"
7	68	71	#line 68 "C:\Users\Lshi\Documents\Extracurriculars\Gov School\Robotics\GSET_Robotics\Maze\409_Maze_Test.nxc"
7	69	71		set __Wait_7qG2_ms_7qG2_000_inline_calibration, 3000
7	68	74	#line 68 "C:\Users\Lshi\Documents\Extracurriculars\Gov School\Robotics\GSET_Robotics\Maze\409_Maze_Test.nxc"
7	7921	74	#line 7921 "NXCDefs.h"
7	7922	74		wait2 NA, __Wait_7qG2_ms_7qG2_000_inline_calibration
7	7921	77	#line 7921 "NXCDefs.h"
7	69	77	#line 69 "C:\Users\Lshi\Documents\Extracurriculars\Gov School\Robotics\GSET_Robotics\Maze\409_Maze_Test.nxc"
7	69	77	#line 69 "C:\Users\Lshi\Documents\Extracurriculars\Gov School\Robotics\GSET_Robotics\Maze\409_Maze_Test.nxc"
7	70	77		getin black, __constVal0, 4
7	69	81	#line 69 "C:\Users\Lshi\Documents\Extracurriculars\Gov School\Robotics\GSET_Robotics\Maze\409_Maze_Test.nxc"
7	69	81	#line 69 "C:\Users\Lshi\Documents\Extracurriculars\Gov School\Robotics\GSET_Robotics\Maze\409_Maze_Test.nxc"
7	69	81	#line 69 "C:\Users\Lshi\Documents\Extracurriculars\Gov School\Robotics\GSET_Robotics\Maze\409_Maze_Test.nxc"
7	70	81	#line 70 "C:\Users\Lshi\Documents\Extracurriculars\Gov School\Robotics\GSET_Robotics\Maze\409_Maze_Test.nxc"
7	71	81		mov __displayNum_7qG2_n_7qG2_000, black
7	70	83	#line 70 "C:\Users\Lshi\Documents\Extracurriculars\Gov School\Robotics\GSET_Robotics\Maze\409_Maze_Test.nxc"
7	71	83	#line 71 "C:\Users\Lshi\Documents\Extracurriculars\Gov School\Robotics\GSET_Robotics\Maze\409_Maze_Test.nxc"
7	72	83		subcall displayNum, __displayNum_return
7	71	85	#line 71 "C:\Users\Lshi\Documents\Extracurriculars\Gov School\Robotics\GSET_Robotics\Maze\409_Maze_Test.nxc"
7	71	85	#line 71 "C:\Users\Lshi\Documents\Extracurriculars\Gov School\Robotics\GSET_Robotics\Maze\409_Maze_Test.nxc"
7	72	85		set __signed_stack_001calibration, 0
7	71	88	#line 71 "C:\Users\Lshi\Documents\Extracurriculars\Gov School\Robotics\GSET_Robotics\Maze\409_Maze_Test.nxc"
7	71	88	#line 71 "C:\Users\Lshi\Documents\Extracurriculars\Gov School\Robotics\GSET_Robotics\Maze\409_Maze_Test.nxc"
7	72	88		set __signed_stack_002calibration, 2
7	71	91	#line 71 "C:\Users\Lshi\Documents\Extracurriculars\Gov School\Robotics\GSET_Robotics\Maze\409_Maze_Test.nxc"
7	71	91	#line 71 "C:\Users\Lshi\Documents\Extracurriculars\Gov School\Robotics\GSET_Robotics\Maze\409_Maze_Test.nxc"
7	72	91		strcat __strbufcalibration, __constStr0010
7	72	95	#line 72 "C:\Users\Lshi\Documents\Extracurriculars\Gov School\Robotics\GSET_Robotics\Maze\409_Maze_Test.nxc"
7	73	95		acquire __TextOutMutex
7	72	96	#line 72 "C:\Users\Lshi\Documents\Extracurriculars\Gov School\Robotics\GSET_Robotics\Maze\409_Maze_Test.nxc"
7	73	96		mov __TextOutArgs.Location.X, __signed_stack_001calibration
7	72	98	#line 72 "C:\Users\Lshi\Documents\Extracurriculars\Gov School\Robotics\GSET_Robotics\Maze\409_Maze_Test.nxc"
7	73	98		mov __TextOutArgs.Location.Y, __signed_stack_002calibration
7	72	100	#line 72 "C:\Users\Lshi\Documents\Extracurriculars\Gov School\Robotics\GSET_Robotics\Maze\409_Maze_Test.nxc"
7	73	100		set __TextOutArgs.Options, 0
7	72	103	#line 72 "C:\Users\Lshi\Documents\Extracurriculars\Gov School\Robotics\GSET_Robotics\Maze\409_Maze_Test.nxc"
7	73	103		mov __TextOutArgs.Text, __strbufcalibration
7	72	105	#line 72 "C:\Users\Lshi\Documents\Extracurriculars\Gov School\Robotics\GSET_Robotics\Maze\409_Maze_Test.nxc"
7	73	105		syscall 13, __TextOutArgs
7	72	108	#line 72 "C:\Users\Lshi\Documents\Extracurriculars\Gov School\Robotics\GSET_Robotics\Maze\409_Maze_Test.nxc"
7	73	108		mov __D0calibration, __TextOutArgs.Result
7	72	110	#line 72 "C:\Users\Lshi\Documents\Extracurriculars\Gov School\Robotics\GSET_Robotics\Maze\409_Maze_Test.nxc"
7	73	110		release __TextOutMutex
7	72	111	#line 72 "C:\Users\Lshi\Documents\Extracurriculars\Gov School\Robotics\GSET_Robotics\Maze\409_Maze_Test.nxc"
7	72	111	#line 72 "C:\Users\Lshi\Documents\Extracurriculars\Gov School\Robotics\GSET_Robotics\Maze\409_Maze_Test.nxc"
7	73	111		set __Wait_7qG2_ms_7qG2_000_inline_calibration, 3000
7	72	114	#line 72 "C:\Users\Lshi\Documents\Extracurriculars\Gov School\Robotics\GSET_Robotics\Maze\409_Maze_Test.nxc"
7	7921	114	#line 7921 "NXCDefs.h"
7	7922	114		wait2 NA, __Wait_7qG2_ms_7qG2_000_inline_calibration
7	7921	117	#line 7921 "NXCDefs.h"
7	73	117	#line 73 "C:\Users\Lshi\Documents\Extracurriculars\Gov School\Robotics\GSET_Robotics\Maze\409_Maze_Test.nxc"
7	73	117	#line 73 "C:\Users\Lshi\Documents\Extracurriculars\Gov School\Robotics\GSET_Robotics\Maze\409_Maze_Test.nxc"
7	74	117		getin white, __constVal0, 4
7	73	121	#line 73 "C:\Users\Lshi\Documents\Extracurriculars\Gov School\Robotics\GSET_Robotics\Maze\409_Maze_Test.nxc"
7	73	121	#line 73 "C:\Users\Lshi\Documents\Extracurriculars\Gov School\Robotics\GSET_Robotics\Maze\409_Maze_Test.nxc"
7	73	121	#line 73 "C:\Users\Lshi\Documents\Extracurriculars\Gov School\Robotics\GSET_Robotics\Maze\409_Maze_Test.nxc"
7	74	121	#line 74 "C:\Users\Lshi\Documents\Extracurriculars\Gov School\Robotics\GSET_Robotics\Maze\409_Maze_Test.nxc"
7	75	121		mov __displayNum_7qG2_n_7qG2_000, white
7	74	123	#line 74 "C:\Users\Lshi\Documents\Extracurriculars\Gov School\Robotics\GSET_Robotics\Maze\409_Maze_Test.nxc"
7	76	123	#line 76 "C:\Users\Lshi\Documents\Extracurriculars\Gov School\Robotics\GSET_Robotics\Maze\409_Maze_Test.nxc"
7	77	123		subcall displayNum, __displayNum_return
7	76	125	#line 76 "C:\Users\Lshi\Documents\Extracurriculars\Gov School\Robotics\GSET_Robotics\Maze\409_Maze_Test.nxc"
7	76	125	#line 76 "C:\Users\Lshi\Documents\Extracurriculars\Gov School\Robotics\GSET_Robotics\Maze\409_Maze_Test.nxc"
7	76	125	#line 76 "C:\Users\Lshi\Documents\Extracurriculars\Gov School\Robotics\GSET_Robotics\Maze\409_Maze_Test.nxc"
7	76	125	#line 76 "C:\Users\Lshi\Documents\Extracurriculars\Gov School\Robotics\GSET_Robotics\Maze\409_Maze_Test.nxc"
7	76	125	#line 76 "C:\Users\Lshi\Documents\Extracurriculars\Gov School\Robotics\GSET_Robotics\Maze\409_Maze_Test.nxc"
7	77	125		add __signed_stack_001calibration, black, white
7	76	129	#line 76 "C:\Users\Lshi\Documents\Extracurriculars\Gov School\Robotics\GSET_Robotics\Maze\409_Maze_Test.nxc"
7	77	129	#line 77 "C:\Users\Lshi\Documents\Extracurriculars\Gov School\Robotics\GSET_Robotics\Maze\409_Maze_Test.nxc"
7	77	129	#line 77 "C:\Users\Lshi\Documents\Extracurriculars\Gov School\Robotics\GSET_Robotics\Maze\409_Maze_Test.nxc"
7	78	129		div lightAvg, __signed_stack_001calibration, __constVal2
7	77	133	#line 77 "C:\Users\Lshi\Documents\Extracurriculars\Gov School\Robotics\GSET_Robotics\Maze\409_Maze_Test.nxc"
7	77	133	#line 77 "C:\Users\Lshi\Documents\Extracurriculars\Gov School\Robotics\GSET_Robotics\Maze\409_Maze_Test.nxc"
7	77	133	#line 77 "C:\Users\Lshi\Documents\Extracurriculars\Gov School\Robotics\GSET_Robotics\Maze\409_Maze_Test.nxc"
7	78	133		mov __displayNum_7qG2_n_7qG2_000, lightAvg
7	77	135	#line 77 "C:\Users\Lshi\Documents\Extracurriculars\Gov School\Robotics\GSET_Robotics\Maze\409_Maze_Test.nxc"
7	79	135	#line 79 "C:\Users\Lshi\Documents\Extracurriculars\Gov School\Robotics\GSET_Robotics\Maze\409_Maze_Test.nxc"
7	80	135		subcall displayNum, __displayNum_return
7	79	137	#line 79 "C:\Users\Lshi\Documents\Extracurriculars\Gov School\Robotics\GSET_Robotics\Maze\409_Maze_Test.nxc"
7	79	137	#line 79 "C:\Users\Lshi\Documents\Extracurriculars\Gov School\Robotics\GSET_Robotics\Maze\409_Maze_Test.nxc"
7	79	137	#line 79 "C:\Users\Lshi\Documents\Extracurriculars\Gov School\Robotics\GSET_Robotics\Maze\409_Maze_Test.nxc"
7	3768	137	#line 3768 "NXCDefs.h"
7	3769	137		mov __SetSensorLowspeed_7qG2_port_7qG2_000_inline_SetSensorUltrasonic_inline_calibration, __constVal1
7	3768	139	#line 3768 "NXCDefs.h"
7	3768	139	#line 3768 "NXCDefs.h"
7	3769	139		mov __SetSensorLowspeed_7qG2_bIsPowered_7qG2_000_inline_SetSensorUltrasonic_inline_calibration, __constVal1
7	3758	141	#line 3758 "NXCDefs.h"
7	3759	141		mov __SetSensorType_7qG2_port_7qG2_000_inline_SetSensorLowspeed_inline_SetSensorUltrasonic_inline_calibration, __SetSensorLowspeed_7qG2_port_7qG2_000_inline_SetSensorUltrasonic_inline_calibration
7	3758	143	#line 3758 "NXCDefs.h"
7	3758	143	#line 3758 "NXCDefs.h"
7	3759	143		mov __DU0SetSensorLowspeed_inline_SetSensorUltrasonic, __SetSensorLowspeed_7qG2_bIsPowered_7qG2_000_inline_SetSensorUltrasonic_inline_calibration
7	3758	145	#line 3758 "NXCDefs.h"
7	3759	145		tst 5, __zfSetSensorLowspeed_inline_SetSensorUltrasonic, __DU0SetSensorLowspeed_inline_SetSensorUltrasonic
7	3758	148	#line 3758 "NXCDefs.h"
7	3759	148		brtst 4, __001__001__NXC_Label_36, __zfSetSensorLowspeed_inline_SetSensorUltrasonic
7	3758	151	#line 3758 "NXCDefs.h"
7	3759	151		set __D0SetSensorLowspeed_inline_SetSensorUltrasonic, 11
7	3758	154	#line 3758 "NXCDefs.h"
7	3759	154		jmp __001__001__NXC_Label_37
7	3758	156	#line 3758 "NXCDefs.h"
7	3759	156		set __D0SetSensorLowspeed_inline_SetSensorUltrasonic, 10
7	3758	159	#line 3758 "NXCDefs.h"
7	3759	159		mov __SetSensorType_7qG2_type_7qG2_000_inline_SetSensorLowspeed_inline_SetSensorUltrasonic_inline_calibration, __D0SetSensorLowspeed_inline_SetSensorUltrasonic
7	3663	161	#line 3663 "NXCDefs.h"
7	3664	161		setin __SetSensorType_7qG2_type_7qG2_000_inline_SetSensorLowspeed_inline_SetSensorUltrasonic_inline_calibration, __SetSensorType_7qG2_port_7qG2_000_inline_SetSensorLowspeed_inline_SetSensorUltrasonic_inline_calibration, 0
7	3663	165	#line 3663 "NXCDefs.h"
7	3759	165	#line 3759 "NXCDefs.h"
7	3759	165	#line 3759 "NXCDefs.h"
7	3760	165		mov __SetSensorMode_7qG2_port_7qG2_000_inline_SetSensorLowspeed_inline_SetSensorUltrasonic_inline_calibration, __SetSensorLowspeed_7qG2_port_7qG2_000_inline_SetSensorUltrasonic_inline_calibration
7	3759	167	#line 3759 "NXCDefs.h"
7	3759	167	#line 3759 "NXCDefs.h"
7	3760	167		set __SetSensorMode_7qG2_mode_7qG2_000_inline_SetSensorLowspeed_inline_SetSensorUltrasonic_inline_calibration, 0
7	3759	170	#line 3759 "NXCDefs.h"
7	3676	170	#line 3676 "NXCDefs.h"
7	3677	170		setin __SetSensorMode_7qG2_mode_7qG2_000_inline_SetSensorLowspeed_inline_SetSensorUltrasonic_inline_calibration, __SetSensorMode_7qG2_port_7qG2_000_inline_SetSensorLowspeed_inline_SetSensorUltrasonic_inline_calibration, 1
7	3676	174	#line 3676 "NXCDefs.h"
7	3760	174	#line 3760 "NXCDefs.h"
7	3760	174	#line 3760 "NXCDefs.h"
7	3760	174	#line 3760 "NXCDefs.h"
7	3694	174	#line 3694 "NXCDefs.h"
7	3695	174	#pragma macro 4
7	3695	174		mov __ResetSensorPort, __SetSensorLowspeed_7qG2_port_7qG2_000_inline_SetSensorUltrasonic_inline_calibration
7	3695	176		subcall __ResetSensorSubroutine, ____ResetSensorSubroutine_return
7	4780	178	#line 4780 "NXCDefs.h"
7	3694	178	#line 3694 "NXCDefs.h"
7	3761	178	#line 3761 "NXCDefs.h"
7	3768	178	#line 3768 "NXCDefs.h"
7	81	178	#line 81 "C:\Users\Lshi\Documents\Extracurriculars\Gov School\Robotics\GSET_Robotics\Maze\409_Maze_Test.nxc"
7	81	178	#line 81 "C:\Users\Lshi\Documents\Extracurriculars\Gov School\Robotics\GSET_Robotics\Maze\409_Maze_Test.nxc"
7	82	178		set __signed_stack_001calibration, 0
7	81	181	#line 81 "C:\Users\Lshi\Documents\Extracurriculars\Gov School\Robotics\GSET_Robotics\Maze\409_Maze_Test.nxc"
7	81	181	#line 81 "C:\Users\Lshi\Documents\Extracurriculars\Gov School\Robotics\GSET_Robotics\Maze\409_Maze_Test.nxc"
7	82	181		set __signed_stack_002calibration, 2
7	81	184	#line 81 "C:\Users\Lshi\Documents\Extracurriculars\Gov School\Robotics\GSET_Robotics\Maze\409_Maze_Test.nxc"
7	81	184	#line 81 "C:\Users\Lshi\Documents\Extracurriculars\Gov School\Robotics\GSET_Robotics\Maze\409_Maze_Test.nxc"
7	82	184		strcat __strbufcalibration, __constStr0011
7	82	188	#line 82 "C:\Users\Lshi\Documents\Extracurriculars\Gov School\Robotics\GSET_Robotics\Maze\409_Maze_Test.nxc"
7	83	188		acquire __TextOutMutex
7	82	189	#line 82 "C:\Users\Lshi\Documents\Extracurriculars\Gov School\Robotics\GSET_Robotics\Maze\409_Maze_Test.nxc"
7	83	189		mov __TextOutArgs.Location.X, __signed_stack_001calibration
7	82	191	#line 82 "C:\Users\Lshi\Documents\Extracurriculars\Gov School\Robotics\GSET_Robotics\Maze\409_Maze_Test.nxc"
7	83	191		mov __TextOutArgs.Location.Y, __signed_stack_002calibration
7	82	193	#line 82 "C:\Users\Lshi\Documents\Extracurriculars\Gov School\Robotics\GSET_Robotics\Maze\409_Maze_Test.nxc"
7	83	193		set __TextOutArgs.Options, 0
7	82	196	#line 82 "C:\Users\Lshi\Documents\Extracurriculars\Gov School\Robotics\GSET_Robotics\Maze\409_Maze_Test.nxc"
7	83	196		mov __TextOutArgs.Text, __strbufcalibration
7	82	198	#line 82 "C:\Users\Lshi\Documents\Extracurriculars\Gov School\Robotics\GSET_Robotics\Maze\409_Maze_Test.nxc"
7	83	198		syscall 13, __TextOutArgs
7	82	201	#line 82 "C:\Users\Lshi\Documents\Extracurriculars\Gov School\Robotics\GSET_Robotics\Maze\409_Maze_Test.nxc"
7	83	201		mov __D0calibration, __TextOutArgs.Result
7	82	203	#line 82 "C:\Users\Lshi\Documents\Extracurriculars\Gov School\Robotics\GSET_Robotics\Maze\409_Maze_Test.nxc"
7	83	203		release __TextOutMutex
7	82	204	#line 82 "C:\Users\Lshi\Documents\Extracurriculars\Gov School\Robotics\GSET_Robotics\Maze\409_Maze_Test.nxc"
7	82	204	#line 82 "C:\Users\Lshi\Documents\Extracurriculars\Gov School\Robotics\GSET_Robotics\Maze\409_Maze_Test.nxc"
7	83	204		set __Wait_7qG2_ms_7qG2_000_inline_calibration, 1000
7	82	207	#line 82 "C:\Users\Lshi\Documents\Extracurriculars\Gov School\Robotics\GSET_Robotics\Maze\409_Maze_Test.nxc"
7	7921	207	#line 7921 "NXCDefs.h"
7	7922	207		wait2 NA, __Wait_7qG2_ms_7qG2_000_inline_calibration
7	7921	210	#line 7921 "NXCDefs.h"
7	83	210	#line 83 "C:\Users\Lshi\Documents\Extracurriculars\Gov School\Robotics\GSET_Robotics\Maze\409_Maze_Test.nxc"
7	6069	210	#line 6069 "NXCDefs.h"
7	6070	210	#pragma macro 6
7	6070	210		acquire __PointOutMutex
7	6070	211		mov __PointOutArgs.Location.X, __constVal200
7	6070	213		mov __PointOutArgs.Location.Y, __constVal200
7	6070	215		mov __PointOutArgs.Options, __constVal1
7	6070	217		syscall 14, __PointOutArgs
7	6070	220		release __PointOutMutex
7	4827	221	#line 4827 "NXCDefs.h"
7	6069	221	#line 6069 "NXCDefs.h"
7	84	221	#line 84 "C:\Users\Lshi\Documents\Extracurriculars\Gov School\Robotics\GSET_Robotics\Maze\409_Maze_Test.nxc"
7	84	221	#line 84 "C:\Users\Lshi\Documents\Extracurriculars\Gov School\Robotics\GSET_Robotics\Maze\409_Maze_Test.nxc"
7	85	221		set __signed_stack_001calibration, 0
7	84	224	#line 84 "C:\Users\Lshi\Documents\Extracurriculars\Gov School\Robotics\GSET_Robotics\Maze\409_Maze_Test.nxc"
7	84	224	#line 84 "C:\Users\Lshi\Documents\Extracurriculars\Gov School\Robotics\GSET_Robotics\Maze\409_Maze_Test.nxc"
7	85	224		set __signed_stack_002calibration, 2
7	84	227	#line 84 "C:\Users\Lshi\Documents\Extracurriculars\Gov School\Robotics\GSET_Robotics\Maze\409_Maze_Test.nxc"
7	84	227	#line 84 "C:\Users\Lshi\Documents\Extracurriculars\Gov School\Robotics\GSET_Robotics\Maze\409_Maze_Test.nxc"
7	85	227		strcat __strbufcalibration, __constStr0012
7	85	231	#line 85 "C:\Users\Lshi\Documents\Extracurriculars\Gov School\Robotics\GSET_Robotics\Maze\409_Maze_Test.nxc"
7	86	231		acquire __TextOutMutex
7	85	232	#line 85 "C:\Users\Lshi\Documents\Extracurriculars\Gov School\Robotics\GSET_Robotics\Maze\409_Maze_Test.nxc"
7	86	232		mov __TextOutArgs.Location.X, __signed_stack_001calibration
7	85	234	#line 85 "C:\Users\Lshi\Documents\Extracurriculars\Gov School\Robotics\GSET_Robotics\Maze\409_Maze_Test.nxc"
7	86	234		mov __TextOutArgs.Location.Y, __signed_stack_002calibration
7	85	236	#line 85 "C:\Users\Lshi\Documents\Extracurriculars\Gov School\Robotics\GSET_Robotics\Maze\409_Maze_Test.nxc"
7	86	236		set __TextOutArgs.Options, 0
7	85	239	#line 85 "C:\Users\Lshi\Documents\Extracurriculars\Gov School\Robotics\GSET_Robotics\Maze\409_Maze_Test.nxc"
7	86	239		mov __TextOutArgs.Text, __strbufcalibration
7	85	241	#line 85 "C:\Users\Lshi\Documents\Extracurriculars\Gov School\Robotics\GSET_Robotics\Maze\409_Maze_Test.nxc"
7	86	241		syscall 13, __TextOutArgs
7	85	244	#line 85 "C:\Users\Lshi\Documents\Extracurriculars\Gov School\Robotics\GSET_Robotics\Maze\409_Maze_Test.nxc"
7	86	244		mov __D0calibration, __TextOutArgs.Result
7	85	246	#line 85 "C:\Users\Lshi\Documents\Extracurriculars\Gov School\Robotics\GSET_Robotics\Maze\409_Maze_Test.nxc"
7	86	246		release __TextOutMutex
7	85	247	#line 85 "C:\Users\Lshi\Documents\Extracurriculars\Gov School\Robotics\GSET_Robotics\Maze\409_Maze_Test.nxc"
7	85	247	#line 85 "C:\Users\Lshi\Documents\Extracurriculars\Gov School\Robotics\GSET_Robotics\Maze\409_Maze_Test.nxc"
7	86	247		set __Wait_7qG2_ms_7qG2_000_inline_calibration, 1000
7	85	250	#line 85 "C:\Users\Lshi\Documents\Extracurriculars\Gov School\Robotics\GSET_Robotics\Maze\409_Maze_Test.nxc"
7	7921	250	#line 7921 "NXCDefs.h"
7	7922	250		wait2 NA, __Wait_7qG2_ms_7qG2_000_inline_calibration
7	7921	253	#line 7921 "NXCDefs.h"
7	86	253	#line 86 "C:\Users\Lshi\Documents\Extracurriculars\Gov School\Robotics\GSET_Robotics\Maze\409_Maze_Test.nxc"
7	6069	253	#line 6069 "NXCDefs.h"
7	6070	253	#pragma macro 6
7	6070	253		acquire __PointOutMutex
7	6070	254		mov __PointOutArgs.Location.X, __constVal200
7	6070	256		mov __PointOutArgs.Location.Y, __constVal200
7	6070	258		mov __PointOutArgs.Options, __constVal1
7	6070	260		syscall 14, __PointOutArgs
7	6070	263		release __PointOutMutex
7	4872	264	#line 4872 "NXCDefs.h"
7	6069	264	#line 6069 "NXCDefs.h"
7	87	264	#line 87 "C:\Users\Lshi\Documents\Extracurriculars\Gov School\Robotics\GSET_Robotics\Maze\409_Maze_Test.nxc"
7	87	264	#line 87 "C:\Users\Lshi\Documents\Extracurriculars\Gov School\Robotics\GSET_Robotics\Maze\409_Maze_Test.nxc"
7	88	264		set __signed_stack_001calibration, 0
7	87	267	#line 87 "C:\Users\Lshi\Documents\Extracurriculars\Gov School\Robotics\GSET_Robotics\Maze\409_Maze_Test.nxc"
7	87	267	#line 87 "C:\Users\Lshi\Documents\Extracurriculars\Gov School\Robotics\GSET_Robotics\Maze\409_Maze_Test.nxc"
7	88	267		set __signed_stack_002calibration, 2
7	87	270	#line 87 "C:\Users\Lshi\Documents\Extracurriculars\Gov School\Robotics\GSET_Robotics\Maze\409_Maze_Test.nxc"
7	87	270	#line 87 "C:\Users\Lshi\Documents\Extracurriculars\Gov School\Robotics\GSET_Robotics\Maze\409_Maze_Test.nxc"
7	88	270		strcat __strbufcalibration, __constStr0013
7	88	274	#line 88 "C:\Users\Lshi\Documents\Extracurriculars\Gov School\Robotics\GSET_Robotics\Maze\409_Maze_Test.nxc"
7	89	274		acquire __TextOutMutex
7	88	275	#line 88 "C:\Users\Lshi\Documents\Extracurriculars\Gov School\Robotics\GSET_Robotics\Maze\409_Maze_Test.nxc"
7	89	275		mov __TextOutArgs.Location.X, __signed_stack_001calibration
7	88	277	#line 88 "C:\Users\Lshi\Documents\Extracurriculars\Gov School\Robotics\GSET_Robotics\Maze\409_Maze_Test.nxc"
7	89	277		mov __TextOutArgs.Location.Y, __signed_stack_002calibration
7	88	279	#line 88 "C:\Users\Lshi\Documents\Extracurriculars\Gov School\Robotics\GSET_Robotics\Maze\409_Maze_Test.nxc"
7	89	279		set __TextOutArgs.Options, 0
7	88	282	#line 88 "C:\Users\Lshi\Documents\Extracurriculars\Gov School\Robotics\GSET_Robotics\Maze\409_Maze_Test.nxc"
7	89	282		mov __TextOutArgs.Text, __strbufcalibration
7	88	284	#line 88 "C:\Users\Lshi\Documents\Extracurriculars\Gov School\Robotics\GSET_Robotics\Maze\409_Maze_Test.nxc"
7	89	284		syscall 13, __TextOutArgs
7	88	287	#line 88 "C:\Users\Lshi\Documents\Extracurriculars\Gov School\Robotics\GSET_Robotics\Maze\409_Maze_Test.nxc"
7	89	287		mov __D0calibration, __TextOutArgs.Result
7	88	289	#line 88 "C:\Users\Lshi\Documents\Extracurriculars\Gov School\Robotics\GSET_Robotics\Maze\409_Maze_Test.nxc"
7	89	289		release __TextOutMutex
7	88	290	#line 88 "C:\Users\Lshi\Documents\Extracurriculars\Gov School\Robotics\GSET_Robotics\Maze\409_Maze_Test.nxc"
7	88	290	#line 88 "C:\Users\Lshi\Documents\Extracurriculars\Gov School\Robotics\GSET_Robotics\Maze\409_Maze_Test.nxc"
7	89	290		set __Wait_7qG2_ms_7qG2_000_inline_calibration, 1000
7	88	293	#line 88 "C:\Users\Lshi\Documents\Extracurriculars\Gov School\Robotics\GSET_Robotics\Maze\409_Maze_Test.nxc"
7	7921	293	#line 7921 "NXCDefs.h"
7	7922	293		wait2 NA, __Wait_7qG2_ms_7qG2_000_inline_calibration
7	7921	296	#line 7921 "NXCDefs.h"
7	89	296	#line 89 "C:\Users\Lshi\Documents\Extracurriculars\Gov School\Robotics\GSET_Robotics\Maze\409_Maze_Test.nxc"
7	6069	296	#line 6069 "NXCDefs.h"
7	6070	296	#pragma macro 6
7	6070	296		acquire __PointOutMutex
7	6070	297		mov __PointOutArgs.Location.X, __constVal200
7	6070	299		mov __PointOutArgs.Location.Y, __constVal200
7	6070	301		mov __PointOutArgs.Options, __constVal1
7	6070	303		syscall 14, __PointOutArgs
7	6070	306		release __PointOutMutex
7	4917	307	#line 4917 "NXCDefs.h"
7	6069	307	#line 6069 "NXCDefs.h"
7	90	307	#line 90 "C:\Users\Lshi\Documents\Extracurriculars\Gov School\Robotics\GSET_Robotics\Maze\409_Maze_Test.nxc"
7	90	307	#line 90 "C:\Users\Lshi\Documents\Extracurriculars\Gov School\Robotics\GSET_Robotics\Maze\409_Maze_Test.nxc"
7	91	307		set __signed_stack_001calibration, 0
7	90	310	#line 90 "C:\Users\Lshi\Documents\Extracurriculars\Gov School\Robotics\GSET_Robotics\Maze\409_Maze_Test.nxc"
7	90	310	#line 90 "C:\Users\Lshi\Documents\Extracurriculars\Gov School\Robotics\GSET_Robotics\Maze\409_Maze_Test.nxc"
7	91	310		set __signed_stack_002calibration, 2
7	90	313	#line 90 "C:\Users\Lshi\Documents\Extracurriculars\Gov School\Robotics\GSET_Robotics\Maze\409_Maze_Test.nxc"
7	90	313	#line 90 "C:\Users\Lshi\Documents\Extracurriculars\Gov School\Robotics\GSET_Robotics\Maze\409_Maze_Test.nxc"
7	91	313		strcat __strbufcalibration, __constStr0014
7	91	317	#line 91 "C:\Users\Lshi\Documents\Extracurriculars\Gov School\Robotics\GSET_Robotics\Maze\409_Maze_Test.nxc"
7	92	317		acquire __TextOutMutex
7	91	318	#line 91 "C:\Users\Lshi\Documents\Extracurriculars\Gov School\Robotics\GSET_Robotics\Maze\409_Maze_Test.nxc"
7	92	318		mov __TextOutArgs.Location.X, __signed_stack_001calibration
7	91	320	#line 91 "C:\Users\Lshi\Documents\Extracurriculars\Gov School\Robotics\GSET_Robotics\Maze\409_Maze_Test.nxc"
7	92	320		mov __TextOutArgs.Location.Y, __signed_stack_002calibration
7	91	322	#line 91 "C:\Users\Lshi\Documents\Extracurriculars\Gov School\Robotics\GSET_Robotics\Maze\409_Maze_Test.nxc"
7	92	322		set __TextOutArgs.Options, 0
7	91	325	#line 91 "C:\Users\Lshi\Documents\Extracurriculars\Gov School\Robotics\GSET_Robotics\Maze\409_Maze_Test.nxc"
7	92	325		mov __TextOutArgs.Text, __strbufcalibration
7	91	327	#line 91 "C:\Users\Lshi\Documents\Extracurriculars\Gov School\Robotics\GSET_Robotics\Maze\409_Maze_Test.nxc"
7	92	327		syscall 13, __TextOutArgs
7	91	330	#line 91 "C:\Users\Lshi\Documents\Extracurriculars\Gov School\Robotics\GSET_Robotics\Maze\409_Maze_Test.nxc"
7	92	330		mov __D0calibration, __TextOutArgs.Result
7	91	332	#line 91 "C:\Users\Lshi\Documents\Extracurriculars\Gov School\Robotics\GSET_Robotics\Maze\409_Maze_Test.nxc"
7	92	332		release __TextOutMutex
7	91	333	#line 91 "C:\Users\Lshi\Documents\Extracurriculars\Gov School\Robotics\GSET_Robotics\Maze\409_Maze_Test.nxc"
7	91	333	#line 91 "C:\Users\Lshi\Documents\Extracurriculars\Gov School\Robotics\GSET_Robotics\Maze\409_Maze_Test.nxc"
7	92	333		set __Wait_7qG2_ms_7qG2_000_inline_calibration, 1000
7	91	336	#line 91 "C:\Users\Lshi\Documents\Extracurriculars\Gov School\Robotics\GSET_Robotics\Maze\409_Maze_Test.nxc"
7	7921	336	#line 7921 "NXCDefs.h"
7	7922	336		wait2 NA, __Wait_7qG2_ms_7qG2_000_inline_calibration
7	7921	339	#line 7921 "NXCDefs.h"
7	92	339	#line 92 "C:\Users\Lshi\Documents\Extracurriculars\Gov School\Robotics\GSET_Robotics\Maze\409_Maze_Test.nxc"
7	6069	339	#line 6069 "NXCDefs.h"
7	6070	339	#pragma macro 6
7	6070	339		acquire __PointOutMutex
7	6070	340		mov __PointOutArgs.Location.X, __constVal200
7	6070	342		mov __PointOutArgs.Location.Y, __constVal200
7	6070	344		mov __PointOutArgs.Options, __constVal1
7	6070	346		syscall 14, __PointOutArgs
7	6070	349		release __PointOutMutex
7	4962	350	#line 4962 "NXCDefs.h"
7	6069	350	#line 6069 "NXCDefs.h"
7	93	350	#line 93 "C:\Users\Lshi\Documents\Extracurriculars\Gov School\Robotics\GSET_Robotics\Maze\409_Maze_Test.nxc"
7	95	350	#line 95 "C:\Users\Lshi\Documents\Extracurriculars\Gov School\Robotics\GSET_Robotics\Maze\409_Maze_Test.nxc"
7	96	350		subret __calibration_return
8	96	0	#line 96 "C:\Users\Lshi\Documents\Extracurriculars\Gov School\Robotics\GSET_Robotics\Maze\409_Maze_Test.nxc"
8	97	0		subret ____initialize_global_data_return
#CLUMPS
Clump	Name	Offset	File
0	main	0	C:\Users\Lshi\Documents\Extracurriculars\Gov School\Robotics\GSET_Robotics\Maze\409_Maze_Test.nxc
1	__RotateMotor1	7	NXTDefs.h
2	__ResetSensorSubroutine	176	NXTDefs.h
3	__ReadLSBytes1	189	NXTDefs.h
4	lineFollow	274	C:\Users\Lshi\Documents\Extracurriculars\Gov School\Robotics\GSET_Robotics\Maze\409_Maze_Test.nxc
5	switchDir	609	C:\Users\Lshi\Documents\Extracurriculars\Gov School\Robotics\GSET_Robotics\Maze\409_Maze_Test.nxc
6	displayNum	700	C:\Users\Lshi\Documents\Extracurriculars\Gov School\Robotics\GSET_Robotics\Maze\409_Maze_Test.nxc
7	calibration	761	C:\Users\Lshi\Documents\Extracurriculars\Gov School\Robotics\GSET_Robotics\Maze\409_Maze_Test.nxc
8	__initialize_global_data	1113	C:\Users\Lshi\Documents\Extracurriculars\Gov School\Robotics\GSET_Robotics\Maze\409_Maze_Test.nxc
