#SYMBOLS
Index	Identifier	Type	Flag	Data	Size	RefCount
0	__D0lineFollow	6	1	0	4	46
1	__DU0HTEnhancedIRSeekerV2	5	1	4	4	6
2	__DF0lineFollow	10	1	8	4	2
3	__DF0singleWheelTurn	10	1	12	4	2
4	__D0mazeNav	6	1	16	4	38
5	__D0HTEnhancedIRSeekerV2	6	1	20	4	37
6	__D0doubleWheelTurn	6	1	24	4	6
7	__HTEnhancedIRSeekerV2_7qG2_dcStr_7qG2_000	6	1	28	4	6
8	__DF0doubleWheelTurn	10	1	32	4	4
9	__D0driveUpToWall	6	1	36	4	22
10	__D0driveUpToNotWall	6	1	40	4	6
11	__D0switchDir	6	1	44	4	10
12	__signed_stack_002ballCatch	6	1	48	4	2
13	__signed_stack_001ballCatch	6	1	52	4	14
14	__signed_stack_003ballCatch	6	1	56	4	2
15	__signed_stack_001calibration	6	1	60	4	14
16	__signed_stack_001ballFind	6	1	64	4	2
17	__DU0SetSensorLowspeed_inline_SetSensorUltrasonic	5	1	68	4	2
18	__D0turnHeadTo	6	1	72	4	4
19	__D0turnCheck	6	1	76	4	10
20	__D0SetSensorLight_inline_main	6	1	80	4	3
21	__D0SetSensorLowspeed_inline_SetSensorUltrasonic	6	1	84	4	3
22	__DU0SetSensorLight_inline_main	5	1	88	4	2
23	__CLSRMutex3	9	0	92	4	2
24	__CLSWMutex3	9	0	96	4	2
25	__TextOutMutex	9	0	100	4	14
26	__RLSBmutex0	9	0	104	4	4
27	__PointOutMutex	9	0	108	4	12
28	__CLSCSMutex3	9	0	112	4	2
29	__CLSRMutex1	9	0	116	4	4
30	__CLSWMutex1	9	0	120	4	4
31	__CLSCSMutex2	9	0	124	4	4
32	__CLSRMutex2	9	0	128	4	4
33	__CLSWMutex2	9	0	132	4	4
34	__RLSBmutex1	9	0	136	4	8
35	__D0ballFind	6	1	140	4	15
36	__D0ballCatch	6	1	144	4	25
37	__D0calibration	6	1	148	4	6
38	__D0displayNum	6	1	152	4	3
39	__D0color	6	1	156	4	23
40	__SPTArgsMutex	9	0	160	4	4
41	__RLSBmutex2	9	0	164	4	10
42	__Wait_7qG2_ms_7qG2_000_inline_displayNum	5	1	168	4	2
43	__constValf1000000000000	10	0	172	4	1
44	__Wait_7qG2_ms_7qG2_000_inline_ballCatch	5	1	176	4	4
45	__RLSBmutex3	9	0	180	4	4
46	__constValf0P48	10	0	184	4	1
47	__signed_stack_001turnHeadTo	6	1	188	4	4
48	__Wait_7qG2_ms_7qG2_000_inline_lineFollow	5	1	192	4	4
49	__Wait_7qG2_ms_7qG2_000_inline_mazeNav	5	1	196	4	26
50	__Wait_7qG2_ms_7qG2_000_inline_color	5	1	200	4	2
51	__signed_stack_001turnCheck	6	1	204	4	2
52	__signed_stack_001mazeNav	6	1	208	4	28
53	__signed_stack_001main	6	1	212	4	2
54	__signed_stack_001singleWheelTurn	6	1	216	4	2
55	__signed_stack_001switchDir	6	1	220	4	8
56	__signed_stack_002singleWheelTurn	6	1	224	4	2
57	__constVal100000	6	0	228	4	1
58	__Wait_7qG2_ms_7qG2_000_inline_doubleWheelTurn	5	1	232	4	2
59	__constValf2P5	10	0	236	4	1
60	__constValf4P8	10	0	240	4	1
61	__HTEnhancedIRSeekerV2_7qG2_dcSigSum_7qG2_000	6	1	244	4	8
62	__Wait_7qG2_ms_7qG2_000_inline_singleWheelTurn	5	1	248	4	2
63	__constValf3P35	10	0	252	4	1
64	__constVal203940234	6	0	256	4	3
65	__constVal999999	6	0	260	4	1
66	__constVal42424242	6	0	264	4	1
67	__constValf0P5	10	0	268	4	2
68	__turnHeadTo_7qG2_delta_7qG2_000	6	1	272	4	2
69	__float_stack_001doubleWheelTurn	10	1	276	4	4
70	__signed_stack_001doubleWheelTurn	6	1	280	4	8
71	__float_stack_002doubleWheelTurn	10	1	284	4	4
72	__float_stack_004doubleWheelTurn	10	1	288	4	4
73	__float_stack_003doubleWheelTurn	10	1	292	4	4
74	__signed_stack_002displayNum	6	1	296	4	2
75	__signed_stack_001color	6	1	300	4	10
76	__signed_stack_002calibration	6	1	304	4	12
77	__signed_stack_002color	6	1	308	4	4
78	__signed_stack_001displayNum	6	1	312	4	2
79	__signed_stack_003color	6	1	316	4	2
80	__signed_stack_001driveUpToNotWall	6	1	320	4	4
81	__signed_stack_001lineFollow	6	1	324	4	16
82	__unsigned_stack_002HTEnhancedIRSeekerV2	5	1	328	4	4
83	__signed_stack_002lineFollow	6	1	332	4	14
84	__float_stack_001lineFollow	10	1	336	4	2
85	__signed_stack_003lineFollow	6	1	340	4	4
86	__unsigned_stack_001HTEnhancedIRSeekerV2	5	1	344	4	4
87	__signed_stack_002driveUpToWall	6	1	348	4	4
88	__signed_stack_001driveUpToWall	6	1	352	4	12
89	__signed_stack_001HTEnhancedIRSeekerV2	6	1	356	4	36
90	__signed_stack_003HTEnhancedIRSeekerV2	6	1	360	4	4
91	__signed_stack_002HTEnhancedIRSeekerV2	6	1	364	4	12
92	__CLSCSMutex1	9	0	368	4	4
93	__Wait_7qG2_ms_7qG2_000_inline_calibration	5	1	372	4	12
94	__CLSCSMutex0	9	0	376	4	2
95	__rotate_angle1	6	1	380	4	7
96	__rotate_angle6	6	1	384	4	5
97	__rotate_angle4	6	1	388	4	6
98	__rotate_theAngle1	5	1	392	4	2
99	__rotate_theAngle4	5	1	396	4	2
100	__CLSWMutex0	9	0	400	4	2
101	__rotateMutex0	9	0	404	4	6
102	__CLSRMutex0	9	0	408	4	2
103	__rotate_theAngle6	5	1	412	4	2
104	__rotateMutex2	9	0	416	4	6
105	__rotateMutex1	9	0	420	4	8
106	black	4	1	424	2	6
107	white	4	1	426	2	5
108	__rotate_RotCount1	4	1	428	2	4
109	__constVal500	4	0	430	2	1
110	__rotate_OldRotCount1	4	1	432	2	2
111	__rotate_RotCount6	4	1	434	2	4
112	__ballCatch_7qG2_i_7qG2_002	4	1	436	2	10
113	__constVal200	4	0	438	2	12
114	__rotate_OldRotCount4	4	1	440	2	2
115	__rotate_RotCount4	4	1	442	2	4
116	__rotate_OldRotCount6	4	1	444	2	2
117	lightAvg	4	1	446	2	10
118	__driveUpToWall_7qG2_look_7qG2_000	4	1	448	2	17
119	__driveUpToNotWall_7qG2_look2_7qG2_000	4	1	450	2	7
120	__singleWheelTurn_7qG2_degrees_7qG2_000	4	1	452	2	2
121	__doubleWheelTurn_7qG2_degrees_7qG2_000	4	1	454	2	28
122	__HTEnhancedIRSeekerV2_7qG2_iMax_7qG2_000	4	1	456	2	13
123	__HTEnhancedIRSeekerV2_7qG2_i_7qG2_000	4	1	458	2	11
124	__displayNum_7qG2_n_7qG2_000	4	1	460	2	4
125	__HTEnhancedIRSeekerV2_7qG2_cResp_7qG2_000	4	1	462	2	6
126	__turnHeadTo_7qG2_degrees_7qG2_000	4	1	464	2	8
127	dir	4	0	466	2	27
128	ballAngle	4	1	468	2	2
129	IRdir	4	1	470	2	3
130	strength	4	1	472	2	2
131	__HTEnhancedIRSeekerV2_7qG2_dir_7qG2_000	4	1	474	2	10
132	__HTEnhancedIRSeekerV2_7qG2_strength_7qG2_000	4	1	476	2	8
133	obstDone	4	1	478	2	2
134	mode	4	0	480	2	4
135	__constValNeg180	4	0	482	2	1
136	__HTEnhancedIRSeekerV2_7qG2_port_7qG2_000	1	1	484	1	3
137	__singleWheelTurn_7qG2_motor_7qG2_000	1	1	485	1	2
138	__ResetSensorPort	1	1	486	1	4
139	__constVal5	2	0	487	1	3
140	__constVal4	2	0	488	1	1
141	__constVal6	2	0	489	1	1
142	__constVal15	2	0	490	1	7
143	____ReadLSBytes1_return	1	1	491	1	4
144	__ResetSensorTmp	1	1	492	1	2
145	__SetSensorType_7qG2_type_7qG2_000_inline_SetSensorLight_inline_main	1	1	493	1	2
146	__SetSensorType_7qG2_port_7qG2_000_inline_SetSensorLight_inline_main	1	1	494	1	2
147	__SetSensorMode_7qG2_mode_7qG2_000_inline_SetSensorLight_inline_main	1	1	495	1	2
148	__SetSensorMode_7qG2_port_7qG2_000_inline_SetSensorLight_inline_main	1	1	496	1	2
149	____initialize_global_data_return	1	1	497	1	3
150	____ResetSensorSubroutine_return	1	1	498	1	4
151	__SetSensorLight_7qG2_bActive_7qG2_000_inline_main	1	1	499	1	2
152	__SetSensorLight_7qG2_port_7qG2_000_inline_main	1	1	500	1	4
153	__constVal3	2	0	501	1	11
154	__rotate_thePower1	2	1	502	1	4
155	__rotate_theRVD1	1	1	503	1	4
156	__rotate_rs1	1	1	504	1	2
157	__rotate_power4	1	1	505	1	5
158	__RLSBytesCount2	1	1	506	1	9
159	__RLSBResult2	2	1	507	1	7
160	__rotate_theTurnPct1	2	1	508	1	4
161	__rotate_theRVI1	1	1	509	1	4
162	__RLSBIterations1	1	1	510	1	4
163	__displayNum_return	1	1	511	1	5
164	__RLSBResult1	2	1	512	1	7
165	__RLSBytesCount1	1	1	513	1	8
166	__rotate_theRS1	1	1	514	1	3
167	__rotate_theRVP1	1	1	515	1	4
168	____ReadLSBytes2_return	1	1	516	1	5
169	__rotate_theRM1	1	1	517	1	4
170	__rotate_firstPort1	1	1	518	1	5
171	__rotate_sync1	1	1	519	1	4
172	__constValNeg30	2	0	520	1	1
173	__singleWheelTurn_return	1	1	521	1	3
174	__ballCatch_return	1	1	522	1	7
175	__ballFind_return	1	1	523	1	14
176	__rotate_stop1	1	1	524	1	4
177	__driveUpToNotWall_return	1	1	525	1	8
178	__turnHeadTo_return	1	1	526	1	9
179	__constVal45	2	0	527	1	1
180	__HTEnhancedIRSeekerV2_return	1	1	528	1	3
181	__HTEnhancedIRSeekerV2_7qG2_fSuccess_7qG2_000	1	1	529	1	2
182	__constVal67	2	0	530	1	1
183	__rotate_power1	1	1	531	1	6
184	__switchDir_return	1	1	532	1	3
185	__constValNeg1	2	0	533	1	3
186	__turnCheck_return	1	1	534	1	6
187	__constValNeg90	2	0	535	1	14
188	__SetSensorMode_7qG2_mode_7qG2_000_inline_SetSensorLowspeed_inline_SetSensorUltrasonic_inline_main	1	1	536	1	2
189	__SetSensorMode_7qG2_port_7qG2_000_inline_SetSensorLowspeed_inline_SetSensorUltrasonic_inline_main	1	1	537	1	2
190	__SetSensorType_7qG2_type_7qG2_000_inline_main	1	1	538	1	4
191	__SetSensorType_7qG2_port_7qG2_000_inline_main	1	1	539	1	4
192	__SetSensorLowspeed_7qG2_bIsPowered_7qG2_000_inline_SetSensorUltrasonic_inline_main	1	1	540	1	2
193	__SetSensorLowspeed_7qG2_port_7qG2_000_inline_SetSensorUltrasonic_inline_main	1	1	541	1	4
194	__SetSensorType_7qG2_type_7qG2_000_inline_SetSensorLowspeed_inline_SetSensorUltrasonic_inline_main	1	1	542	1	2
195	__SetSensorType_7qG2_port_7qG2_000_inline_SetSensorLowspeed_inline_SetSensorUltrasonic_inline_main	1	1	543	1	2
196	__calibration_return	1	1	544	1	3
197	__rotate_theUF1	1	1	545	1	6
198	__constVal60	2	0	546	1	18
199	__driveUpToWall_return	1	1	547	1	15
200	__rotate_turnpct1	2	1	548	1	5
201	__constVal96	2	0	549	1	31
202	__doubleWheelTurn_return	1	1	550	1	26
203	__rotate_theOM1	1	1	551	1	7
204	__constVal63	2	0	552	1	25
205	__rotate_thePower6	2	1	553	1	4
206	__zfdriveUpToNotWall	1	1	554	1	2
207	__RLSBResultVar	2	1	555	1	9
208	__zfdriveUpToWall	1	1	556	1	16
209	__RLSBytesCountVar	1	1	557	1	10
210	__constVal32	2	0	558	1	90
211	__constVal1	2	0	559	1	41
212	__rotate_theTurnPct6	2	1	560	1	4
213	__zfdoubleWheelTurn	1	1	561	1	6
214	__zfmazeNav	1	1	562	1	14
215	__rotate_theRVI6	1	1	563	1	2
216	__rotate_theRS6	1	1	564	1	3
217	__rotate_theRVP6	1	1	565	1	2
218	__rotate_theRVD6	1	1	566	1	2
219	__zfHTEnhancedIRSeekerV2	1	1	567	1	33
220	____RotateMotor6_return	1	1	568	1	3
221	__zflineFollow	1	1	569	1	19
222	__rotate_rs6	1	1	570	1	10
223	__RLSBIterationsVar	1	1	571	1	4
224	__constValNeg5	2	0	572	1	1
225	__constVal16	2	0	573	1	1
226	__ArrHelper__HTEnhancedIRSeekerV2_98_0	1	1	574	1	25
227	____RotateMotor4_sign_tmp	2	1	575	1	4
228	__constVal7	2	0	576	1	16
229	__constVal100	2	0	577	1	2
230	__RLSReadPort	1	1	578	1	5
231	__PFTmp	1	1	579	1	1
232	__constValNeg100	2	0	580	1	1
233	__constVal50	2	0	581	1	3
234	__constValNeg91	2	0	582	1	1
235	__constVal0	2	1	583	1	91
236	__zfcolor	1	1	584	1	13
237	____RotateMotor1_return	1	1	585	1	5
238	__zfballCatch	1	1	586	1	18
239	____RotateMotor4_return	1	1	587	1	4
240	__zfballFind	1	1	588	1	3
241	____RotateMotor1_sign_tmp	2	1	589	1	4
242	__rotate_rs4	1	1	590	1	2
243	__RLSBIterations2	1	1	591	1	4
244	__rotate_theRVI4	1	1	592	1	3
245	__rotate_theRVD4	1	1	593	1	3
246	____RotateMotorVar_return	1	1	594	1	3
247	__rotate_theTurnPct4	2	1	595	1	4
248	__rotate_power6	1	1	596	1	4
249	__rotate_thePower4	2	1	597	1	4
250	__constVal2	2	0	598	1	27
251	__rotate_stop4	1	1	599	1	3
252	__rotate_turnpct4	2	1	600	1	4
253	__rotate_firstPort4	1	1	601	1	5
254	__rotate_sync4	1	1	602	1	3
255	__rotate_theUF4	1	1	603	1	6
256	__rotate_theRS4	1	1	604	1	3
257	__rotate_theRVP4	1	1	605	1	3
258	__rotate_theOM4	1	1	606	1	7
259	__rotate_theRM4	1	1	607	1	4
260	__rotate_turnpct6	2	1	608	1	3
261	__zfswitchDir	1	1	609	1	6
262	__zfSetSensorLight_inline_main	1	1	610	1	2
263	__rotate_theUF6	1	1	611	1	6
264	__rotate_theOM6	1	1	612	1	7
265	__zfturnCheck	1	1	613	1	3
266	__rotate_theRM6	1	1	614	1	4
267	__rotate_firstPort6	1	1	615	1	5
268	__zfSetSensorLowspeed_inline_SetSensorUltrasonic	1	1	616	1	2
269	____RotateMotor6_sign_tmp	2	1	617	1	4
270	____ReadLSBytesVar_return	1	1	618	1	4
271	__rotate_stop6	1	1	619	1	2
272	__rotate_sync6	1	1	620	1	2
273	__CLSRArgs0	8	0	4	12	5
274	__CLSRArgs0.Result	2	1	624	1	5
275	__CLSRArgs0.Port	1	1	625	1	5
276	__CLSRArgs0.Buffer	7	0	626	4	5
277	__CLSRArgs0.Buffer.Buffer_type	1	0	0	1	0
278	__CLSRArgs0.BufferLen	1	1	628	1	5
279	__CLSCSArgs1	8	0	3	4	4
280	__CLSCSArgs1.Result	2	1	632	1	4
281	__CLSCSArgs1.Port	1	1	633	1	4
282	__CLSCSArgs1.BytesReady	1	1	634	1	4
283	__CLSCSArgs2	8	0	3	4	4
284	__CLSCSArgs2.Result	2	1	636	1	4
285	__CLSCSArgs2.Port	1	1	637	1	4
286	__CLSCSArgs2.BytesReady	1	1	638	1	4
287	__CLSRArgs1	8	0	4	12	5
288	__CLSRArgs1.Result	2	1	640	1	5
289	__CLSRArgs1.Port	1	1	641	1	5
290	__CLSRArgs1.Buffer	7	0	642	4	5
291	__CLSRArgs1.Buffer.Buffer_type	1	0	0	1	0
292	__CLSRArgs1.BufferLen	1	1	644	1	5
293	__CLSWArgs1	8	0	4	12	5
294	__CLSWArgs1.Result	2	1	648	1	5
295	__CLSWArgs1.Port	1	1	649	1	5
296	__CLSWArgs1.Buffer	7	0	650	4	5
297	__CLSWArgs1.Buffer.Buffer_type	1	0	0	1	0
298	__CLSWArgs1.ReturnLen	1	1	652	1	5
299	__CLSWArgs2	8	0	4	12	5
300	__CLSWArgs2.Result	2	1	656	1	5
301	__CLSWArgs2.Port	1	1	657	1	5
302	__CLSWArgs2.Buffer	7	0	658	4	5
303	__CLSWArgs2.Buffer.Buffer_type	1	0	0	1	0
304	__CLSWArgs2.ReturnLen	1	1	660	1	5
305	__SPTArgs	8	0	5	8	12
306	__SPTArgs.Result	2	1	664	1	12
307	__SPTArgs.Frequency	3	1	666	2	12
308	__SPTArgs.Duration	3	1	668	2	12
309	__SPTArgs.Loop	1	1	670	1	12
310	__SPTArgs.Volume	1	1	671	1	12
311	__CLSRArgs2	8	0	4	12	5
312	__CLSRArgs2.Result	2	1	672	1	5
313	__CLSRArgs2.Port	1	1	673	1	5
314	__CLSRArgs2.Buffer	7	0	674	4	5
315	__CLSRArgs2.Buffer.Buffer_type	1	0	0	1	0
316	__CLSRArgs2.BufferLen	1	1	676	1	5
317	__PointOutArgs	8	0	3	12	24
318	__PointOutArgs.Result	2	1	680	1	24
319	__PointOutArgs.Location	8	0	2	4	24
320	__PointOutArgs.Location.X	4	1	684	2	24
321	__PointOutArgs.Location.Y	4	1	686	2	24
322	__PointOutArgs.Options	5	1	688	4	24
323	__TextOutArgs	8	0	4	16	42
324	__TextOutArgs.Result	2	1	692	1	42
325	__TextOutArgs.Location	8	0	2	4	42
326	__TextOutArgs.Location.X	4	1	696	2	42
327	__TextOutArgs.Location.Y	4	1	698	2	42
328	__TextOutArgs.Text	7	0	700	4	42
329	__TextOutArgs.Text.Text_type	1	0	0	1	0
330	__TextOutArgs.Options	5	1	704	4	42
331	__CLSWArgs0	8	0	4	12	5
332	__CLSWArgs0.Result	2	1	708	1	5
333	__CLSWArgs0.Port	1	1	709	1	5
334	__CLSWArgs0.Buffer	7	0	710	4	5
335	__CLSWArgs0.Buffer.Buffer_type	1	0	0	1	0
336	__CLSWArgs0.ReturnLen	1	1	712	1	5
337	__CLSCSArgs0	8	0	3	4	4
338	__CLSCSArgs0.Result	2	1	716	1	4
339	__CLSCSArgs0.Port	1	1	717	1	4
340	__CLSCSArgs0.BytesReady	1	1	718	1	4
341	__constStr0009	7	0	720	4	1
342	__constStr0009.__constStr0009_type	1	1	0	1	0
343	__constStr0010	7	0	722	4	1
344	__constStr0010.__constStr0010_type	1	1	0	1	0
345	__constStr0013	7	0	724	4	1
346	__constStr0013.__constStr0013_type	1	1	0	1	0
347	__constStr0014	7	0	726	4	1
348	__constStr0014.__constStr0014_type	1	1	0	1	0
349	__constStr0011	7	0	728	4	1
350	__constStr0011.__constStr0011_type	1	1	0	1	0
351	__constStr0012	7	0	730	4	1
352	__constStr0012.__constStr0012_type	1	1	0	1	0
353	__rotate_ports6	7	0	732	4	12
354	__rotate_ports6.__rotate_ports6_type	1	0	0	1	0
355	__rotate_ports4	7	0	734	4	7
356	__rotate_ports4.__rotate_ports4_type	1	0	0	1	0
357	__RLSLastGoodRead1	7	0	736	4	2
358	__RLSLastGoodRead1.__RLSLastGoodRead1_type	1	0	0	1	0
359	__RLSBbufLSWrite1	7	0	738	4	5
360	__RLSBbufLSWrite1.__RLSBbufLSWrite1_type	1	0	0	1	0
361	__rotate_ports1	7	0	740	4	8
362	__rotate_ports1.__rotate_ports1_type	1	0	0	1	0
363	__OUT_AC	7	0	742	4	22
364	__OUT_AC.__OUT_AC_type	1	0	0	1	0
365	__OUT_AB	7	0	744	4	1
366	__OUT_AB.__OUT_AB_type	1	0	0	1	0
367	__OUT_ABC	7	0	746	4	1
368	__OUT_ABC.__OUT_ABC_type	1	0	0	1	0
369	__OUT_BC	7	0	748	4	1
370	__OUT_BC.__OUT_BC_type	1	0	0	1	0
371	__RLSReadBuf1	7	0	750	4	10
372	__RLSReadBuf1.__RLSReadBuf1_type	1	0	0	1	0
373	__strretvaldisplayNum	7	0	752	4	2
374	__strretvaldisplayNum.__strretvaldisplayNum_type	1	0	0	1	0
375	__strbufdisplayNum	7	0	754	4	2
376	__strbufdisplayNum.__strbufdisplayNum_type	1	0	0	1	0
377	__HTEnhancedIRSeekerV2_7qG2_respBuf_7qG2_000	7	0	756	4	14
378	__HTEnhancedIRSeekerV2_7qG2_respBuf_7qG2_000.__HTEnhancedIRSeekerV2_7qG2_respBuf_7qG2_000_type	1	0	0	1	0
379	__HTEnhancedIRSeekerV2_7qG2_cmdBuf_7qG2_000	7	0	758	4	5
380	__HTEnhancedIRSeekerV2_7qG2_cmdBuf_7qG2_000.__HTEnhancedIRSeekerV2_7qG2_cmdBuf_7qG2_000_type	1	0	0	1	0
381	__strbufcalibration	7	0	760	4	12
382	__strbufcalibration.__strbufcalibration_type	1	0	0	1	0
383	__RLSReadBuf2	7	0	762	4	12
384	__RLSReadBuf2.__RLSReadBuf2_type	1	0	0	1	0
385	__RLSLastGoodRead2	7	0	764	4	2
386	__RLSLastGoodRead2.__RLSLastGoodRead2_type	1	0	0	1	0
387	__RLSReadBufVar	7	0	766	4	10
388	__RLSReadBufVar.__RLSReadBufVar_type	1	0	0	1	0
389	__RLSLastGoodReadVar	7	0	768	4	2
390	__RLSLastGoodReadVar.__RLSLastGoodReadVar_type	1	0	0	1	0
#SOURCES
Clump	Line	PC	Source
0	47	0	#line 47 "C:\Users\Lshi\Documents\Extracurriculars\Gov School\Robotics\GSET_Robotics\Maze\409_Maze_Test.nxc"
0	48	0		subcall __initialize_global_data, ____initialize_global_data_return
0	47	2	#line 47 "C:\Users\Lshi\Documents\Extracurriculars\Gov School\Robotics\GSET_Robotics\Maze\409_Maze_Test.nxc"
0	48	2	#line 48 "C:\Users\Lshi\Documents\Extracurriculars\Gov School\Robotics\GSET_Robotics\Maze\409_Maze_Test.nxc"
0	49	2		set black, 19
0	48	5	#line 48 "C:\Users\Lshi\Documents\Extracurriculars\Gov School\Robotics\GSET_Robotics\Maze\409_Maze_Test.nxc"
0	48	5	#line 48 "C:\Users\Lshi\Documents\Extracurriculars\Gov School\Robotics\GSET_Robotics\Maze\409_Maze_Test.nxc"
0	49	5	#line 49 "C:\Users\Lshi\Documents\Extracurriculars\Gov School\Robotics\GSET_Robotics\Maze\409_Maze_Test.nxc"
0	50	5		set white, 45
0	49	8	#line 49 "C:\Users\Lshi\Documents\Extracurriculars\Gov School\Robotics\GSET_Robotics\Maze\409_Maze_Test.nxc"
0	49	8	#line 49 "C:\Users\Lshi\Documents\Extracurriculars\Gov School\Robotics\GSET_Robotics\Maze\409_Maze_Test.nxc"
0	49	8	#line 49 "C:\Users\Lshi\Documents\Extracurriculars\Gov School\Robotics\GSET_Robotics\Maze\409_Maze_Test.nxc"
0	49	8	#line 49 "C:\Users\Lshi\Documents\Extracurriculars\Gov School\Robotics\GSET_Robotics\Maze\409_Maze_Test.nxc"
0	49	8	#line 49 "C:\Users\Lshi\Documents\Extracurriculars\Gov School\Robotics\GSET_Robotics\Maze\409_Maze_Test.nxc"
0	49	8	#line 49 "C:\Users\Lshi\Documents\Extracurriculars\Gov School\Robotics\GSET_Robotics\Maze\409_Maze_Test.nxc"
0	50	8		add __signed_stack_001main, black, __constVal45
0	49	12	#line 49 "C:\Users\Lshi\Documents\Extracurriculars\Gov School\Robotics\GSET_Robotics\Maze\409_Maze_Test.nxc"
0	50	12	#line 50 "C:\Users\Lshi\Documents\Extracurriculars\Gov School\Robotics\GSET_Robotics\Maze\409_Maze_Test.nxc"
0	50	12	#line 50 "C:\Users\Lshi\Documents\Extracurriculars\Gov School\Robotics\GSET_Robotics\Maze\409_Maze_Test.nxc"
0	51	12		div lightAvg, __signed_stack_001main, __constVal2
0	50	16	#line 50 "C:\Users\Lshi\Documents\Extracurriculars\Gov School\Robotics\GSET_Robotics\Maze\409_Maze_Test.nxc"
0	50	16	#line 50 "C:\Users\Lshi\Documents\Extracurriculars\Gov School\Robotics\GSET_Robotics\Maze\409_Maze_Test.nxc"
0	50	16	#line 50 "C:\Users\Lshi\Documents\Extracurriculars\Gov School\Robotics\GSET_Robotics\Maze\409_Maze_Test.nxc"
0	51	16		set __SetSensorLight_7qG2_port_7qG2_000_inline_main, 0
0	50	19	#line 50 "C:\Users\Lshi\Documents\Extracurriculars\Gov School\Robotics\GSET_Robotics\Maze\409_Maze_Test.nxc"
0	50	19	#line 50 "C:\Users\Lshi\Documents\Extracurriculars\Gov School\Robotics\GSET_Robotics\Maze\409_Maze_Test.nxc"
0	51	19		set __SetSensorLight_7qG2_bActive_7qG2_000_inline_main, 1
0	50	22	#line 50 "C:\Users\Lshi\Documents\Extracurriculars\Gov School\Robotics\GSET_Robotics\Maze\409_Maze_Test.nxc"
0	3729	22	#line 3729 "NXCDefs.h"
0	3730	22		mov __SetSensorType_7qG2_port_7qG2_000_inline_SetSensorLight_inline_main, __SetSensorLight_7qG2_port_7qG2_000_inline_main
0	3729	24	#line 3729 "NXCDefs.h"
0	3729	24	#line 3729 "NXCDefs.h"
0	3730	24		mov __DU0SetSensorLight_inline_main, __SetSensorLight_7qG2_bActive_7qG2_000_inline_main
0	3729	27	#line 3729 "NXCDefs.h"
0	3730	27		tst 5, __zfSetSensorLight_inline_main, __DU0SetSensorLight_inline_main
0	3729	30	#line 3729 "NXCDefs.h"
0	3730	30		brtst 4, __001__NXC_Label_4, __zfSetSensorLight_inline_main
0	3729	33	#line 3729 "NXCDefs.h"
0	3730	33		set __D0SetSensorLight_inline_main, 5
0	3729	36	#line 3729 "NXCDefs.h"
0	3730	36		jmp __001__NXC_Label_5
0	3729	38	#line 3729 "NXCDefs.h"
0	3730	38		set __D0SetSensorLight_inline_main, 6
0	3729	41	#line 3729 "NXCDefs.h"
0	3730	41		mov __SetSensorType_7qG2_type_7qG2_000_inline_SetSensorLight_inline_main, __D0SetSensorLight_inline_main
0	3663	43	#line 3663 "NXCDefs.h"
0	3664	43		setin __SetSensorType_7qG2_type_7qG2_000_inline_SetSensorLight_inline_main, __SetSensorType_7qG2_port_7qG2_000_inline_SetSensorLight_inline_main, 0
0	3663	47	#line 3663 "NXCDefs.h"
0	3730	47	#line 3730 "NXCDefs.h"
0	3730	47	#line 3730 "NXCDefs.h"
0	3731	47		mov __SetSensorMode_7qG2_port_7qG2_000_inline_SetSensorLight_inline_main, __SetSensorLight_7qG2_port_7qG2_000_inline_main
0	3730	49	#line 3730 "NXCDefs.h"
0	3730	49	#line 3730 "NXCDefs.h"
0	3731	49		set __SetSensorMode_7qG2_mode_7qG2_000_inline_SetSensorLight_inline_main, 128
0	3730	52	#line 3730 "NXCDefs.h"
0	3676	52	#line 3676 "NXCDefs.h"
0	3677	52		setin __SetSensorMode_7qG2_mode_7qG2_000_inline_SetSensorLight_inline_main, __SetSensorMode_7qG2_port_7qG2_000_inline_SetSensorLight_inline_main, 1
0	3676	56	#line 3676 "NXCDefs.h"
0	3731	56	#line 3731 "NXCDefs.h"
0	3731	56	#line 3731 "NXCDefs.h"
0	3731	56	#line 3731 "NXCDefs.h"
0	3694	56	#line 3694 "NXCDefs.h"
0	3695	56	#pragma macro 4
0	3695	56		mov __ResetSensorPort, __SetSensorLight_7qG2_port_7qG2_000_inline_main
0	3695	58		subcall __ResetSensorSubroutine, ____ResetSensorSubroutine_return
0	5418	61	#line 5418 "NXCDefs.h"
0	3694	61	#line 3694 "NXCDefs.h"
0	3732	61	#line 3732 "NXCDefs.h"
0	51	61	#line 51 "C:\Users\Lshi\Documents\Extracurriculars\Gov School\Robotics\GSET_Robotics\Maze\409_Maze_Test.nxc"
0	51	61	#line 51 "C:\Users\Lshi\Documents\Extracurriculars\Gov School\Robotics\GSET_Robotics\Maze\409_Maze_Test.nxc"
0	51	61	#line 51 "C:\Users\Lshi\Documents\Extracurriculars\Gov School\Robotics\GSET_Robotics\Maze\409_Maze_Test.nxc"
0	3768	61	#line 3768 "NXCDefs.h"
0	3769	61		mov __SetSensorLowspeed_7qG2_port_7qG2_000_inline_SetSensorUltrasonic_inline_main, __constVal1
0	3768	63	#line 3768 "NXCDefs.h"
0	3768	63	#line 3768 "NXCDefs.h"
0	3769	63		mov __SetSensorLowspeed_7qG2_bIsPowered_7qG2_000_inline_SetSensorUltrasonic_inline_main, __constVal1
0	3758	65	#line 3758 "NXCDefs.h"
0	3759	65		mov __SetSensorType_7qG2_port_7qG2_000_inline_SetSensorLowspeed_inline_SetSensorUltrasonic_inline_main, __SetSensorLowspeed_7qG2_port_7qG2_000_inline_SetSensorUltrasonic_inline_main
0	3758	67	#line 3758 "NXCDefs.h"
0	3758	67	#line 3758 "NXCDefs.h"
0	3759	67		mov __DU0SetSensorLowspeed_inline_SetSensorUltrasonic, __SetSensorLowspeed_7qG2_bIsPowered_7qG2_000_inline_SetSensorUltrasonic_inline_main
0	3758	70	#line 3758 "NXCDefs.h"
0	3759	70		tst 5, __zfSetSensorLowspeed_inline_SetSensorUltrasonic, __DU0SetSensorLowspeed_inline_SetSensorUltrasonic
0	3758	73	#line 3758 "NXCDefs.h"
0	3759	73		brtst 4, __001__001__NXC_Label_36, __zfSetSensorLowspeed_inline_SetSensorUltrasonic
0	3758	76	#line 3758 "NXCDefs.h"
0	3759	76		set __D0SetSensorLowspeed_inline_SetSensorUltrasonic, 11
0	3758	79	#line 3758 "NXCDefs.h"
0	3759	79		jmp __001__001__NXC_Label_37
0	3758	81	#line 3758 "NXCDefs.h"
0	3759	81		set __D0SetSensorLowspeed_inline_SetSensorUltrasonic, 10
0	3758	84	#line 3758 "NXCDefs.h"
0	3759	84		mov __SetSensorType_7qG2_type_7qG2_000_inline_SetSensorLowspeed_inline_SetSensorUltrasonic_inline_main, __D0SetSensorLowspeed_inline_SetSensorUltrasonic
0	3663	87	#line 3663 "NXCDefs.h"
0	3664	87		setin __SetSensorType_7qG2_type_7qG2_000_inline_SetSensorLowspeed_inline_SetSensorUltrasonic_inline_main, __SetSensorType_7qG2_port_7qG2_000_inline_SetSensorLowspeed_inline_SetSensorUltrasonic_inline_main, 0
0	3663	91	#line 3663 "NXCDefs.h"
0	3759	91	#line 3759 "NXCDefs.h"
0	3759	91	#line 3759 "NXCDefs.h"
0	3760	91		mov __SetSensorMode_7qG2_port_7qG2_000_inline_SetSensorLowspeed_inline_SetSensorUltrasonic_inline_main, __SetSensorLowspeed_7qG2_port_7qG2_000_inline_SetSensorUltrasonic_inline_main
0	3759	93	#line 3759 "NXCDefs.h"
0	3759	93	#line 3759 "NXCDefs.h"
0	3760	93		set __SetSensorMode_7qG2_mode_7qG2_000_inline_SetSensorLowspeed_inline_SetSensorUltrasonic_inline_main, 0
0	3759	96	#line 3759 "NXCDefs.h"
0	3676	96	#line 3676 "NXCDefs.h"
0	3677	96		setin __SetSensorMode_7qG2_mode_7qG2_000_inline_SetSensorLowspeed_inline_SetSensorUltrasonic_inline_main, __SetSensorMode_7qG2_port_7qG2_000_inline_SetSensorLowspeed_inline_SetSensorUltrasonic_inline_main, 1
0	3676	100	#line 3676 "NXCDefs.h"
0	3760	100	#line 3760 "NXCDefs.h"
0	3760	100	#line 3760 "NXCDefs.h"
0	3760	100	#line 3760 "NXCDefs.h"
0	3694	100	#line 3694 "NXCDefs.h"
0	3695	100	#pragma macro 4
0	3695	100		mov __ResetSensorPort, __SetSensorLowspeed_7qG2_port_7qG2_000_inline_SetSensorUltrasonic_inline_main
0	3695	102		subcall __ResetSensorSubroutine, ____ResetSensorSubroutine_return
0	5523	105	#line 5523 "NXCDefs.h"
0	3694	105	#line 3694 "NXCDefs.h"
0	3761	105	#line 3761 "NXCDefs.h"
0	3768	105	#line 3768 "NXCDefs.h"
0	52	105	#line 52 "C:\Users\Lshi\Documents\Extracurriculars\Gov School\Robotics\GSET_Robotics\Maze\409_Maze_Test.nxc"
0	52	105	#line 52 "C:\Users\Lshi\Documents\Extracurriculars\Gov School\Robotics\GSET_Robotics\Maze\409_Maze_Test.nxc"
0	53	105		set __SetSensorType_7qG2_port_7qG2_000_inline_main, 2
0	52	108	#line 52 "C:\Users\Lshi\Documents\Extracurriculars\Gov School\Robotics\GSET_Robotics\Maze\409_Maze_Test.nxc"
0	52	108	#line 52 "C:\Users\Lshi\Documents\Extracurriculars\Gov School\Robotics\GSET_Robotics\Maze\409_Maze_Test.nxc"
0	53	108		set __SetSensorType_7qG2_type_7qG2_000_inline_main, 10
0	52	111	#line 52 "C:\Users\Lshi\Documents\Extracurriculars\Gov School\Robotics\GSET_Robotics\Maze\409_Maze_Test.nxc"
0	3663	111	#line 3663 "NXCDefs.h"
0	3664	111		setin __SetSensorType_7qG2_type_7qG2_000_inline_main, __SetSensorType_7qG2_port_7qG2_000_inline_main, 0
0	3663	115	#line 3663 "NXCDefs.h"
0	53	115	#line 53 "C:\Users\Lshi\Documents\Extracurriculars\Gov School\Robotics\GSET_Robotics\Maze\409_Maze_Test.nxc"
0	53	115	#line 53 "C:\Users\Lshi\Documents\Extracurriculars\Gov School\Robotics\GSET_Robotics\Maze\409_Maze_Test.nxc"
0	54	115		set __SetSensorType_7qG2_port_7qG2_000_inline_main, 3
0	53	118	#line 53 "C:\Users\Lshi\Documents\Extracurriculars\Gov School\Robotics\GSET_Robotics\Maze\409_Maze_Test.nxc"
0	53	118	#line 53 "C:\Users\Lshi\Documents\Extracurriculars\Gov School\Robotics\GSET_Robotics\Maze\409_Maze_Test.nxc"
0	54	118		set __SetSensorType_7qG2_type_7qG2_000_inline_main, 10
0	53	121	#line 53 "C:\Users\Lshi\Documents\Extracurriculars\Gov School\Robotics\GSET_Robotics\Maze\409_Maze_Test.nxc"
0	3663	121	#line 3663 "NXCDefs.h"
0	3664	121		setin __SetSensorType_7qG2_type_7qG2_000_inline_main, __SetSensorType_7qG2_port_7qG2_000_inline_main, 0
0	3663	125	#line 3663 "NXCDefs.h"
0	54	125	#line 54 "C:\Users\Lshi\Documents\Extracurriculars\Gov School\Robotics\GSET_Robotics\Maze\409_Maze_Test.nxc"
0	66	125	#line 66 "C:\Users\Lshi\Documents\Extracurriculars\Gov School\Robotics\GSET_Robotics\Maze\409_Maze_Test.nxc"
0	67	125		subcall calibration, __calibration_return
0	66	128	#line 66 "C:\Users\Lshi\Documents\Extracurriculars\Gov School\Robotics\GSET_Robotics\Maze\409_Maze_Test.nxc"
0	67	128	#line 67 "C:\Users\Lshi\Documents\Extracurriculars\Gov School\Robotics\GSET_Robotics\Maze\409_Maze_Test.nxc"
0	68	128		set mode, 1
0	67	131	#line 67 "C:\Users\Lshi\Documents\Extracurriculars\Gov School\Robotics\GSET_Robotics\Maze\409_Maze_Test.nxc"
0	67	131	#line 67 "C:\Users\Lshi\Documents\Extracurriculars\Gov School\Robotics\GSET_Robotics\Maze\409_Maze_Test.nxc"
0	68	131	#line 68 "C:\Users\Lshi\Documents\Extracurriculars\Gov School\Robotics\GSET_Robotics\Maze\409_Maze_Test.nxc"
0	68	131	#line 68 "C:\Users\Lshi\Documents\Extracurriculars\Gov School\Robotics\GSET_Robotics\Maze\409_Maze_Test.nxc"
0	69	131		exit 0, 1
1	4529	0		brtst 4, __rotate_Done1, __rotate_angle1
1	4530	3		set ____RotateMotor1_sign_tmp, 0
1	4530	6		brtst EQ, __sign_1, __rotate_angle1
1	4530	9		set ____RotateMotor1_sign_tmp, -1
1	4530	12		brtst LT, __sign_1, __rotate_angle1
1	4530	15		set ____RotateMotor1_sign_tmp, 1
1	4530	18	__sign_1:	mov __rotate_thePower1, ____RotateMotor1_sign_tmp
1	4531	20		abs __rotate_theAngle1, __rotate_angle1
1	4532	23		mul __rotate_thePower1, __rotate_thePower1, __rotate_power1
1	4534	27		set __rotate_theUF1, 23
1	4535	30		brtst 4, __rotate_NoSync1, __rotate_sync1
1	4536	33		set __rotate_theOM1, 7
1	4537	36		set __rotate_theRM1, 2
1	4538	39		mov __rotate_theTurnPct1, __rotate_turnpct1
1	4539	41		brtst 4, __rotate_Start1, __rotate_theTurnPct1
1	4540	44		add __rotate_theUF1, __rotate_theUF1, __constVal32
1	4541	48		jmp __rotate_Start1
1	4543	50		set __rotate_theOM1, 3
1	4544	53		set __rotate_theRM1, 0
1	4545	56		set __rotate_theTurnPct1, 0
1	4547	59		set __rotate_theRS1, 32
1	4548	62		setout __rotate_ports1, 1, __rotate_theOM1, 8, __rotate_theRM1, 5, __rotate_theAngle1, 6, __rotate_theRS1, 10, __rotate_theRVP1, 11, __rotate_theRVI1, 12, __rotate_theRVD1, 2, __rotate_thePower1, 7, __rotate_turnpct1, 0, __rotate_theUF1
1	4551	85		index __rotate_firstPort1, __rotate_ports1, 65535
1	4553	89		getout __rotate_power1, __rotate_firstPort1, 2
1	4554	93		brtst 4, __rotate_doneRunning1, __rotate_power1
1	4555	96		getout __rotate_rs1, __rotate_firstPort1, 6
1	4556	100		brcmp 4, __rotate_Running1, __rotate_rs1, __constVal32
1	4558	104		brtst 4, __rotate_Reset1, __rotate_stop1
1	4560	107		set __rotate_theOM1, 7
1	4561	110		set __rotate_theUF1, 7
1	4562	113		setout __rotate_ports1, 1, __rotate_theOM1, 8, __constVal1, 6, __rotate_theRS1, 2, __constVal0, 5, __constVal0, 0, __rotate_theUF1
1	4564	128		getout __rotate_RotCount1, __rotate_firstPort1, 14
1	4566	132		mov __rotate_OldRotCount1, __rotate_RotCount1
1	4567	134		wait2 NA, __constVal50
1	4569	137		getout __rotate_RotCount1, __rotate_firstPort1, 14
1	4570	141		brcmp 5, __rotate_Stabilize1, __rotate_OldRotCount1, __rotate_RotCount1
1	4571	145		set __rotate_theOM1, 4
1	4572	148		setout __rotate_ports1, 8, __rotate_theRM1, 6, __constVal0, 1, __rotate_theOM1, 0, __constVal1
1	4575	159		brtst 4, __rotate_Done1, __rotate_theTurnPct1
1	4576	162		setout __rotate_ports1, 0, __constVal32
1	4578	167		subret ____RotateMotor1_return
2	4688	0		brtst 4, __rotate_Done4, __rotate_angle4
2	4689	3		set ____RotateMotor4_sign_tmp, 0
2	4689	6		brtst EQ, __sign_4, __rotate_angle4
2	4689	9		set ____RotateMotor4_sign_tmp, -1
2	4689	12		brtst LT, __sign_4, __rotate_angle4
2	4689	15		set ____RotateMotor4_sign_tmp, 1
2	4689	18	__sign_4:	mov __rotate_thePower4, ____RotateMotor4_sign_tmp
2	4690	20		abs __rotate_theAngle4, __rotate_angle4
2	4691	23		mul __rotate_thePower4, __rotate_thePower4, __rotate_power4
2	4693	27		set __rotate_theUF4, 23
2	4694	30		brtst 4, __rotate_NoSync4, __rotate_sync4
2	4695	33		set __rotate_theOM4, 7
2	4696	36		set __rotate_theRM4, 2
2	4697	39		mov __rotate_theTurnPct4, __rotate_turnpct4
2	4698	41		brtst 4, __rotate_Start4, __rotate_theTurnPct4
2	4699	44		add __rotate_theUF4, __rotate_theUF4, __constVal32
2	4700	48		jmp __rotate_Start4
2	4702	50		set __rotate_theOM4, 3
2	4703	53		set __rotate_theRM4, 0
2	4704	56		set __rotate_theTurnPct4, 0
2	4706	59		set __rotate_theRS4, 32
2	4707	62		setout __rotate_ports4, 1, __rotate_theOM4, 8, __rotate_theRM4, 5, __rotate_theAngle4, 6, __rotate_theRS4, 10, __rotate_theRVP4, 11, __rotate_theRVI4, 12, __rotate_theRVD4, 2, __rotate_thePower4, 7, __rotate_turnpct4, 0, __rotate_theUF4
2	4710	85		index __rotate_firstPort4, __rotate_ports4, 65535
2	4712	89		getout __rotate_power4, __rotate_firstPort4, 2
2	4713	93		brtst 4, __rotate_doneRunning4, __rotate_power4
2	4714	96		getout __rotate_rs4, __rotate_firstPort4, 6
2	4715	100		brcmp 4, __rotate_Running4, __rotate_rs4, __constVal32
2	4717	104		brtst 4, __rotate_Reset4, __rotate_stop4
2	4719	107		set __rotate_theOM4, 7
2	4720	110		set __rotate_theUF4, 7
2	4721	113		setout __rotate_ports4, 1, __rotate_theOM4, 8, __constVal1, 6, __rotate_theRS4, 2, __constVal0, 5, __constVal0, 0, __rotate_theUF4
2	4723	128		getout __rotate_RotCount4, __rotate_firstPort4, 14
2	4725	132		mov __rotate_OldRotCount4, __rotate_RotCount4
2	4726	134		wait2 NA, __constVal50
2	4728	137		getout __rotate_RotCount4, __rotate_firstPort4, 14
2	4729	141		brcmp 5, __rotate_Stabilize4, __rotate_OldRotCount4, __rotate_RotCount4
2	4730	145		set __rotate_theOM4, 4
2	4731	148		setout __rotate_ports4, 8, __rotate_theRM4, 6, __constVal0, 1, __rotate_theOM4, 0, __constVal1
2	4734	159		brtst 4, __rotate_Done4, __rotate_theTurnPct4
2	4735	162		setout __rotate_ports4, 0, __constVal32
2	4737	167		subret ____RotateMotor4_return
3	4794	0		brtst 4, __rotate_Done6, __rotate_angle6
3	4795	3		set ____RotateMotor6_sign_tmp, 0
3	4795	6		brtst EQ, __sign_6, __rotate_angle6
3	4795	9		set ____RotateMotor6_sign_tmp, -1
3	4795	12		brtst LT, __sign_6, __rotate_angle6
3	4795	15		set ____RotateMotor6_sign_tmp, 1
3	4795	18	__sign_6:	mov __rotate_thePower6, ____RotateMotor6_sign_tmp
3	4796	20		abs __rotate_theAngle6, __rotate_angle6
3	4797	23		mul __rotate_thePower6, __rotate_thePower6, __rotate_power6
3	4799	27		set __rotate_theUF6, 23
3	4800	30		brtst 4, __rotate_NoSync6, __rotate_sync6
3	4801	33		set __rotate_theOM6, 7
3	4802	36		set __rotate_theRM6, 2
3	4803	39		mov __rotate_theTurnPct6, __rotate_turnpct6
3	4804	41		brtst 4, __rotate_Start6, __rotate_theTurnPct6
3	4805	44		add __rotate_theUF6, __rotate_theUF6, __constVal32
3	4806	48		jmp __rotate_Start6
3	4808	50		set __rotate_theOM6, 3
3	4809	53		set __rotate_theRM6, 0
3	4810	56		set __rotate_theTurnPct6, 0
3	4812	59		set __rotate_theRS6, 32
3	4813	62		setout __rotate_ports6, 1, __rotate_theOM6, 8, __rotate_theRM6, 5, __rotate_theAngle6, 6, __rotate_theRS6, 10, __rotate_theRVP6, 11, __rotate_theRVI6, 12, __rotate_theRVD6, 2, __rotate_thePower6, 7, __rotate_turnpct6, 0, __rotate_theUF6
3	4816	85		index __rotate_firstPort6, __rotate_ports6, 65535
3	4818	89		getout __rotate_power6, __rotate_firstPort6, 2
3	4819	93		brtst 4, __rotate_doneRunning6, __rotate_power6
3	4820	96		getout __rotate_rs6, __rotate_firstPort6, 6
3	4821	100		brcmp 4, __rotate_Running6, __rotate_rs6, __constVal32
3	4823	104		brtst 4, __rotate_Reset6, __rotate_stop6
3	4825	107		set __rotate_theOM6, 7
3	4826	110		set __rotate_theUF6, 7
3	4827	113		setout __rotate_ports6, 1, __rotate_theOM6, 8, __constVal1, 6, __rotate_theRS6, 2, __constVal0, 5, __constVal0, 0, __rotate_theUF6
3	4829	128		getout __rotate_RotCount6, __rotate_firstPort6, 14
3	4831	132		mov __rotate_OldRotCount6, __rotate_RotCount6
3	4832	134		wait2 NA, __constVal50
3	4834	137		getout __rotate_RotCount6, __rotate_firstPort6, 14
3	4835	141		brcmp 5, __rotate_Stabilize6, __rotate_OldRotCount6, __rotate_RotCount6
3	4836	145		set __rotate_theOM6, 4
3	4837	148		setout __rotate_ports6, 8, __rotate_theRM6, 6, __constVal0, 1, __rotate_theOM6, 0, __constVal1
3	4840	159		brtst 4, __rotate_Done6, __rotate_theTurnPct6
3	4841	162		setout __rotate_ports6, 0, __constVal32
3	4843	167		subret ____RotateMotor6_return
4	4854	0		arrsize __rotate_rs6, __rotate_ports6
4	4855	3		brcmp 1, __rmvCallSub, __rotate_rs6, __constVal1
4	4857	7		index __rotate_rs6, __rotate_ports6, 65535
4	4858	11		brcmp 0, __rmvCallSub, __rotate_rs6, __constVal3
4	4859	15		brcmp 1, __rmvExit, __rotate_rs6, __constVal6
4	4861	19		mov __rotate_ports6, __OUT_AB
4	4862	21		brcmp 4, __rmvCallSub, __rotate_rs6, __constVal3
4	4863	25		mov __rotate_ports6, __OUT_AC
4	4864	27		brcmp 4, __rmvCallSub, __rotate_rs6, __constVal4
4	4865	31		mov __rotate_ports6, __OUT_BC
4	4866	33		brcmp 4, __rmvCallSub, __rotate_rs6, __constVal5
4	4867	37		mov __rotate_ports6, __OUT_ABC
4	4869	39		subcall __RotateMotor6, ____RotateMotor6_return
4	4871	42		subret ____RotateMotorVar_return
5	4885	0		setin __constVal1, __ResetSensorPort, 5
5	4887	4		getin __ResetSensorTmp, __ResetSensorPort, 5
5	4888	8		brtst 5, __SensorStillInvalid, __ResetSensorTmp
5	4889	11		subret ____ResetSensorSubroutine_return
6	5710	0	#pragma macro 25
6	5710	0		acquire __CLSWMutex1
6	5710	1		set __CLSWArgs1.Port, 1
6	5710	4		mov __CLSWArgs1.ReturnLen, __RLSBytesCount1
6	5710	7		mov __CLSWArgs1.Buffer, __RLSReadBuf1
6	5710	9		syscall 21, __CLSWArgs1
6	5710	12		mov __RLSBResult1, __CLSWArgs1.Result
6	5710	15		release __CLSWMutex1
6	5710	16	#line 5710 "NXTDefs.h"
6	5711	16		brtst 4, __RLSBReturn1, __RLSBytesCount1
6	5712	19		arrinit __RLSReadBuf1, __constVal0, __RLSBytesCount1
6	5713	23		brtst 5, __RLSBError1, __RLSBResult1
6	5714	26		set __RLSBIterations1, 4
6	5716	29	#pragma macro 23
6	5716	29		acquire __CLSCSMutex1
6	5716	30		set __CLSCSArgs1.Port, 1
6	5716	33		syscall 23, __CLSCSArgs1
6	5716	36		mov __RLSBytesCount1, __CLSCSArgs1.BytesReady
6	5716	38		mov __RLSBResult1, __CLSCSArgs1.Result
6	5716	40		release __CLSCSMutex1
6	5716	41	#line 5716 "NXTDefs.h"
6	5717	41		sub __RLSBIterations1, __RLSBIterations1, __constVal1
6	5718	45		brtst 2, __RLSBError1, __RLSBIterations1
6	5719	48		brtst 0, __RLSBError1, __RLSBResult1
6	5720	51		brtst 4, __RLSBReadyToRead1, __RLSBResult1
6	5722	54		wait2 NA, __constVal15
6	5723	57		jmp __RLSBDoCheckStatus1
6	5726	59	#pragma macro 25
6	5726	59		acquire __CLSRMutex1
6	5726	60		set __CLSRArgs1.Port, 1
6	5726	63		mov __CLSRArgs1.BufferLen, __RLSBytesCount1
6	5726	65		syscall 22, __CLSRArgs1
6	5726	68		mov __RLSReadBuf1, __CLSRArgs1.Buffer
6	5726	70		mov __RLSBResult1, __CLSRArgs1.Result
6	5726	72		release __CLSRMutex1
6	5726	73	#line 5726 "NXTDefs.h"
6	5727	73		brtst 5, __RLSBError1, __RLSBResult1
6	5728	76		mov __RLSLastGoodRead1, __RLSReadBuf1
6	5729	78		jmp __RLSBDone1
6	5731	80		mov __RLSReadBuf1, __RLSLastGoodRead1
6	5733	82		arrsize __RLSBytesCount1, __RLSReadBuf1
6	5735	85		subret ____ReadLSBytes1_return
7	5747	0	#pragma macro 25
7	5747	0		acquire __CLSWMutex2
7	5747	1		set __CLSWArgs2.Port, 2
7	5747	4		mov __CLSWArgs2.ReturnLen, __RLSBytesCount2
7	5747	7		mov __CLSWArgs2.Buffer, __RLSReadBuf2
7	5747	9		syscall 21, __CLSWArgs2
7	5747	12		mov __RLSBResult2, __CLSWArgs2.Result
7	5747	15		release __CLSWMutex2
7	5747	16	#line 5747 "NXTDefs.h"
7	5748	16		brtst 4, __RLSBReturn2, __RLSBytesCount2
7	5749	19		arrinit __RLSReadBuf2, __constVal0, __RLSBytesCount2
7	5750	23		brtst 5, __RLSBError2, __RLSBResult2
7	5751	26		set __RLSBIterations2, 4
7	5753	29	#pragma macro 23
7	5753	29		acquire __CLSCSMutex2
7	5753	30		set __CLSCSArgs2.Port, 2
7	5753	33		syscall 23, __CLSCSArgs2
7	5753	36		mov __RLSBytesCount2, __CLSCSArgs2.BytesReady
7	5753	38		mov __RLSBResult2, __CLSCSArgs2.Result
7	5753	40		release __CLSCSMutex2
7	5753	41	#line 5753 "NXTDefs.h"
7	5754	41		sub __RLSBIterations2, __RLSBIterations2, __constVal1
7	5755	45		brtst 2, __RLSBError2, __RLSBIterations2
7	5756	48		brtst 0, __RLSBError2, __RLSBResult2
7	5757	51		brtst 4, __RLSBReadyToRead2, __RLSBResult2
7	5759	54		wait2 NA, __constVal15
7	5760	57		jmp __RLSBDoCheckStatus2
7	5763	59	#pragma macro 25
7	5763	59		acquire __CLSRMutex2
7	5763	60		set __CLSRArgs2.Port, 2
7	5763	63		mov __CLSRArgs2.BufferLen, __RLSBytesCount2
7	5763	66		syscall 22, __CLSRArgs2
7	5763	69		mov __RLSReadBuf2, __CLSRArgs2.Buffer
7	5763	71		mov __RLSBResult2, __CLSRArgs2.Result
7	5763	74		release __CLSRMutex2
7	5763	75	#line 5763 "NXTDefs.h"
7	5764	75		brtst 5, __RLSBError2, __RLSBResult2
7	5765	78		mov __RLSLastGoodRead2, __RLSReadBuf2
7	5766	80		jmp __RLSBDone2
7	5768	82		mov __RLSReadBuf2, __RLSLastGoodRead2
7	5770	84		arrsize __RLSBytesCount2, __RLSReadBuf2
7	5772	87		subret ____ReadLSBytes2_return
8	5821	0	#pragma macro 25
8	5821	0		acquire __CLSWMutex0
8	5821	1		acquire __CLSWMutex1
8	5821	2		acquire __CLSWMutex2
8	5821	3		acquire __CLSWMutex3
8	5821	4		mov __CLSWArgs0.Port, __RLSReadPort
8	5821	6		mov __CLSWArgs0.ReturnLen, __RLSBytesCountVar
8	5821	8		mov __CLSWArgs0.Buffer, __RLSReadBufVar
8	5821	10		syscall 21, __CLSWArgs0
8	5821	13		mov __RLSBResultVar, __CLSWArgs0.Result
8	5821	15		release __CLSWMutex0
8	5821	16		release __CLSWMutex1
8	5821	17		release __CLSWMutex2
8	5821	18		release __CLSWMutex3
8	5821	19	#line 5821 "NXTDefs.h"
8	5822	19		brtst 4, __RLSBReturnVar, __RLSBytesCountVar
8	5823	22		arrinit __RLSReadBufVar, __constVal0, __RLSBytesCountVar
8	5824	26		brtst 5, __RLSBErrorVar, __RLSBResultVar
8	5825	29		set __RLSBIterationsVar, 4
8	5827	32	#pragma macro 23
8	5827	32		acquire __CLSCSMutex0
8	5827	33		acquire __CLSCSMutex1
8	5827	34		acquire __CLSCSMutex2
8	5827	35		acquire __CLSCSMutex3
8	5827	36		mov __CLSCSArgs0.Port, __RLSReadPort
8	5827	38		syscall 23, __CLSCSArgs0
8	5827	41		mov __RLSBytesCountVar, __CLSCSArgs0.BytesReady
8	5827	44		mov __RLSBResultVar, __CLSCSArgs0.Result
8	5827	47		release __CLSCSMutex0
8	5827	48		release __CLSCSMutex1
8	5827	49		release __CLSCSMutex2
8	5827	50		release __CLSCSMutex3
8	5827	51	#line 5827 "NXTDefs.h"
8	5828	51		sub __RLSBIterationsVar, __RLSBIterationsVar, __constVal1
8	5829	55		brtst 2, __RLSBErrorVar, __RLSBIterationsVar
8	5830	58		brtst 0, __RLSBErrorVar, __RLSBResultVar
8	5831	61		brtst 4, __RLSBReadyToReadVar, __RLSBResultVar
8	5833	64		wait2 NA, __constVal15
8	5834	67		jmp __RLSBDoCheckStatusVar
8	5837	69	#pragma macro 25
8	5837	69		acquire __CLSRMutex0
8	5837	70		acquire __CLSRMutex1
8	5837	71		acquire __CLSRMutex2
8	5837	72		acquire __CLSRMutex3
8	5837	73		mov __CLSRArgs0.Port, __RLSReadPort
8	5837	75		mov __CLSRArgs0.BufferLen, __RLSBytesCountVar
8	5837	77		syscall 22, __CLSRArgs0
8	5837	80		mov __RLSReadBufVar, __CLSRArgs0.Buffer
8	5837	82		mov __RLSBResultVar, __CLSRArgs0.Result
8	5837	84		release __CLSRMutex0
8	5837	85		release __CLSRMutex1
8	5837	86		release __CLSRMutex2
8	5837	87		release __CLSRMutex3
8	5837	88	#line 5837 "NXTDefs.h"
8	5838	88		brtst 5, __RLSBErrorVar, __RLSBResultVar
8	5839	91		mov __RLSLastGoodReadVar, __RLSReadBufVar
8	5840	93		jmp __RLSBDoneVar
8	5842	95		mov __RLSReadBufVar, __RLSLastGoodReadVar
8	5844	97		arrsize __RLSBytesCountVar, __RLSReadBufVar
8	5846	100		subret ____ReadLSBytesVar_return
9	71	0	#line 71 "C:\Users\Lshi\Documents\Extracurriculars\Gov School\Robotics\GSET_Robotics\Maze\409_Maze_Test.nxc"
9	72	0		mov __signed_stack_001lineFollow, mode
9	71	2	#line 71 "C:\Users\Lshi\Documents\Extracurriculars\Gov School\Robotics\GSET_Robotics\Maze\409_Maze_Test.nxc"
9	71	2	#line 71 "C:\Users\Lshi\Documents\Extracurriculars\Gov School\Robotics\GSET_Robotics\Maze\409_Maze_Test.nxc"
9	72	2		set __D0lineFollow, 1
9	71	5	#line 71 "C:\Users\Lshi\Documents\Extracurriculars\Gov School\Robotics\GSET_Robotics\Maze\409_Maze_Test.nxc"
9	72	5		cmp 4, __zflineFollow, __signed_stack_001lineFollow, __D0lineFollow
9	71	9	#line 71 "C:\Users\Lshi\Documents\Extracurriculars\Gov School\Robotics\GSET_Robotics\Maze\409_Maze_Test.nxc"
9	72	9		mov __D0lineFollow, __zflineFollow
9	72	12	#line 72 "C:\Users\Lshi\Documents\Extracurriculars\Gov School\Robotics\GSET_Robotics\Maze\409_Maze_Test.nxc"
9	73	12		brtst 4, __NXC_Label_514, __zflineFollow
9	72	15	#line 72 "C:\Users\Lshi\Documents\Extracurriculars\Gov School\Robotics\GSET_Robotics\Maze\409_Maze_Test.nxc"
9	73	15	#pragma macro 26
9	73	15		acquire __RLSBmutex1
9	73	16		mov __RLSReadBuf1, __RLSBbufLSWrite1
9	73	18		set __RLSBytesCount1, 1
9	73	21		wait2 NA, __constVal15
9	73	24		subcall __ReadLSBytes1, ____ReadLSBytes1_return
9	73	27		index __D0lineFollow, __RLSReadBuf1, 65535
9	73	31		release __RLSBmutex1
9	5600	32	#line 5600 "C:\Users\Lshi\Documents\Extracurriculars\Gov School\Robotics\GSET_Robotics\Maze\409_Maze_Test.nxc"
9	72	32	#line 72 "C:\Users\Lshi\Documents\Extracurriculars\Gov School\Robotics\GSET_Robotics\Maze\409_Maze_Test.nxc"
9	73	32		mov __signed_stack_001lineFollow, __D0lineFollow
9	72	34	#line 72 "C:\Users\Lshi\Documents\Extracurriculars\Gov School\Robotics\GSET_Robotics\Maze\409_Maze_Test.nxc"
9	73	34		set __D0lineFollow, 15
9	72	37	#line 72 "C:\Users\Lshi\Documents\Extracurriculars\Gov School\Robotics\GSET_Robotics\Maze\409_Maze_Test.nxc"
9	73	37		cmp 2, __zflineFollow, __signed_stack_001lineFollow, __D0lineFollow
9	72	41	#line 72 "C:\Users\Lshi\Documents\Extracurriculars\Gov School\Robotics\GSET_Robotics\Maze\409_Maze_Test.nxc"
9	73	41		mov __D0lineFollow, __zflineFollow
9	72	44	#line 72 "C:\Users\Lshi\Documents\Extracurriculars\Gov School\Robotics\GSET_Robotics\Maze\409_Maze_Test.nxc"
9	73	44		brtst 4, __NXC_Label_518, __zflineFollow
9	72	47	#line 72 "C:\Users\Lshi\Documents\Extracurriculars\Gov School\Robotics\GSET_Robotics\Maze\409_Maze_Test.nxc"
9	73	47		mov __signed_stack_001lineFollow, __D0lineFollow
9	72	49	#line 72 "C:\Users\Lshi\Documents\Extracurriculars\Gov School\Robotics\GSET_Robotics\Maze\409_Maze_Test.nxc"
9	73	49		mov __signed_stack_002lineFollow, obstDone
9	72	51	#line 72 "C:\Users\Lshi\Documents\Extracurriculars\Gov School\Robotics\GSET_Robotics\Maze\409_Maze_Test.nxc"
9	72	51	#line 72 "C:\Users\Lshi\Documents\Extracurriculars\Gov School\Robotics\GSET_Robotics\Maze\409_Maze_Test.nxc"
9	73	51		set __D0lineFollow, 0
9	72	54	#line 72 "C:\Users\Lshi\Documents\Extracurriculars\Gov School\Robotics\GSET_Robotics\Maze\409_Maze_Test.nxc"
9	73	54		cmp 4, __zflineFollow, __signed_stack_002lineFollow, __D0lineFollow
9	72	58	#line 72 "C:\Users\Lshi\Documents\Extracurriculars\Gov School\Robotics\GSET_Robotics\Maze\409_Maze_Test.nxc"
9	72	58	#line 72 "C:\Users\Lshi\Documents\Extracurriculars\Gov School\Robotics\GSET_Robotics\Maze\409_Maze_Test.nxc"
9	73	58		and __D0lineFollow, __signed_stack_001lineFollow, __zflineFollow
9	73	62	#line 73 "C:\Users\Lshi\Documents\Extracurriculars\Gov School\Robotics\GSET_Robotics\Maze\409_Maze_Test.nxc"
9	74	62		tst 5, __zflineFollow, __D0lineFollow
9	73	65	#line 73 "C:\Users\Lshi\Documents\Extracurriculars\Gov School\Robotics\GSET_Robotics\Maze\409_Maze_Test.nxc"
9	74	65		brtst 4, __NXC_Label_519, __zflineFollow
9	74	68	#line 74 "C:\Users\Lshi\Documents\Extracurriculars\Gov School\Robotics\GSET_Robotics\Maze\409_Maze_Test.nxc"
9	75	68		set obstDone, 1
9	74	71	#line 74 "C:\Users\Lshi\Documents\Extracurriculars\Gov School\Robotics\GSET_Robotics\Maze\409_Maze_Test.nxc"
9	74	71	#line 74 "C:\Users\Lshi\Documents\Extracurriculars\Gov School\Robotics\GSET_Robotics\Maze\409_Maze_Test.nxc"
9	74	71	#line 74 "C:\Users\Lshi\Documents\Extracurriculars\Gov School\Robotics\GSET_Robotics\Maze\409_Maze_Test.nxc"
9	75	71		set __doubleWheelTurn_7qG2_degrees_7qG2_000, 90
9	74	74	#line 74 "C:\Users\Lshi\Documents\Extracurriculars\Gov School\Robotics\GSET_Robotics\Maze\409_Maze_Test.nxc"
9	75	74	#line 75 "C:\Users\Lshi\Documents\Extracurriculars\Gov School\Robotics\GSET_Robotics\Maze\409_Maze_Test.nxc"
9	76	74		subcall doubleWheelTurn, __doubleWheelTurn_return
9	75	77	#line 75 "C:\Users\Lshi\Documents\Extracurriculars\Gov School\Robotics\GSET_Robotics\Maze\409_Maze_Test.nxc"
9	75	77	#line 75 "C:\Users\Lshi\Documents\Extracurriculars\Gov School\Robotics\GSET_Robotics\Maze\409_Maze_Test.nxc"
9	75	77	#line 75 "C:\Users\Lshi\Documents\Extracurriculars\Gov School\Robotics\GSET_Robotics\Maze\409_Maze_Test.nxc"
9	75	77	#line 75 "C:\Users\Lshi\Documents\Extracurriculars\Gov School\Robotics\GSET_Robotics\Maze\409_Maze_Test.nxc"
9	75	77	#line 75 "C:\Users\Lshi\Documents\Extracurriculars\Gov School\Robotics\GSET_Robotics\Maze\409_Maze_Test.nxc"
9	76	77		mul __D0lineFollow, __constVal60, dir
9	76	81	#line 76 "C:\Users\Lshi\Documents\Extracurriculars\Gov School\Robotics\GSET_Robotics\Maze\409_Maze_Test.nxc"
9	77	81	#pragma macro 7
9	77	81		setout __constVal0, 2, __D0lineFollow, 1, __constVal3, 8, __constVal0, 6, __constVal32, 7, __constVal0, 5, __constVal0, 10, __constVal96, 11, __constVal32, 12, __constVal32, 0, __constVal63
9	5658	104	#line 5658 "C:\Users\Lshi\Documents\Extracurriculars\Gov School\Robotics\GSET_Robotics\Maze\409_Maze_Test.nxc"
9	76	104	#line 76 "C:\Users\Lshi\Documents\Extracurriculars\Gov School\Robotics\GSET_Robotics\Maze\409_Maze_Test.nxc"
9	76	104	#line 76 "C:\Users\Lshi\Documents\Extracurriculars\Gov School\Robotics\GSET_Robotics\Maze\409_Maze_Test.nxc"
9	76	104	#line 76 "C:\Users\Lshi\Documents\Extracurriculars\Gov School\Robotics\GSET_Robotics\Maze\409_Maze_Test.nxc"
9	76	104	#line 76 "C:\Users\Lshi\Documents\Extracurriculars\Gov School\Robotics\GSET_Robotics\Maze\409_Maze_Test.nxc"
9	76	104	#line 76 "C:\Users\Lshi\Documents\Extracurriculars\Gov School\Robotics\GSET_Robotics\Maze\409_Maze_Test.nxc"
9	77	104		mul __float_stack_001lineFollow, __constValf0P48, dir
9	76	108	#line 76 "C:\Users\Lshi\Documents\Extracurriculars\Gov School\Robotics\GSET_Robotics\Maze\409_Maze_Test.nxc"
9	76	108	#line 76 "C:\Users\Lshi\Documents\Extracurriculars\Gov School\Robotics\GSET_Robotics\Maze\409_Maze_Test.nxc"
9	76	108	#line 76 "C:\Users\Lshi\Documents\Extracurriculars\Gov School\Robotics\GSET_Robotics\Maze\409_Maze_Test.nxc"
9	77	108		mul __DF0lineFollow, __float_stack_001lineFollow, __constVal60
9	77	112	#line 77 "C:\Users\Lshi\Documents\Extracurriculars\Gov School\Robotics\GSET_Robotics\Maze\409_Maze_Test.nxc"
9	78	112	#pragma macro 7
9	78	112		setout __constVal2, 2, __DF0lineFollow, 1, __constVal3, 8, __constVal0, 6, __constVal32, 7, __constVal0, 5, __constVal0, 10, __constVal96, 11, __constVal32, 12, __constVal32, 0, __constVal63
9	5677	135	#line 5677 "C:\Users\Lshi\Documents\Extracurriculars\Gov School\Robotics\GSET_Robotics\Maze\409_Maze_Test.nxc"
9	77	135	#line 77 "C:\Users\Lshi\Documents\Extracurriculars\Gov School\Robotics\GSET_Robotics\Maze\409_Maze_Test.nxc"
9	77	135	#line 77 "C:\Users\Lshi\Documents\Extracurriculars\Gov School\Robotics\GSET_Robotics\Maze\409_Maze_Test.nxc"
9	78	135		set __Wait_7qG2_ms_7qG2_000_inline_lineFollow, 1000
9	77	138	#line 77 "C:\Users\Lshi\Documents\Extracurriculars\Gov School\Robotics\GSET_Robotics\Maze\409_Maze_Test.nxc"
9	7921	138	#line 7921 "NXCDefs.h"
9	7922	138		wait2 NA, __Wait_7qG2_ms_7qG2_000_inline_lineFollow
9	7921	141	#line 7921 "NXCDefs.h"
9	78	141	#line 78 "C:\Users\Lshi\Documents\Extracurriculars\Gov School\Robotics\GSET_Robotics\Maze\409_Maze_Test.nxc"
9	78	141	#line 78 "C:\Users\Lshi\Documents\Extracurriculars\Gov School\Robotics\GSET_Robotics\Maze\409_Maze_Test.nxc"
9	79	141		getin __signed_stack_001lineFollow, __constVal0, 4
9	78	145	#line 78 "C:\Users\Lshi\Documents\Extracurriculars\Gov School\Robotics\GSET_Robotics\Maze\409_Maze_Test.nxc"
9	78	145	#line 78 "C:\Users\Lshi\Documents\Extracurriculars\Gov School\Robotics\GSET_Robotics\Maze\409_Maze_Test.nxc"
9	79	145		mov __D0lineFollow, lightAvg
9	78	147	#line 78 "C:\Users\Lshi\Documents\Extracurriculars\Gov School\Robotics\GSET_Robotics\Maze\409_Maze_Test.nxc"
9	79	147		cmp 1, __zflineFollow, __signed_stack_001lineFollow, __D0lineFollow
9	78	151	#line 78 "C:\Users\Lshi\Documents\Extracurriculars\Gov School\Robotics\GSET_Robotics\Maze\409_Maze_Test.nxc"
9	79	151		mov __D0lineFollow, __zflineFollow
9	80	154	#line 80 "C:\Users\Lshi\Documents\Extracurriculars\Gov School\Robotics\GSET_Robotics\Maze\409_Maze_Test.nxc"
9	81	154		brtst 4, __NXC_Label_531, __zflineFollow
9	86	157	#line 86 "C:\Users\Lshi\Documents\Extracurriculars\Gov School\Robotics\GSET_Robotics\Maze\409_Maze_Test.nxc"
9	87	157		jmp __NXC_Label_530
9	86	159	#line 86 "C:\Users\Lshi\Documents\Extracurriculars\Gov School\Robotics\GSET_Robotics\Maze\409_Maze_Test.nxc"
9	86	159	#line 86 "C:\Users\Lshi\Documents\Extracurriculars\Gov School\Robotics\GSET_Robotics\Maze\409_Maze_Test.nxc"
9	87	159		set __doubleWheelTurn_7qG2_degrees_7qG2_000, 30
9	86	162	#line 86 "C:\Users\Lshi\Documents\Extracurriculars\Gov School\Robotics\GSET_Robotics\Maze\409_Maze_Test.nxc"
9	87	162	#line 87 "C:\Users\Lshi\Documents\Extracurriculars\Gov School\Robotics\GSET_Robotics\Maze\409_Maze_Test.nxc"
9	88	162		subcall doubleWheelTurn, __doubleWheelTurn_return
9	87	165	#line 87 "C:\Users\Lshi\Documents\Extracurriculars\Gov School\Robotics\GSET_Robotics\Maze\409_Maze_Test.nxc"
9	88	165	#line 88 "C:\Users\Lshi\Documents\Extracurriculars\Gov School\Robotics\GSET_Robotics\Maze\409_Maze_Test.nxc"
9	88	165	#line 88 "C:\Users\Lshi\Documents\Extracurriculars\Gov School\Robotics\GSET_Robotics\Maze\409_Maze_Test.nxc"
9	89	165		getin __signed_stack_001lineFollow, __constVal0, 4
9	88	169	#line 88 "C:\Users\Lshi\Documents\Extracurriculars\Gov School\Robotics\GSET_Robotics\Maze\409_Maze_Test.nxc"
9	88	169	#line 88 "C:\Users\Lshi\Documents\Extracurriculars\Gov School\Robotics\GSET_Robotics\Maze\409_Maze_Test.nxc"
9	89	169		mov __D0lineFollow, lightAvg
9	88	171	#line 88 "C:\Users\Lshi\Documents\Extracurriculars\Gov School\Robotics\GSET_Robotics\Maze\409_Maze_Test.nxc"
9	89	171		cmp 1, __zflineFollow, __signed_stack_001lineFollow, __D0lineFollow
9	88	175	#line 88 "C:\Users\Lshi\Documents\Extracurriculars\Gov School\Robotics\GSET_Robotics\Maze\409_Maze_Test.nxc"
9	89	175		mov __D0lineFollow, __zflineFollow
9	89	178	#line 89 "C:\Users\Lshi\Documents\Extracurriculars\Gov School\Robotics\GSET_Robotics\Maze\409_Maze_Test.nxc"
9	90	178		brtst 4, __NXC_Label_538, __zflineFollow
9	89	181	#line 89 "C:\Users\Lshi\Documents\Extracurriculars\Gov School\Robotics\GSET_Robotics\Maze\409_Maze_Test.nxc"
9	89	181	#line 89 "C:\Users\Lshi\Documents\Extracurriculars\Gov School\Robotics\GSET_Robotics\Maze\409_Maze_Test.nxc"
9	89	181	#line 89 "C:\Users\Lshi\Documents\Extracurriculars\Gov School\Robotics\GSET_Robotics\Maze\409_Maze_Test.nxc"
9	89	181	#line 89 "C:\Users\Lshi\Documents\Extracurriculars\Gov School\Robotics\GSET_Robotics\Maze\409_Maze_Test.nxc"
9	90	181		mul __signed_stack_001lineFollow, dir, __constVal60
9	89	185	#line 89 "C:\Users\Lshi\Documents\Extracurriculars\Gov School\Robotics\GSET_Robotics\Maze\409_Maze_Test.nxc"
9	89	185	#line 89 "C:\Users\Lshi\Documents\Extracurriculars\Gov School\Robotics\GSET_Robotics\Maze\409_Maze_Test.nxc"
9	89	185	#line 89 "C:\Users\Lshi\Documents\Extracurriculars\Gov School\Robotics\GSET_Robotics\Maze\409_Maze_Test.nxc"
9	89	185	#line 89 "C:\Users\Lshi\Documents\Extracurriculars\Gov School\Robotics\GSET_Robotics\Maze\409_Maze_Test.nxc"
9	89	185	#line 89 "C:\Users\Lshi\Documents\Extracurriculars\Gov School\Robotics\GSET_Robotics\Maze\409_Maze_Test.nxc"
9	90	185		mul __signed_stack_002lineFollow, dir, __constVal60
9	89	189	#line 89 "C:\Users\Lshi\Documents\Extracurriculars\Gov School\Robotics\GSET_Robotics\Maze\409_Maze_Test.nxc"
9	89	189	#line 89 "C:\Users\Lshi\Documents\Extracurriculars\Gov School\Robotics\GSET_Robotics\Maze\409_Maze_Test.nxc"
9	89	189	#line 89 "C:\Users\Lshi\Documents\Extracurriculars\Gov School\Robotics\GSET_Robotics\Maze\409_Maze_Test.nxc"
9	90	189		mul __signed_stack_002lineFollow, __signed_stack_002lineFollow, __constVal2
9	89	193	#line 89 "C:\Users\Lshi\Documents\Extracurriculars\Gov School\Robotics\GSET_Robotics\Maze\409_Maze_Test.nxc"
9	89	193	#line 89 "C:\Users\Lshi\Documents\Extracurriculars\Gov School\Robotics\GSET_Robotics\Maze\409_Maze_Test.nxc"
9	90	193		getin __signed_stack_003lineFollow, __constVal0, 4
9	89	197	#line 89 "C:\Users\Lshi\Documents\Extracurriculars\Gov School\Robotics\GSET_Robotics\Maze\409_Maze_Test.nxc"
9	89	197	#line 89 "C:\Users\Lshi\Documents\Extracurriculars\Gov School\Robotics\GSET_Robotics\Maze\409_Maze_Test.nxc"
9	89	197	#line 89 "C:\Users\Lshi\Documents\Extracurriculars\Gov School\Robotics\GSET_Robotics\Maze\409_Maze_Test.nxc"
9	90	197		sub __D0lineFollow, __signed_stack_003lineFollow, lightAvg
9	89	201	#line 89 "C:\Users\Lshi\Documents\Extracurriculars\Gov School\Robotics\GSET_Robotics\Maze\409_Maze_Test.nxc"
9	90	201		mul __signed_stack_002lineFollow, __signed_stack_002lineFollow, __D0lineFollow
9	89	205	#line 89 "C:\Users\Lshi\Documents\Extracurriculars\Gov School\Robotics\GSET_Robotics\Maze\409_Maze_Test.nxc"
9	89	205	#line 89 "C:\Users\Lshi\Documents\Extracurriculars\Gov School\Robotics\GSET_Robotics\Maze\409_Maze_Test.nxc"
9	89	205	#line 89 "C:\Users\Lshi\Documents\Extracurriculars\Gov School\Robotics\GSET_Robotics\Maze\409_Maze_Test.nxc"
9	89	205	#line 89 "C:\Users\Lshi\Documents\Extracurriculars\Gov School\Robotics\GSET_Robotics\Maze\409_Maze_Test.nxc"
9	89	205	#line 89 "C:\Users\Lshi\Documents\Extracurriculars\Gov School\Robotics\GSET_Robotics\Maze\409_Maze_Test.nxc"
9	90	205		sub __D0lineFollow, white, lightAvg
9	89	209	#line 89 "C:\Users\Lshi\Documents\Extracurriculars\Gov School\Robotics\GSET_Robotics\Maze\409_Maze_Test.nxc"
9	90	209		div __D0lineFollow, __signed_stack_002lineFollow, __D0lineFollow
9	89	213	#line 89 "C:\Users\Lshi\Documents\Extracurriculars\Gov School\Robotics\GSET_Robotics\Maze\409_Maze_Test.nxc"
9	90	213		sub __D0lineFollow, __signed_stack_001lineFollow, __D0lineFollow
9	90	217	#line 90 "C:\Users\Lshi\Documents\Extracurriculars\Gov School\Robotics\GSET_Robotics\Maze\409_Maze_Test.nxc"
9	91	217	#pragma macro 7
9	91	217		setout __constVal2, 2, __D0lineFollow, 1, __constVal3, 8, __constVal0, 6, __constVal32, 7, __constVal0, 5, __constVal0, 10, __constVal96, 11, __constVal32, 12, __constVal32, 0, __constVal63
9	5794	240	#line 5794 "C:\Users\Lshi\Documents\Extracurriculars\Gov School\Robotics\GSET_Robotics\Maze\409_Maze_Test.nxc"
9	90	240	#line 90 "C:\Users\Lshi\Documents\Extracurriculars\Gov School\Robotics\GSET_Robotics\Maze\409_Maze_Test.nxc"
9	90	240	#line 90 "C:\Users\Lshi\Documents\Extracurriculars\Gov School\Robotics\GSET_Robotics\Maze\409_Maze_Test.nxc"
9	90	240	#line 90 "C:\Users\Lshi\Documents\Extracurriculars\Gov School\Robotics\GSET_Robotics\Maze\409_Maze_Test.nxc"
9	90	240	#line 90 "C:\Users\Lshi\Documents\Extracurriculars\Gov School\Robotics\GSET_Robotics\Maze\409_Maze_Test.nxc"
9	90	240	#line 90 "C:\Users\Lshi\Documents\Extracurriculars\Gov School\Robotics\GSET_Robotics\Maze\409_Maze_Test.nxc"
9	90	240	#line 90 "C:\Users\Lshi\Documents\Extracurriculars\Gov School\Robotics\GSET_Robotics\Maze\409_Maze_Test.nxc"
9	91	240		mul __D0lineFollow, dir, __constVal60
9	91	244	#line 91 "C:\Users\Lshi\Documents\Extracurriculars\Gov School\Robotics\GSET_Robotics\Maze\409_Maze_Test.nxc"
9	92	244	#pragma macro 7
9	92	244		setout __constVal0, 2, __D0lineFollow, 1, __constVal3, 8, __constVal0, 6, __constVal32, 7, __constVal0, 5, __constVal0, 10, __constVal96, 11, __constVal32, 12, __constVal32, 0, __constVal63
9	5808	267	#line 5808 "C:\Users\Lshi\Documents\Extracurriculars\Gov School\Robotics\GSET_Robotics\Maze\409_Maze_Test.nxc"
9	91	267	#line 91 "C:\Users\Lshi\Documents\Extracurriculars\Gov School\Robotics\GSET_Robotics\Maze\409_Maze_Test.nxc"
9	92	267	#line 92 "C:\Users\Lshi\Documents\Extracurriculars\Gov School\Robotics\GSET_Robotics\Maze\409_Maze_Test.nxc"
9	93	267		jmp __NXC_Label_547
9	92	269	#line 92 "C:\Users\Lshi\Documents\Extracurriculars\Gov School\Robotics\GSET_Robotics\Maze\409_Maze_Test.nxc"
9	93	269		getin __signed_stack_001lineFollow, __constVal0, 4
9	92	273	#line 92 "C:\Users\Lshi\Documents\Extracurriculars\Gov School\Robotics\GSET_Robotics\Maze\409_Maze_Test.nxc"
9	92	273	#line 92 "C:\Users\Lshi\Documents\Extracurriculars\Gov School\Robotics\GSET_Robotics\Maze\409_Maze_Test.nxc"
9	93	273		mov __D0lineFollow, lightAvg
9	92	275	#line 92 "C:\Users\Lshi\Documents\Extracurriculars\Gov School\Robotics\GSET_Robotics\Maze\409_Maze_Test.nxc"
9	93	275		cmp 2, __zflineFollow, __signed_stack_001lineFollow, __D0lineFollow
9	92	279	#line 92 "C:\Users\Lshi\Documents\Extracurriculars\Gov School\Robotics\GSET_Robotics\Maze\409_Maze_Test.nxc"
9	93	279		mov __D0lineFollow, __zflineFollow
9	93	282	#line 93 "C:\Users\Lshi\Documents\Extracurriculars\Gov School\Robotics\GSET_Robotics\Maze\409_Maze_Test.nxc"
9	94	282		brtst 4, __NXC_Label_550, __zflineFollow
9	93	285	#line 93 "C:\Users\Lshi\Documents\Extracurriculars\Gov School\Robotics\GSET_Robotics\Maze\409_Maze_Test.nxc"
9	93	285	#line 93 "C:\Users\Lshi\Documents\Extracurriculars\Gov School\Robotics\GSET_Robotics\Maze\409_Maze_Test.nxc"
9	93	285	#line 93 "C:\Users\Lshi\Documents\Extracurriculars\Gov School\Robotics\GSET_Robotics\Maze\409_Maze_Test.nxc"
9	93	285	#line 93 "C:\Users\Lshi\Documents\Extracurriculars\Gov School\Robotics\GSET_Robotics\Maze\409_Maze_Test.nxc"
9	94	285		mul __signed_stack_001lineFollow, dir, __constVal60
9	93	289	#line 93 "C:\Users\Lshi\Documents\Extracurriculars\Gov School\Robotics\GSET_Robotics\Maze\409_Maze_Test.nxc"
9	93	289	#line 93 "C:\Users\Lshi\Documents\Extracurriculars\Gov School\Robotics\GSET_Robotics\Maze\409_Maze_Test.nxc"
9	93	289	#line 93 "C:\Users\Lshi\Documents\Extracurriculars\Gov School\Robotics\GSET_Robotics\Maze\409_Maze_Test.nxc"
9	93	289	#line 93 "C:\Users\Lshi\Documents\Extracurriculars\Gov School\Robotics\GSET_Robotics\Maze\409_Maze_Test.nxc"
9	93	289	#line 93 "C:\Users\Lshi\Documents\Extracurriculars\Gov School\Robotics\GSET_Robotics\Maze\409_Maze_Test.nxc"
9	94	289		mul __signed_stack_002lineFollow, dir, __constVal60
9	93	293	#line 93 "C:\Users\Lshi\Documents\Extracurriculars\Gov School\Robotics\GSET_Robotics\Maze\409_Maze_Test.nxc"
9	93	293	#line 93 "C:\Users\Lshi\Documents\Extracurriculars\Gov School\Robotics\GSET_Robotics\Maze\409_Maze_Test.nxc"
9	93	293	#line 93 "C:\Users\Lshi\Documents\Extracurriculars\Gov School\Robotics\GSET_Robotics\Maze\409_Maze_Test.nxc"
9	94	293		mul __signed_stack_002lineFollow, __signed_stack_002lineFollow, __constVal2
9	93	297	#line 93 "C:\Users\Lshi\Documents\Extracurriculars\Gov School\Robotics\GSET_Robotics\Maze\409_Maze_Test.nxc"
9	93	297	#line 93 "C:\Users\Lshi\Documents\Extracurriculars\Gov School\Robotics\GSET_Robotics\Maze\409_Maze_Test.nxc"
9	94	297		getin __signed_stack_003lineFollow, __constVal0, 4
9	93	301	#line 93 "C:\Users\Lshi\Documents\Extracurriculars\Gov School\Robotics\GSET_Robotics\Maze\409_Maze_Test.nxc"
9	93	301	#line 93 "C:\Users\Lshi\Documents\Extracurriculars\Gov School\Robotics\GSET_Robotics\Maze\409_Maze_Test.nxc"
9	93	301	#line 93 "C:\Users\Lshi\Documents\Extracurriculars\Gov School\Robotics\GSET_Robotics\Maze\409_Maze_Test.nxc"
9	94	301		sub __D0lineFollow, __signed_stack_003lineFollow, lightAvg
9	93	305	#line 93 "C:\Users\Lshi\Documents\Extracurriculars\Gov School\Robotics\GSET_Robotics\Maze\409_Maze_Test.nxc"
9	94	305		mul __signed_stack_002lineFollow, __signed_stack_002lineFollow, __D0lineFollow
9	93	309	#line 93 "C:\Users\Lshi\Documents\Extracurriculars\Gov School\Robotics\GSET_Robotics\Maze\409_Maze_Test.nxc"
9	93	309	#line 93 "C:\Users\Lshi\Documents\Extracurriculars\Gov School\Robotics\GSET_Robotics\Maze\409_Maze_Test.nxc"
9	93	309	#line 93 "C:\Users\Lshi\Documents\Extracurriculars\Gov School\Robotics\GSET_Robotics\Maze\409_Maze_Test.nxc"
9	93	309	#line 93 "C:\Users\Lshi\Documents\Extracurriculars\Gov School\Robotics\GSET_Robotics\Maze\409_Maze_Test.nxc"
9	93	309	#line 93 "C:\Users\Lshi\Documents\Extracurriculars\Gov School\Robotics\GSET_Robotics\Maze\409_Maze_Test.nxc"
9	94	309		sub __D0lineFollow, black, lightAvg
9	93	313	#line 93 "C:\Users\Lshi\Documents\Extracurriculars\Gov School\Robotics\GSET_Robotics\Maze\409_Maze_Test.nxc"
9	94	313		div __D0lineFollow, __signed_stack_002lineFollow, __D0lineFollow
9	93	317	#line 93 "C:\Users\Lshi\Documents\Extracurriculars\Gov School\Robotics\GSET_Robotics\Maze\409_Maze_Test.nxc"
9	94	317		sub __D0lineFollow, __signed_stack_001lineFollow, __D0lineFollow
9	94	321	#line 94 "C:\Users\Lshi\Documents\Extracurriculars\Gov School\Robotics\GSET_Robotics\Maze\409_Maze_Test.nxc"
9	95	321	#pragma macro 7
9	95	321		setout __constVal0, 2, __D0lineFollow, 1, __constVal3, 8, __constVal0, 6, __constVal32, 7, __constVal0, 5, __constVal0, 10, __constVal96, 11, __constVal32, 12, __constVal32, 0, __constVal63
9	5884	344	#line 5884 "C:\Users\Lshi\Documents\Extracurriculars\Gov School\Robotics\GSET_Robotics\Maze\409_Maze_Test.nxc"
9	94	344	#line 94 "C:\Users\Lshi\Documents\Extracurriculars\Gov School\Robotics\GSET_Robotics\Maze\409_Maze_Test.nxc"
9	94	344	#line 94 "C:\Users\Lshi\Documents\Extracurriculars\Gov School\Robotics\GSET_Robotics\Maze\409_Maze_Test.nxc"
9	94	344	#line 94 "C:\Users\Lshi\Documents\Extracurriculars\Gov School\Robotics\GSET_Robotics\Maze\409_Maze_Test.nxc"
9	94	344	#line 94 "C:\Users\Lshi\Documents\Extracurriculars\Gov School\Robotics\GSET_Robotics\Maze\409_Maze_Test.nxc"
9	94	344	#line 94 "C:\Users\Lshi\Documents\Extracurriculars\Gov School\Robotics\GSET_Robotics\Maze\409_Maze_Test.nxc"
9	94	344	#line 94 "C:\Users\Lshi\Documents\Extracurriculars\Gov School\Robotics\GSET_Robotics\Maze\409_Maze_Test.nxc"
9	95	344		mul __D0lineFollow, dir, __constVal60
9	95	348	#line 95 "C:\Users\Lshi\Documents\Extracurriculars\Gov School\Robotics\GSET_Robotics\Maze\409_Maze_Test.nxc"
9	96	348	#pragma macro 7
9	96	348		setout __constVal2, 2, __D0lineFollow, 1, __constVal3, 8, __constVal0, 6, __constVal32, 7, __constVal0, 5, __constVal0, 10, __constVal96, 11, __constVal32, 12, __constVal32, 0, __constVal63
9	5898	371	#line 5898 "C:\Users\Lshi\Documents\Extracurriculars\Gov School\Robotics\GSET_Robotics\Maze\409_Maze_Test.nxc"
9	95	371	#line 95 "C:\Users\Lshi\Documents\Extracurriculars\Gov School\Robotics\GSET_Robotics\Maze\409_Maze_Test.nxc"
9	98	371	#line 98 "C:\Users\Lshi\Documents\Extracurriculars\Gov School\Robotics\GSET_Robotics\Maze\409_Maze_Test.nxc"
9	98	371	#line 98 "C:\Users\Lshi\Documents\Extracurriculars\Gov School\Robotics\GSET_Robotics\Maze\409_Maze_Test.nxc"
9	98	371	#line 98 "C:\Users\Lshi\Documents\Extracurriculars\Gov School\Robotics\GSET_Robotics\Maze\409_Maze_Test.nxc"
9	99	371		jmp __NXC_Label_513
9	98	373	#line 98 "C:\Users\Lshi\Documents\Extracurriculars\Gov School\Robotics\GSET_Robotics\Maze\409_Maze_Test.nxc"
9	98	373	#line 98 "C:\Users\Lshi\Documents\Extracurriculars\Gov School\Robotics\GSET_Robotics\Maze\409_Maze_Test.nxc"
9	99	373		set __D0lineFollow, 0
9	100	376	#line 100 "C:\Users\Lshi\Documents\Extracurriculars\Gov School\Robotics\GSET_Robotics\Maze\409_Maze_Test.nxc"
9	101	376	#pragma macro 7
9	101	376		setout __OUT_AC, 2, __D0lineFollow, 1, __constVal3, 8, __constVal0, 6, __constVal32, 7, __constVal0, 5, __constVal0, 10, __constVal96, 11, __constVal32, 12, __constVal32, 0, __constVal63
9	5913	399	#line 5913 "C:\Users\Lshi\Documents\Extracurriculars\Gov School\Robotics\GSET_Robotics\Maze\409_Maze_Test.nxc"
9	100	399	#line 100 "C:\Users\Lshi\Documents\Extracurriculars\Gov School\Robotics\GSET_Robotics\Maze\409_Maze_Test.nxc"
9	100	399	#line 100 "C:\Users\Lshi\Documents\Extracurriculars\Gov School\Robotics\GSET_Robotics\Maze\409_Maze_Test.nxc"
9	101	399		set __Wait_7qG2_ms_7qG2_000_inline_lineFollow, 1000
9	100	402	#line 100 "C:\Users\Lshi\Documents\Extracurriculars\Gov School\Robotics\GSET_Robotics\Maze\409_Maze_Test.nxc"
9	7921	402	#line 7921 "NXCDefs.h"
9	7922	402		wait2 NA, __Wait_7qG2_ms_7qG2_000_inline_lineFollow
9	7921	405	#line 7921 "NXCDefs.h"
9	101	405	#line 101 "C:\Users\Lshi\Documents\Extracurriculars\Gov School\Robotics\GSET_Robotics\Maze\409_Maze_Test.nxc"
9	102	405	#line 102 "C:\Users\Lshi\Documents\Extracurriculars\Gov School\Robotics\GSET_Robotics\Maze\409_Maze_Test.nxc"
9	102	405	#line 102 "C:\Users\Lshi\Documents\Extracurriculars\Gov School\Robotics\GSET_Robotics\Maze\409_Maze_Test.nxc"
9	103	405		exit 0, 0
10	106	0	#line 106 "C:\Users\Lshi\Documents\Extracurriculars\Gov School\Robotics\GSET_Robotics\Maze\409_Maze_Test.nxc"
10	107	0		mov __signed_stack_001color, mode
10	106	2	#line 106 "C:\Users\Lshi\Documents\Extracurriculars\Gov School\Robotics\GSET_Robotics\Maze\409_Maze_Test.nxc"
10	106	2	#line 106 "C:\Users\Lshi\Documents\Extracurriculars\Gov School\Robotics\GSET_Robotics\Maze\409_Maze_Test.nxc"
10	107	2		set __D0color, 1
10	106	5	#line 106 "C:\Users\Lshi\Documents\Extracurriculars\Gov School\Robotics\GSET_Robotics\Maze\409_Maze_Test.nxc"
10	107	5		cmp 4, __zfcolor, __signed_stack_001color, __D0color
10	106	9	#line 106 "C:\Users\Lshi\Documents\Extracurriculars\Gov School\Robotics\GSET_Robotics\Maze\409_Maze_Test.nxc"
10	107	9		mov __D0color, __zfcolor
10	107	12	#line 107 "C:\Users\Lshi\Documents\Extracurriculars\Gov School\Robotics\GSET_Robotics\Maze\409_Maze_Test.nxc"
10	108	12		brtst 4, __NXC_Label_564, __zfcolor
10	107	15	#line 107 "C:\Users\Lshi\Documents\Extracurriculars\Gov School\Robotics\GSET_Robotics\Maze\409_Maze_Test.nxc"
10	108	15	#pragma macro 24
10	108	15		acquire __RLSBmutex2
10	108	16		mov __RLSReadBuf2, __RLSBbufLSWrite1
10	108	18		set __RLSBytesCount2, 1
10	108	21		subcall __ReadLSBytes2, ____ReadLSBytes2_return
10	108	24		index __D0color, __RLSReadBuf2, 65535
10	108	28		release __RLSBmutex2
10	5947	29	#line 5947 "C:\Users\Lshi\Documents\Extracurriculars\Gov School\Robotics\GSET_Robotics\Maze\409_Maze_Test.nxc"
10	107	29	#line 107 "C:\Users\Lshi\Documents\Extracurriculars\Gov School\Robotics\GSET_Robotics\Maze\409_Maze_Test.nxc"
10	108	29		mov __signed_stack_001color, __D0color
10	107	31	#line 107 "C:\Users\Lshi\Documents\Extracurriculars\Gov School\Robotics\GSET_Robotics\Maze\409_Maze_Test.nxc"
10	108	31		set __D0color, 2
10	107	34	#line 107 "C:\Users\Lshi\Documents\Extracurriculars\Gov School\Robotics\GSET_Robotics\Maze\409_Maze_Test.nxc"
10	108	34		cmp 4, __zfcolor, __signed_stack_001color, __D0color
10	107	38	#line 107 "C:\Users\Lshi\Documents\Extracurriculars\Gov School\Robotics\GSET_Robotics\Maze\409_Maze_Test.nxc"
10	108	38		mov __D0color, __zfcolor
10	107	41	#line 107 "C:\Users\Lshi\Documents\Extracurriculars\Gov School\Robotics\GSET_Robotics\Maze\409_Maze_Test.nxc"
10	108	41		brtst 5, __NXC_Label_567, __zfcolor
10	107	44	#line 107 "C:\Users\Lshi\Documents\Extracurriculars\Gov School\Robotics\GSET_Robotics\Maze\409_Maze_Test.nxc"
10	108	44		mov __signed_stack_001color, __D0color
10	107	46	#line 107 "C:\Users\Lshi\Documents\Extracurriculars\Gov School\Robotics\GSET_Robotics\Maze\409_Maze_Test.nxc"
10	108	46	#pragma macro 24
10	108	46		acquire __RLSBmutex2
10	108	47		mov __RLSReadBuf2, __RLSBbufLSWrite1
10	108	49		set __RLSBytesCount2, 1
10	108	52		subcall __ReadLSBytes2, ____ReadLSBytes2_return
10	108	55		index __D0color, __RLSReadBuf2, 65535
10	108	59		release __RLSBmutex2
10	5962	60	#line 5962 "C:\Users\Lshi\Documents\Extracurriculars\Gov School\Robotics\GSET_Robotics\Maze\409_Maze_Test.nxc"
10	107	60	#line 107 "C:\Users\Lshi\Documents\Extracurriculars\Gov School\Robotics\GSET_Robotics\Maze\409_Maze_Test.nxc"
10	108	60		mov __signed_stack_002color, __D0color
10	108	62	#line 108 "C:\Users\Lshi\Documents\Extracurriculars\Gov School\Robotics\GSET_Robotics\Maze\409_Maze_Test.nxc"
10	109	62		set __D0color, 3
10	108	65	#line 108 "C:\Users\Lshi\Documents\Extracurriculars\Gov School\Robotics\GSET_Robotics\Maze\409_Maze_Test.nxc"
10	109	65		cmp 4, __zfcolor, __signed_stack_002color, __D0color
10	108	69	#line 108 "C:\Users\Lshi\Documents\Extracurriculars\Gov School\Robotics\GSET_Robotics\Maze\409_Maze_Test.nxc"
10	108	69	#line 108 "C:\Users\Lshi\Documents\Extracurriculars\Gov School\Robotics\GSET_Robotics\Maze\409_Maze_Test.nxc"
10	109	69		or __D0color, __signed_stack_001color, __zfcolor
10	109	73	#line 109 "C:\Users\Lshi\Documents\Extracurriculars\Gov School\Robotics\GSET_Robotics\Maze\409_Maze_Test.nxc"
10	110	73		tst 5, __zfcolor, __D0color
10	109	76	#line 109 "C:\Users\Lshi\Documents\Extracurriculars\Gov School\Robotics\GSET_Robotics\Maze\409_Maze_Test.nxc"
10	110	76		brtst 4, __NXC_Label_570, __zfcolor
10	109	79	#line 109 "C:\Users\Lshi\Documents\Extracurriculars\Gov School\Robotics\GSET_Robotics\Maze\409_Maze_Test.nxc"
10	110	79		set __signed_stack_001color, 440
10	109	82	#line 109 "C:\Users\Lshi\Documents\Extracurriculars\Gov School\Robotics\GSET_Robotics\Maze\409_Maze_Test.nxc"
10	109	82	#line 109 "C:\Users\Lshi\Documents\Extracurriculars\Gov School\Robotics\GSET_Robotics\Maze\409_Maze_Test.nxc"
10	110	82		set __signed_stack_002color, 250
10	109	85	#line 109 "C:\Users\Lshi\Documents\Extracurriculars\Gov School\Robotics\GSET_Robotics\Maze\409_Maze_Test.nxc"
10	109	85	#line 109 "C:\Users\Lshi\Documents\Extracurriculars\Gov School\Robotics\GSET_Robotics\Maze\409_Maze_Test.nxc"
10	110	85		set __signed_stack_003color, 4
10	109	88	#line 109 "C:\Users\Lshi\Documents\Extracurriculars\Gov School\Robotics\GSET_Robotics\Maze\409_Maze_Test.nxc"
10	109	88	#line 109 "C:\Users\Lshi\Documents\Extracurriculars\Gov School\Robotics\GSET_Robotics\Maze\409_Maze_Test.nxc"
10	110	88		set __D0color, 0
10	110	91	#line 110 "C:\Users\Lshi\Documents\Extracurriculars\Gov School\Robotics\GSET_Robotics\Maze\409_Maze_Test.nxc"
10	111	91		acquire __SPTArgsMutex
10	110	92	#line 110 "C:\Users\Lshi\Documents\Extracurriculars\Gov School\Robotics\GSET_Robotics\Maze\409_Maze_Test.nxc"
10	111	92		mov __SPTArgs.Frequency, __signed_stack_001color
10	110	95	#line 110 "C:\Users\Lshi\Documents\Extracurriculars\Gov School\Robotics\GSET_Robotics\Maze\409_Maze_Test.nxc"
10	111	95		mov __SPTArgs.Duration, __signed_stack_002color
10	110	98	#line 110 "C:\Users\Lshi\Documents\Extracurriculars\Gov School\Robotics\GSET_Robotics\Maze\409_Maze_Test.nxc"
10	111	98		mov __SPTArgs.Volume, __signed_stack_003color
10	110	101	#line 110 "C:\Users\Lshi\Documents\Extracurriculars\Gov School\Robotics\GSET_Robotics\Maze\409_Maze_Test.nxc"
10	111	101		mov __SPTArgs.Loop, __D0color
10	110	104	#line 110 "C:\Users\Lshi\Documents\Extracurriculars\Gov School\Robotics\GSET_Robotics\Maze\409_Maze_Test.nxc"
10	111	104		syscall 10, __SPTArgs
10	110	107	#line 110 "C:\Users\Lshi\Documents\Extracurriculars\Gov School\Robotics\GSET_Robotics\Maze\409_Maze_Test.nxc"
10	111	107		mov __D0color, __SPTArgs.Result
10	110	110	#line 110 "C:\Users\Lshi\Documents\Extracurriculars\Gov School\Robotics\GSET_Robotics\Maze\409_Maze_Test.nxc"
10	111	110		release __SPTArgsMutex
10	110	111	#line 110 "C:\Users\Lshi\Documents\Extracurriculars\Gov School\Robotics\GSET_Robotics\Maze\409_Maze_Test.nxc"
10	110	111	#line 110 "C:\Users\Lshi\Documents\Extracurriculars\Gov School\Robotics\GSET_Robotics\Maze\409_Maze_Test.nxc"
10	111	111		set __Wait_7qG2_ms_7qG2_000_inline_color, 4000
10	110	114	#line 110 "C:\Users\Lshi\Documents\Extracurriculars\Gov School\Robotics\GSET_Robotics\Maze\409_Maze_Test.nxc"
10	7921	114	#line 7921 "NXCDefs.h"
10	7922	114		wait2 NA, __Wait_7qG2_ms_7qG2_000_inline_color
10	7921	117	#line 7921 "NXCDefs.h"
10	111	117	#line 111 "C:\Users\Lshi\Documents\Extracurriculars\Gov School\Robotics\GSET_Robotics\Maze\409_Maze_Test.nxc"
10	113	117	#line 113 "C:\Users\Lshi\Documents\Extracurriculars\Gov School\Robotics\GSET_Robotics\Maze\409_Maze_Test.nxc"
10	114	117		jmp __NXC_Label_581
10	113	119	#line 113 "C:\Users\Lshi\Documents\Extracurriculars\Gov School\Robotics\GSET_Robotics\Maze\409_Maze_Test.nxc"
10	114	119	#pragma macro 24
10	114	119		acquire __RLSBmutex2
10	114	120		mov __RLSReadBuf2, __RLSBbufLSWrite1
10	114	122		set __RLSBytesCount2, 1
10	114	125		subcall __ReadLSBytes2, ____ReadLSBytes2_return
10	114	128		index __D0color, __RLSReadBuf2, 65535
10	114	132		release __RLSBmutex2
10	6036	133	#line 6036 "C:\Users\Lshi\Documents\Extracurriculars\Gov School\Robotics\GSET_Robotics\Maze\409_Maze_Test.nxc"
10	113	133	#line 113 "C:\Users\Lshi\Documents\Extracurriculars\Gov School\Robotics\GSET_Robotics\Maze\409_Maze_Test.nxc"
10	114	133		mov __signed_stack_001color, __D0color
10	114	135	#line 114 "C:\Users\Lshi\Documents\Extracurriculars\Gov School\Robotics\GSET_Robotics\Maze\409_Maze_Test.nxc"
10	115	135		set __D0color, 9
10	114	138	#line 114 "C:\Users\Lshi\Documents\Extracurriculars\Gov School\Robotics\GSET_Robotics\Maze\409_Maze_Test.nxc"
10	115	138		cmp 4, __zfcolor, __signed_stack_001color, __D0color
10	114	142	#line 114 "C:\Users\Lshi\Documents\Extracurriculars\Gov School\Robotics\GSET_Robotics\Maze\409_Maze_Test.nxc"
10	115	142		mov __D0color, __zfcolor
10	115	145	#line 115 "C:\Users\Lshi\Documents\Extracurriculars\Gov School\Robotics\GSET_Robotics\Maze\409_Maze_Test.nxc"
10	116	145		brtst 4, __NXC_Label_584, __zfcolor
10	124	148	#line 124 "C:\Users\Lshi\Documents\Extracurriculars\Gov School\Robotics\GSET_Robotics\Maze\409_Maze_Test.nxc"
10	125	148		set mode, 2
10	124	151	#line 124 "C:\Users\Lshi\Documents\Extracurriculars\Gov School\Robotics\GSET_Robotics\Maze\409_Maze_Test.nxc"
10	124	151	#line 124 "C:\Users\Lshi\Documents\Extracurriculars\Gov School\Robotics\GSET_Robotics\Maze\409_Maze_Test.nxc"
10	127	151	#line 127 "C:\Users\Lshi\Documents\Extracurriculars\Gov School\Robotics\GSET_Robotics\Maze\409_Maze_Test.nxc"
10	127	151	#line 127 "C:\Users\Lshi\Documents\Extracurriculars\Gov School\Robotics\GSET_Robotics\Maze\409_Maze_Test.nxc"
10	129	151	#line 129 "C:\Users\Lshi\Documents\Extracurriculars\Gov School\Robotics\GSET_Robotics\Maze\409_Maze_Test.nxc"
10	130	151		jmp __NXC_Label_563
10	129	153	#line 129 "C:\Users\Lshi\Documents\Extracurriculars\Gov School\Robotics\GSET_Robotics\Maze\409_Maze_Test.nxc"
10	130	153		exit -1, -1
11	131	0	#line 131 "C:\Users\Lshi\Documents\Extracurriculars\Gov School\Robotics\GSET_Robotics\Maze\409_Maze_Test.nxc"
11	132	0		mov __driveUpToWall_7qG2_look_7qG2_000, __constVal0
11	131	2	#line 131 "C:\Users\Lshi\Documents\Extracurriculars\Gov School\Robotics\GSET_Robotics\Maze\409_Maze_Test.nxc"
11	132	2		subcall driveUpToWall, __driveUpToWall_return
11	131	5	#line 131 "C:\Users\Lshi\Documents\Extracurriculars\Gov School\Robotics\GSET_Robotics\Maze\409_Maze_Test.nxc"
11	131	5	#line 131 "C:\Users\Lshi\Documents\Extracurriculars\Gov School\Robotics\GSET_Robotics\Maze\409_Maze_Test.nxc"
11	132	5		mov __doubleWheelTurn_7qG2_degrees_7qG2_000, __constValNeg90
11	131	7	#line 131 "C:\Users\Lshi\Documents\Extracurriculars\Gov School\Robotics\GSET_Robotics\Maze\409_Maze_Test.nxc"
11	132	7	#line 132 "C:\Users\Lshi\Documents\Extracurriculars\Gov School\Robotics\GSET_Robotics\Maze\409_Maze_Test.nxc"
11	133	7		subcall doubleWheelTurn, __doubleWheelTurn_return
11	132	10	#line 132 "C:\Users\Lshi\Documents\Extracurriculars\Gov School\Robotics\GSET_Robotics\Maze\409_Maze_Test.nxc"
11	133	10	#line 133 "C:\Users\Lshi\Documents\Extracurriculars\Gov School\Robotics\GSET_Robotics\Maze\409_Maze_Test.nxc"
11	134	10		mov __driveUpToWall_7qG2_look_7qG2_000, __constVal0
11	133	12	#line 133 "C:\Users\Lshi\Documents\Extracurriculars\Gov School\Robotics\GSET_Robotics\Maze\409_Maze_Test.nxc"
11	134	12		subcall driveUpToWall, __driveUpToWall_return
11	133	15	#line 133 "C:\Users\Lshi\Documents\Extracurriculars\Gov School\Robotics\GSET_Robotics\Maze\409_Maze_Test.nxc"
11	133	15	#line 133 "C:\Users\Lshi\Documents\Extracurriculars\Gov School\Robotics\GSET_Robotics\Maze\409_Maze_Test.nxc"
11	134	15		set __doubleWheelTurn_7qG2_degrees_7qG2_000, 90
11	133	18	#line 133 "C:\Users\Lshi\Documents\Extracurriculars\Gov School\Robotics\GSET_Robotics\Maze\409_Maze_Test.nxc"
11	134	18	#line 134 "C:\Users\Lshi\Documents\Extracurriculars\Gov School\Robotics\GSET_Robotics\Maze\409_Maze_Test.nxc"
11	135	18		subcall doubleWheelTurn, __doubleWheelTurn_return
11	134	21	#line 134 "C:\Users\Lshi\Documents\Extracurriculars\Gov School\Robotics\GSET_Robotics\Maze\409_Maze_Test.nxc"
11	134	21	#line 134 "C:\Users\Lshi\Documents\Extracurriculars\Gov School\Robotics\GSET_Robotics\Maze\409_Maze_Test.nxc"
11	135	21		subcall ballFind, __ballFind_return
11	134	24	#line 134 "C:\Users\Lshi\Documents\Extracurriculars\Gov School\Robotics\GSET_Robotics\Maze\409_Maze_Test.nxc"
11	135	24		mov __D0mazeNav, __D0ballFind
11	139	26	#line 139 "C:\Users\Lshi\Documents\Extracurriculars\Gov School\Robotics\GSET_Robotics\Maze\409_Maze_Test.nxc"
11	140	26		tst 5, __zfmazeNav, __D0mazeNav
11	139	29	#line 139 "C:\Users\Lshi\Documents\Extracurriculars\Gov School\Robotics\GSET_Robotics\Maze\409_Maze_Test.nxc"
11	140	29		brtst 4, __NXC_Label_593, __zfmazeNav
11	145	32	#line 145 "C:\Users\Lshi\Documents\Extracurriculars\Gov School\Robotics\GSET_Robotics\Maze\409_Maze_Test.nxc"
11	146	32		subcall ballCatch, __ballCatch_return
11	145	35	#line 145 "C:\Users\Lshi\Documents\Extracurriculars\Gov School\Robotics\GSET_Robotics\Maze\409_Maze_Test.nxc"
11	146	35	#line 146 "C:\Users\Lshi\Documents\Extracurriculars\Gov School\Robotics\GSET_Robotics\Maze\409_Maze_Test.nxc"
11	147	35		mov __driveUpToWall_7qG2_look_7qG2_000, __constVal0
11	146	37	#line 146 "C:\Users\Lshi\Documents\Extracurriculars\Gov School\Robotics\GSET_Robotics\Maze\409_Maze_Test.nxc"
11	147	37		subcall driveUpToWall, __driveUpToWall_return
11	146	40	#line 146 "C:\Users\Lshi\Documents\Extracurriculars\Gov School\Robotics\GSET_Robotics\Maze\409_Maze_Test.nxc"
11	146	40	#line 146 "C:\Users\Lshi\Documents\Extracurriculars\Gov School\Robotics\GSET_Robotics\Maze\409_Maze_Test.nxc"
11	147	40		set __doubleWheelTurn_7qG2_degrees_7qG2_000, 90
11	146	43	#line 146 "C:\Users\Lshi\Documents\Extracurriculars\Gov School\Robotics\GSET_Robotics\Maze\409_Maze_Test.nxc"
11	147	43	#line 147 "C:\Users\Lshi\Documents\Extracurriculars\Gov School\Robotics\GSET_Robotics\Maze\409_Maze_Test.nxc"
11	148	43		subcall doubleWheelTurn, __doubleWheelTurn_return
11	147	46	#line 147 "C:\Users\Lshi\Documents\Extracurriculars\Gov School\Robotics\GSET_Robotics\Maze\409_Maze_Test.nxc"
11	147	46	#line 147 "C:\Users\Lshi\Documents\Extracurriculars\Gov School\Robotics\GSET_Robotics\Maze\409_Maze_Test.nxc"
11	148	46		set __driveUpToNotWall_7qG2_look2_7qG2_000, 90
11	147	49	#line 147 "C:\Users\Lshi\Documents\Extracurriculars\Gov School\Robotics\GSET_Robotics\Maze\409_Maze_Test.nxc"
11	148	49	#line 148 "C:\Users\Lshi\Documents\Extracurriculars\Gov School\Robotics\GSET_Robotics\Maze\409_Maze_Test.nxc"
11	149	49		subcall driveUpToNotWall, __driveUpToNotWall_return
11	148	52	#line 148 "C:\Users\Lshi\Documents\Extracurriculars\Gov School\Robotics\GSET_Robotics\Maze\409_Maze_Test.nxc"
11	148	52	#line 148 "C:\Users\Lshi\Documents\Extracurriculars\Gov School\Robotics\GSET_Robotics\Maze\409_Maze_Test.nxc"
11	149	52		mov __doubleWheelTurn_7qG2_degrees_7qG2_000, __constValNeg90
11	148	54	#line 148 "C:\Users\Lshi\Documents\Extracurriculars\Gov School\Robotics\GSET_Robotics\Maze\409_Maze_Test.nxc"
11	149	54	#line 149 "C:\Users\Lshi\Documents\Extracurriculars\Gov School\Robotics\GSET_Robotics\Maze\409_Maze_Test.nxc"
11	150	54		subcall doubleWheelTurn, __doubleWheelTurn_return
11	149	57	#line 149 "C:\Users\Lshi\Documents\Extracurriculars\Gov School\Robotics\GSET_Robotics\Maze\409_Maze_Test.nxc"
11	149	57	#line 149 "C:\Users\Lshi\Documents\Extracurriculars\Gov School\Robotics\GSET_Robotics\Maze\409_Maze_Test.nxc"
11	149	57	#line 149 "C:\Users\Lshi\Documents\Extracurriculars\Gov School\Robotics\GSET_Robotics\Maze\409_Maze_Test.nxc"
11	149	57	#line 149 "C:\Users\Lshi\Documents\Extracurriculars\Gov School\Robotics\GSET_Robotics\Maze\409_Maze_Test.nxc"
11	149	57	#line 149 "C:\Users\Lshi\Documents\Extracurriculars\Gov School\Robotics\GSET_Robotics\Maze\409_Maze_Test.nxc"
11	150	57		mul __signed_stack_001mazeNav, __constVal60, dir
11	149	61	#line 149 "C:\Users\Lshi\Documents\Extracurriculars\Gov School\Robotics\GSET_Robotics\Maze\409_Maze_Test.nxc"
11	149	61	#line 149 "C:\Users\Lshi\Documents\Extracurriculars\Gov School\Robotics\GSET_Robotics\Maze\409_Maze_Test.nxc"
11	150	61		set __D0mazeNav, 0
11	150	64	#line 150 "C:\Users\Lshi\Documents\Extracurriculars\Gov School\Robotics\GSET_Robotics\Maze\409_Maze_Test.nxc"
11	151	64	#pragma macro 7
11	151	64		setout __OUT_AC, 2, __signed_stack_001mazeNav, 1, __constVal7, 8, __constVal2, 7, __D0mazeNav, 6, __constVal32, 5, __constVal0, 10, __constVal96, 11, __constVal32, 12, __constVal32, 0, __constVal63
11	6157	87	#line 6157 "C:\Users\Lshi\Documents\Extracurriculars\Gov School\Robotics\GSET_Robotics\Maze\409_Maze_Test.nxc"
11	150	87	#line 150 "C:\Users\Lshi\Documents\Extracurriculars\Gov School\Robotics\GSET_Robotics\Maze\409_Maze_Test.nxc"
11	150	87	#line 150 "C:\Users\Lshi\Documents\Extracurriculars\Gov School\Robotics\GSET_Robotics\Maze\409_Maze_Test.nxc"
11	151	87		set __Wait_7qG2_ms_7qG2_000_inline_mazeNav, 5000
11	150	90	#line 150 "C:\Users\Lshi\Documents\Extracurriculars\Gov School\Robotics\GSET_Robotics\Maze\409_Maze_Test.nxc"
11	7921	90	#line 7921 "NXCDefs.h"
11	7922	90		wait2 NA, __Wait_7qG2_ms_7qG2_000_inline_mazeNav
11	7921	93	#line 7921 "NXCDefs.h"
11	151	93	#line 151 "C:\Users\Lshi\Documents\Extracurriculars\Gov School\Robotics\GSET_Robotics\Maze\409_Maze_Test.nxc"
11	151	93	#line 151 "C:\Users\Lshi\Documents\Extracurriculars\Gov School\Robotics\GSET_Robotics\Maze\409_Maze_Test.nxc"
11	152	93		set __signed_stack_001mazeNav, 0
11	151	96	#line 151 "C:\Users\Lshi\Documents\Extracurriculars\Gov School\Robotics\GSET_Robotics\Maze\409_Maze_Test.nxc"
11	151	96	#line 151 "C:\Users\Lshi\Documents\Extracurriculars\Gov School\Robotics\GSET_Robotics\Maze\409_Maze_Test.nxc"
11	152	96		set __D0mazeNav, 0
11	153	99	#line 153 "C:\Users\Lshi\Documents\Extracurriculars\Gov School\Robotics\GSET_Robotics\Maze\409_Maze_Test.nxc"
11	154	99	#pragma macro 7
11	154	99		setout __OUT_AC, 2, __signed_stack_001mazeNav, 1, __constVal7, 8, __constVal2, 7, __D0mazeNav, 6, __constVal32, 5, __constVal0, 10, __constVal96, 11, __constVal32, 12, __constVal32, 0, __constVal63
11	6184	122	#line 6184 "C:\Users\Lshi\Documents\Extracurriculars\Gov School\Robotics\GSET_Robotics\Maze\409_Maze_Test.nxc"
11	153	122	#line 153 "C:\Users\Lshi\Documents\Extracurriculars\Gov School\Robotics\GSET_Robotics\Maze\409_Maze_Test.nxc"
11	153	122	#line 153 "C:\Users\Lshi\Documents\Extracurriculars\Gov School\Robotics\GSET_Robotics\Maze\409_Maze_Test.nxc"
11	154	122		mov __Wait_7qG2_ms_7qG2_000_inline_mazeNav, __constVal100000
11	153	124	#line 153 "C:\Users\Lshi\Documents\Extracurriculars\Gov School\Robotics\GSET_Robotics\Maze\409_Maze_Test.nxc"
11	7921	124	#line 7921 "NXCDefs.h"
11	7922	124		wait2 NA, __Wait_7qG2_ms_7qG2_000_inline_mazeNav
11	7921	127	#line 7921 "NXCDefs.h"
11	154	127	#line 154 "C:\Users\Lshi\Documents\Extracurriculars\Gov School\Robotics\GSET_Robotics\Maze\409_Maze_Test.nxc"
11	155	127	#line 155 "C:\Users\Lshi\Documents\Extracurriculars\Gov School\Robotics\GSET_Robotics\Maze\409_Maze_Test.nxc"
11	155	127	#line 155 "C:\Users\Lshi\Documents\Extracurriculars\Gov School\Robotics\GSET_Robotics\Maze\409_Maze_Test.nxc"
11	156	127		set __doubleWheelTurn_7qG2_degrees_7qG2_000, 90
11	155	130	#line 155 "C:\Users\Lshi\Documents\Extracurriculars\Gov School\Robotics\GSET_Robotics\Maze\409_Maze_Test.nxc"
11	156	130	#line 156 "C:\Users\Lshi\Documents\Extracurriculars\Gov School\Robotics\GSET_Robotics\Maze\409_Maze_Test.nxc"
11	157	130		subcall doubleWheelTurn, __doubleWheelTurn_return
11	156	133	#line 156 "C:\Users\Lshi\Documents\Extracurriculars\Gov School\Robotics\GSET_Robotics\Maze\409_Maze_Test.nxc"
11	157	133	#line 157 "C:\Users\Lshi\Documents\Extracurriculars\Gov School\Robotics\GSET_Robotics\Maze\409_Maze_Test.nxc"
11	158	133		mov __driveUpToWall_7qG2_look_7qG2_000, __constVal0
11	157	135	#line 157 "C:\Users\Lshi\Documents\Extracurriculars\Gov School\Robotics\GSET_Robotics\Maze\409_Maze_Test.nxc"
11	158	135		subcall driveUpToWall, __driveUpToWall_return
11	157	138	#line 157 "C:\Users\Lshi\Documents\Extracurriculars\Gov School\Robotics\GSET_Robotics\Maze\409_Maze_Test.nxc"
11	157	138	#line 157 "C:\Users\Lshi\Documents\Extracurriculars\Gov School\Robotics\GSET_Robotics\Maze\409_Maze_Test.nxc"
11	158	138		mov __doubleWheelTurn_7qG2_degrees_7qG2_000, __constValNeg90
11	157	140	#line 157 "C:\Users\Lshi\Documents\Extracurriculars\Gov School\Robotics\GSET_Robotics\Maze\409_Maze_Test.nxc"
11	158	140	#line 158 "C:\Users\Lshi\Documents\Extracurriculars\Gov School\Robotics\GSET_Robotics\Maze\409_Maze_Test.nxc"
11	159	140		subcall doubleWheelTurn, __doubleWheelTurn_return
11	158	143	#line 158 "C:\Users\Lshi\Documents\Extracurriculars\Gov School\Robotics\GSET_Robotics\Maze\409_Maze_Test.nxc"
11	158	143	#line 158 "C:\Users\Lshi\Documents\Extracurriculars\Gov School\Robotics\GSET_Robotics\Maze\409_Maze_Test.nxc"
11	159	143		subcall ballFind, __ballFind_return
11	158	146	#line 158 "C:\Users\Lshi\Documents\Extracurriculars\Gov School\Robotics\GSET_Robotics\Maze\409_Maze_Test.nxc"
11	159	146		mov __D0mazeNav, __D0ballFind
11	162	148	#line 162 "C:\Users\Lshi\Documents\Extracurriculars\Gov School\Robotics\GSET_Robotics\Maze\409_Maze_Test.nxc"
11	163	148		tst 5, __zfmazeNav, __D0mazeNav
11	162	151	#line 162 "C:\Users\Lshi\Documents\Extracurriculars\Gov School\Robotics\GSET_Robotics\Maze\409_Maze_Test.nxc"
11	163	151		brtst 4, __NXC_Label_618, __zfmazeNav
11	168	154	#line 168 "C:\Users\Lshi\Documents\Extracurriculars\Gov School\Robotics\GSET_Robotics\Maze\409_Maze_Test.nxc"
11	169	154		subcall ballCatch, __ballCatch_return
11	168	157	#line 168 "C:\Users\Lshi\Documents\Extracurriculars\Gov School\Robotics\GSET_Robotics\Maze\409_Maze_Test.nxc"
11	169	157	#line 169 "C:\Users\Lshi\Documents\Extracurriculars\Gov School\Robotics\GSET_Robotics\Maze\409_Maze_Test.nxc"
11	170	157		mov __driveUpToWall_7qG2_look_7qG2_000, __constVal0
11	169	159	#line 169 "C:\Users\Lshi\Documents\Extracurriculars\Gov School\Robotics\GSET_Robotics\Maze\409_Maze_Test.nxc"
11	170	159		subcall driveUpToWall, __driveUpToWall_return
11	169	162	#line 169 "C:\Users\Lshi\Documents\Extracurriculars\Gov School\Robotics\GSET_Robotics\Maze\409_Maze_Test.nxc"
11	169	162	#line 169 "C:\Users\Lshi\Documents\Extracurriculars\Gov School\Robotics\GSET_Robotics\Maze\409_Maze_Test.nxc"
11	170	162		mov __doubleWheelTurn_7qG2_degrees_7qG2_000, __constValNeg90
11	169	164	#line 169 "C:\Users\Lshi\Documents\Extracurriculars\Gov School\Robotics\GSET_Robotics\Maze\409_Maze_Test.nxc"
11	170	164	#line 170 "C:\Users\Lshi\Documents\Extracurriculars\Gov School\Robotics\GSET_Robotics\Maze\409_Maze_Test.nxc"
11	171	164		subcall doubleWheelTurn, __doubleWheelTurn_return
11	170	167	#line 170 "C:\Users\Lshi\Documents\Extracurriculars\Gov School\Robotics\GSET_Robotics\Maze\409_Maze_Test.nxc"
11	170	167	#line 170 "C:\Users\Lshi\Documents\Extracurriculars\Gov School\Robotics\GSET_Robotics\Maze\409_Maze_Test.nxc"
11	171	167		mov __driveUpToNotWall_7qG2_look2_7qG2_000, __constValNeg90
11	170	169	#line 170 "C:\Users\Lshi\Documents\Extracurriculars\Gov School\Robotics\GSET_Robotics\Maze\409_Maze_Test.nxc"
11	171	169	#line 171 "C:\Users\Lshi\Documents\Extracurriculars\Gov School\Robotics\GSET_Robotics\Maze\409_Maze_Test.nxc"
11	172	169		subcall driveUpToNotWall, __driveUpToNotWall_return
11	171	172	#line 171 "C:\Users\Lshi\Documents\Extracurriculars\Gov School\Robotics\GSET_Robotics\Maze\409_Maze_Test.nxc"
11	171	172	#line 171 "C:\Users\Lshi\Documents\Extracurriculars\Gov School\Robotics\GSET_Robotics\Maze\409_Maze_Test.nxc"
11	172	172		set __doubleWheelTurn_7qG2_degrees_7qG2_000, 90
11	171	175	#line 171 "C:\Users\Lshi\Documents\Extracurriculars\Gov School\Robotics\GSET_Robotics\Maze\409_Maze_Test.nxc"
11	172	175	#line 172 "C:\Users\Lshi\Documents\Extracurriculars\Gov School\Robotics\GSET_Robotics\Maze\409_Maze_Test.nxc"
11	173	175		subcall doubleWheelTurn, __doubleWheelTurn_return
11	172	178	#line 172 "C:\Users\Lshi\Documents\Extracurriculars\Gov School\Robotics\GSET_Robotics\Maze\409_Maze_Test.nxc"
11	172	178	#line 172 "C:\Users\Lshi\Documents\Extracurriculars\Gov School\Robotics\GSET_Robotics\Maze\409_Maze_Test.nxc"
11	172	178	#line 172 "C:\Users\Lshi\Documents\Extracurriculars\Gov School\Robotics\GSET_Robotics\Maze\409_Maze_Test.nxc"
11	172	178	#line 172 "C:\Users\Lshi\Documents\Extracurriculars\Gov School\Robotics\GSET_Robotics\Maze\409_Maze_Test.nxc"
11	172	178	#line 172 "C:\Users\Lshi\Documents\Extracurriculars\Gov School\Robotics\GSET_Robotics\Maze\409_Maze_Test.nxc"
11	173	178		mul __signed_stack_001mazeNav, __constVal60, dir
11	172	182	#line 172 "C:\Users\Lshi\Documents\Extracurriculars\Gov School\Robotics\GSET_Robotics\Maze\409_Maze_Test.nxc"
11	172	182	#line 172 "C:\Users\Lshi\Documents\Extracurriculars\Gov School\Robotics\GSET_Robotics\Maze\409_Maze_Test.nxc"
11	173	182		set __D0mazeNav, 0
11	173	185	#line 173 "C:\Users\Lshi\Documents\Extracurriculars\Gov School\Robotics\GSET_Robotics\Maze\409_Maze_Test.nxc"
11	174	185	#pragma macro 7
11	174	185		setout __OUT_AC, 2, __signed_stack_001mazeNav, 1, __constVal7, 8, __constVal2, 7, __D0mazeNav, 6, __constVal32, 5, __constVal0, 10, __constVal96, 11, __constVal32, 12, __constVal32, 0, __constVal63
11	6283	208	#line 6283 "C:\Users\Lshi\Documents\Extracurriculars\Gov School\Robotics\GSET_Robotics\Maze\409_Maze_Test.nxc"
11	173	208	#line 173 "C:\Users\Lshi\Documents\Extracurriculars\Gov School\Robotics\GSET_Robotics\Maze\409_Maze_Test.nxc"
11	173	208	#line 173 "C:\Users\Lshi\Documents\Extracurriculars\Gov School\Robotics\GSET_Robotics\Maze\409_Maze_Test.nxc"
11	174	208		set __Wait_7qG2_ms_7qG2_000_inline_mazeNav, 5000
11	173	211	#line 173 "C:\Users\Lshi\Documents\Extracurriculars\Gov School\Robotics\GSET_Robotics\Maze\409_Maze_Test.nxc"
11	7921	211	#line 7921 "NXCDefs.h"
11	7922	211		wait2 NA, __Wait_7qG2_ms_7qG2_000_inline_mazeNav
11	7921	214	#line 7921 "NXCDefs.h"
11	174	214	#line 174 "C:\Users\Lshi\Documents\Extracurriculars\Gov School\Robotics\GSET_Robotics\Maze\409_Maze_Test.nxc"
11	174	214	#line 174 "C:\Users\Lshi\Documents\Extracurriculars\Gov School\Robotics\GSET_Robotics\Maze\409_Maze_Test.nxc"
11	175	214		set __signed_stack_001mazeNav, 0
11	174	217	#line 174 "C:\Users\Lshi\Documents\Extracurriculars\Gov School\Robotics\GSET_Robotics\Maze\409_Maze_Test.nxc"
11	174	217	#line 174 "C:\Users\Lshi\Documents\Extracurriculars\Gov School\Robotics\GSET_Robotics\Maze\409_Maze_Test.nxc"
11	175	217		set __D0mazeNav, 0
11	175	220	#line 175 "C:\Users\Lshi\Documents\Extracurriculars\Gov School\Robotics\GSET_Robotics\Maze\409_Maze_Test.nxc"
11	176	220	#pragma macro 7
11	176	220		setout __OUT_AC, 2, __signed_stack_001mazeNav, 1, __constVal7, 8, __constVal2, 7, __D0mazeNav, 6, __constVal32, 5, __constVal0, 10, __constVal96, 11, __constVal32, 12, __constVal32, 0, __constVal63
11	6306	243	#line 6306 "C:\Users\Lshi\Documents\Extracurriculars\Gov School\Robotics\GSET_Robotics\Maze\409_Maze_Test.nxc"
11	175	243	#line 175 "C:\Users\Lshi\Documents\Extracurriculars\Gov School\Robotics\GSET_Robotics\Maze\409_Maze_Test.nxc"
11	175	243	#line 175 "C:\Users\Lshi\Documents\Extracurriculars\Gov School\Robotics\GSET_Robotics\Maze\409_Maze_Test.nxc"
11	176	243		mov __Wait_7qG2_ms_7qG2_000_inline_mazeNav, __constVal999999
11	175	245	#line 175 "C:\Users\Lshi\Documents\Extracurriculars\Gov School\Robotics\GSET_Robotics\Maze\409_Maze_Test.nxc"
11	7921	245	#line 7921 "NXCDefs.h"
11	7922	245		wait2 NA, __Wait_7qG2_ms_7qG2_000_inline_mazeNav
11	7921	248	#line 7921 "NXCDefs.h"
11	176	248	#line 176 "C:\Users\Lshi\Documents\Extracurriculars\Gov School\Robotics\GSET_Robotics\Maze\409_Maze_Test.nxc"
11	177	248	#line 177 "C:\Users\Lshi\Documents\Extracurriculars\Gov School\Robotics\GSET_Robotics\Maze\409_Maze_Test.nxc"
11	177	248	#line 177 "C:\Users\Lshi\Documents\Extracurriculars\Gov School\Robotics\GSET_Robotics\Maze\409_Maze_Test.nxc"
11	178	248		mov __doubleWheelTurn_7qG2_degrees_7qG2_000, __constValNeg90
11	177	250	#line 177 "C:\Users\Lshi\Documents\Extracurriculars\Gov School\Robotics\GSET_Robotics\Maze\409_Maze_Test.nxc"
11	178	250	#line 178 "C:\Users\Lshi\Documents\Extracurriculars\Gov School\Robotics\GSET_Robotics\Maze\409_Maze_Test.nxc"
11	179	250		subcall doubleWheelTurn, __doubleWheelTurn_return
11	178	253	#line 178 "C:\Users\Lshi\Documents\Extracurriculars\Gov School\Robotics\GSET_Robotics\Maze\409_Maze_Test.nxc"
11	178	253	#line 178 "C:\Users\Lshi\Documents\Extracurriculars\Gov School\Robotics\GSET_Robotics\Maze\409_Maze_Test.nxc"
11	179	253		mov __driveUpToWall_7qG2_look_7qG2_000, __constValNeg90
11	178	255	#line 178 "C:\Users\Lshi\Documents\Extracurriculars\Gov School\Robotics\GSET_Robotics\Maze\409_Maze_Test.nxc"
11	179	255	#line 179 "C:\Users\Lshi\Documents\Extracurriculars\Gov School\Robotics\GSET_Robotics\Maze\409_Maze_Test.nxc"
11	180	255		subcall driveUpToWall, __driveUpToWall_return
11	179	258	#line 179 "C:\Users\Lshi\Documents\Extracurriculars\Gov School\Robotics\GSET_Robotics\Maze\409_Maze_Test.nxc"
11	179	258	#line 179 "C:\Users\Lshi\Documents\Extracurriculars\Gov School\Robotics\GSET_Robotics\Maze\409_Maze_Test.nxc"
11	179	258	#line 179 "C:\Users\Lshi\Documents\Extracurriculars\Gov School\Robotics\GSET_Robotics\Maze\409_Maze_Test.nxc"
11	179	258	#line 179 "C:\Users\Lshi\Documents\Extracurriculars\Gov School\Robotics\GSET_Robotics\Maze\409_Maze_Test.nxc"
11	179	258	#line 179 "C:\Users\Lshi\Documents\Extracurriculars\Gov School\Robotics\GSET_Robotics\Maze\409_Maze_Test.nxc"
11	180	258		mul __signed_stack_001mazeNav, dir, __constVal60
11	179	262	#line 179 "C:\Users\Lshi\Documents\Extracurriculars\Gov School\Robotics\GSET_Robotics\Maze\409_Maze_Test.nxc"
11	179	262	#line 179 "C:\Users\Lshi\Documents\Extracurriculars\Gov School\Robotics\GSET_Robotics\Maze\409_Maze_Test.nxc"
11	180	262		set __D0mazeNav, 0
11	180	265	#line 180 "C:\Users\Lshi\Documents\Extracurriculars\Gov School\Robotics\GSET_Robotics\Maze\409_Maze_Test.nxc"
11	181	265	#pragma macro 7
11	181	265		setout __OUT_AC, 2, __signed_stack_001mazeNav, 1, __constVal7, 8, __constVal2, 7, __D0mazeNav, 6, __constVal32, 5, __constVal0, 10, __constVal96, 11, __constVal32, 12, __constVal32, 0, __constVal63
11	6355	288	#line 6355 "C:\Users\Lshi\Documents\Extracurriculars\Gov School\Robotics\GSET_Robotics\Maze\409_Maze_Test.nxc"
11	180	288	#line 180 "C:\Users\Lshi\Documents\Extracurriculars\Gov School\Robotics\GSET_Robotics\Maze\409_Maze_Test.nxc"
11	180	288	#line 180 "C:\Users\Lshi\Documents\Extracurriculars\Gov School\Robotics\GSET_Robotics\Maze\409_Maze_Test.nxc"
11	181	288		set __Wait_7qG2_ms_7qG2_000_inline_mazeNav, 500
11	180	291	#line 180 "C:\Users\Lshi\Documents\Extracurriculars\Gov School\Robotics\GSET_Robotics\Maze\409_Maze_Test.nxc"
11	7921	291	#line 7921 "NXCDefs.h"
11	7922	291		wait2 NA, __Wait_7qG2_ms_7qG2_000_inline_mazeNav
11	7921	294	#line 7921 "NXCDefs.h"
11	181	294	#line 181 "C:\Users\Lshi\Documents\Extracurriculars\Gov School\Robotics\GSET_Robotics\Maze\409_Maze_Test.nxc"
11	181	294	#line 181 "C:\Users\Lshi\Documents\Extracurriculars\Gov School\Robotics\GSET_Robotics\Maze\409_Maze_Test.nxc"
11	182	294		mov __driveUpToNotWall_7qG2_look2_7qG2_000, __constValNeg90
11	181	296	#line 181 "C:\Users\Lshi\Documents\Extracurriculars\Gov School\Robotics\GSET_Robotics\Maze\409_Maze_Test.nxc"
11	182	296	#line 182 "C:\Users\Lshi\Documents\Extracurriculars\Gov School\Robotics\GSET_Robotics\Maze\409_Maze_Test.nxc"
11	183	296		subcall driveUpToNotWall, __driveUpToNotWall_return
11	182	299	#line 182 "C:\Users\Lshi\Documents\Extracurriculars\Gov School\Robotics\GSET_Robotics\Maze\409_Maze_Test.nxc"
11	182	299	#line 182 "C:\Users\Lshi\Documents\Extracurriculars\Gov School\Robotics\GSET_Robotics\Maze\409_Maze_Test.nxc"
11	183	299		set __singleWheelTurn_7qG2_motor_7qG2_000, 2
11	182	302	#line 182 "C:\Users\Lshi\Documents\Extracurriculars\Gov School\Robotics\GSET_Robotics\Maze\409_Maze_Test.nxc"
11	182	302	#line 182 "C:\Users\Lshi\Documents\Extracurriculars\Gov School\Robotics\GSET_Robotics\Maze\409_Maze_Test.nxc"
11	183	302		set __singleWheelTurn_7qG2_degrees_7qG2_000, 90
11	182	305	#line 182 "C:\Users\Lshi\Documents\Extracurriculars\Gov School\Robotics\GSET_Robotics\Maze\409_Maze_Test.nxc"
11	183	305	#line 183 "C:\Users\Lshi\Documents\Extracurriculars\Gov School\Robotics\GSET_Robotics\Maze\409_Maze_Test.nxc"
11	184	305		subcall singleWheelTurn, __singleWheelTurn_return
11	183	308	#line 183 "C:\Users\Lshi\Documents\Extracurriculars\Gov School\Robotics\GSET_Robotics\Maze\409_Maze_Test.nxc"
11	183	308	#line 183 "C:\Users\Lshi\Documents\Extracurriculars\Gov School\Robotics\GSET_Robotics\Maze\409_Maze_Test.nxc"
11	184	308		mov __signed_stack_001mazeNav, __constValNeg30
11	183	310	#line 183 "C:\Users\Lshi\Documents\Extracurriculars\Gov School\Robotics\GSET_Robotics\Maze\409_Maze_Test.nxc"
11	183	310	#line 183 "C:\Users\Lshi\Documents\Extracurriculars\Gov School\Robotics\GSET_Robotics\Maze\409_Maze_Test.nxc"
11	184	310		set __D0mazeNav, 0
11	184	313	#line 184 "C:\Users\Lshi\Documents\Extracurriculars\Gov School\Robotics\GSET_Robotics\Maze\409_Maze_Test.nxc"
11	185	313	#pragma macro 7
11	185	313		setout __OUT_AC, 2, __signed_stack_001mazeNav, 1, __constVal7, 8, __constVal2, 7, __D0mazeNav, 6, __constVal32, 5, __constVal0, 10, __constVal96, 11, __constVal32, 12, __constVal32, 0, __constVal63
11	6402	336	#line 6402 "C:\Users\Lshi\Documents\Extracurriculars\Gov School\Robotics\GSET_Robotics\Maze\409_Maze_Test.nxc"
11	184	336	#line 184 "C:\Users\Lshi\Documents\Extracurriculars\Gov School\Robotics\GSET_Robotics\Maze\409_Maze_Test.nxc"
11	184	336	#line 184 "C:\Users\Lshi\Documents\Extracurriculars\Gov School\Robotics\GSET_Robotics\Maze\409_Maze_Test.nxc"
11	185	336		set __Wait_7qG2_ms_7qG2_000_inline_mazeNav, 1750
11	184	339	#line 184 "C:\Users\Lshi\Documents\Extracurriculars\Gov School\Robotics\GSET_Robotics\Maze\409_Maze_Test.nxc"
11	7921	339	#line 7921 "NXCDefs.h"
11	7922	339		wait2 NA, __Wait_7qG2_ms_7qG2_000_inline_mazeNav
11	7921	342	#line 7921 "NXCDefs.h"
11	185	342	#line 185 "C:\Users\Lshi\Documents\Extracurriculars\Gov School\Robotics\GSET_Robotics\Maze\409_Maze_Test.nxc"
11	185	342	#line 185 "C:\Users\Lshi\Documents\Extracurriculars\Gov School\Robotics\GSET_Robotics\Maze\409_Maze_Test.nxc"
11	186	342		set __turnHeadTo_7qG2_degrees_7qG2_000, 0
11	185	345	#line 185 "C:\Users\Lshi\Documents\Extracurriculars\Gov School\Robotics\GSET_Robotics\Maze\409_Maze_Test.nxc"
11	187	345	#line 187 "C:\Users\Lshi\Documents\Extracurriculars\Gov School\Robotics\GSET_Robotics\Maze\409_Maze_Test.nxc"
11	188	345		subcall turnHeadTo, __turnHeadTo_return
11	187	348	#line 187 "C:\Users\Lshi\Documents\Extracurriculars\Gov School\Robotics\GSET_Robotics\Maze\409_Maze_Test.nxc"
11	187	348	#line 187 "C:\Users\Lshi\Documents\Extracurriculars\Gov School\Robotics\GSET_Robotics\Maze\409_Maze_Test.nxc"
11	188	348		subcall ballFind, __ballFind_return
11	187	351	#line 187 "C:\Users\Lshi\Documents\Extracurriculars\Gov School\Robotics\GSET_Robotics\Maze\409_Maze_Test.nxc"
11	188	351		mov __D0mazeNav, __D0ballFind
11	193	353	#line 193 "C:\Users\Lshi\Documents\Extracurriculars\Gov School\Robotics\GSET_Robotics\Maze\409_Maze_Test.nxc"
11	194	353		tst 5, __zfmazeNav, __D0mazeNav
11	193	356	#line 193 "C:\Users\Lshi\Documents\Extracurriculars\Gov School\Robotics\GSET_Robotics\Maze\409_Maze_Test.nxc"
11	194	356		brtst 4, __NXC_Label_663, __zfmazeNav
11	195	359	#line 195 "C:\Users\Lshi\Documents\Extracurriculars\Gov School\Robotics\GSET_Robotics\Maze\409_Maze_Test.nxc"
11	196	359		subcall ballCatch, __ballCatch_return
11	195	362	#line 195 "C:\Users\Lshi\Documents\Extracurriculars\Gov School\Robotics\GSET_Robotics\Maze\409_Maze_Test.nxc"
11	195	362	#line 195 "C:\Users\Lshi\Documents\Extracurriculars\Gov School\Robotics\GSET_Robotics\Maze\409_Maze_Test.nxc"
11	196	362		subcall ballFind, __ballFind_return
11	195	365	#line 195 "C:\Users\Lshi\Documents\Extracurriculars\Gov School\Robotics\GSET_Robotics\Maze\409_Maze_Test.nxc"
11	196	365		mov __signed_stack_001mazeNav, __D0ballFind
11	195	367	#line 195 "C:\Users\Lshi\Documents\Extracurriculars\Gov School\Robotics\GSET_Robotics\Maze\409_Maze_Test.nxc"
11	195	367	#line 195 "C:\Users\Lshi\Documents\Extracurriculars\Gov School\Robotics\GSET_Robotics\Maze\409_Maze_Test.nxc"
11	196	367		set __D0mazeNav, 5
11	195	370	#line 195 "C:\Users\Lshi\Documents\Extracurriculars\Gov School\Robotics\GSET_Robotics\Maze\409_Maze_Test.nxc"
11	196	370		cmp 1, __zfmazeNav, __signed_stack_001mazeNav, __D0mazeNav
11	195	374	#line 195 "C:\Users\Lshi\Documents\Extracurriculars\Gov School\Robotics\GSET_Robotics\Maze\409_Maze_Test.nxc"
11	196	374		mov __D0mazeNav, __zfmazeNav
11	196	377	#line 196 "C:\Users\Lshi\Documents\Extracurriculars\Gov School\Robotics\GSET_Robotics\Maze\409_Maze_Test.nxc"
11	197	377		brtst 4, __NXC_Label_666, __zfmazeNav
11	197	380	#line 197 "C:\Users\Lshi\Documents\Extracurriculars\Gov School\Robotics\GSET_Robotics\Maze\409_Maze_Test.nxc"
11	198	380		subcall ballCatch, __ballCatch_return
11	197	383	#line 197 "C:\Users\Lshi\Documents\Extracurriculars\Gov School\Robotics\GSET_Robotics\Maze\409_Maze_Test.nxc"
11	198	383	#line 198 "C:\Users\Lshi\Documents\Extracurriculars\Gov School\Robotics\GSET_Robotics\Maze\409_Maze_Test.nxc"
11	199	383		mov __driveUpToWall_7qG2_look_7qG2_000, __constVal0
11	198	385	#line 198 "C:\Users\Lshi\Documents\Extracurriculars\Gov School\Robotics\GSET_Robotics\Maze\409_Maze_Test.nxc"
11	199	385		subcall driveUpToWall, __driveUpToWall_return
11	198	388	#line 198 "C:\Users\Lshi\Documents\Extracurriculars\Gov School\Robotics\GSET_Robotics\Maze\409_Maze_Test.nxc"
11	198	388	#line 198 "C:\Users\Lshi\Documents\Extracurriculars\Gov School\Robotics\GSET_Robotics\Maze\409_Maze_Test.nxc"
11	199	388		set __doubleWheelTurn_7qG2_degrees_7qG2_000, 90
11	198	391	#line 198 "C:\Users\Lshi\Documents\Extracurriculars\Gov School\Robotics\GSET_Robotics\Maze\409_Maze_Test.nxc"
11	199	391	#line 199 "C:\Users\Lshi\Documents\Extracurriculars\Gov School\Robotics\GSET_Robotics\Maze\409_Maze_Test.nxc"
11	200	391		subcall doubleWheelTurn, __doubleWheelTurn_return
11	199	394	#line 199 "C:\Users\Lshi\Documents\Extracurriculars\Gov School\Robotics\GSET_Robotics\Maze\409_Maze_Test.nxc"
11	199	394	#line 199 "C:\Users\Lshi\Documents\Extracurriculars\Gov School\Robotics\GSET_Robotics\Maze\409_Maze_Test.nxc"
11	200	394		set __driveUpToNotWall_7qG2_look2_7qG2_000, 90
11	199	397	#line 199 "C:\Users\Lshi\Documents\Extracurriculars\Gov School\Robotics\GSET_Robotics\Maze\409_Maze_Test.nxc"
11	200	397	#line 200 "C:\Users\Lshi\Documents\Extracurriculars\Gov School\Robotics\GSET_Robotics\Maze\409_Maze_Test.nxc"
11	201	397		subcall driveUpToNotWall, __driveUpToNotWall_return
11	200	400	#line 200 "C:\Users\Lshi\Documents\Extracurriculars\Gov School\Robotics\GSET_Robotics\Maze\409_Maze_Test.nxc"
11	200	400	#line 200 "C:\Users\Lshi\Documents\Extracurriculars\Gov School\Robotics\GSET_Robotics\Maze\409_Maze_Test.nxc"
11	201	400		mov __doubleWheelTurn_7qG2_degrees_7qG2_000, __constValNeg90
11	200	402	#line 200 "C:\Users\Lshi\Documents\Extracurriculars\Gov School\Robotics\GSET_Robotics\Maze\409_Maze_Test.nxc"
11	201	402	#line 201 "C:\Users\Lshi\Documents\Extracurriculars\Gov School\Robotics\GSET_Robotics\Maze\409_Maze_Test.nxc"
11	202	402		subcall doubleWheelTurn, __doubleWheelTurn_return
11	201	405	#line 201 "C:\Users\Lshi\Documents\Extracurriculars\Gov School\Robotics\GSET_Robotics\Maze\409_Maze_Test.nxc"
11	201	405	#line 201 "C:\Users\Lshi\Documents\Extracurriculars\Gov School\Robotics\GSET_Robotics\Maze\409_Maze_Test.nxc"
11	201	405	#line 201 "C:\Users\Lshi\Documents\Extracurriculars\Gov School\Robotics\GSET_Robotics\Maze\409_Maze_Test.nxc"
11	201	405	#line 201 "C:\Users\Lshi\Documents\Extracurriculars\Gov School\Robotics\GSET_Robotics\Maze\409_Maze_Test.nxc"
11	201	405	#line 201 "C:\Users\Lshi\Documents\Extracurriculars\Gov School\Robotics\GSET_Robotics\Maze\409_Maze_Test.nxc"
11	202	405		mul __signed_stack_001mazeNav, __constVal60, dir
11	201	409	#line 201 "C:\Users\Lshi\Documents\Extracurriculars\Gov School\Robotics\GSET_Robotics\Maze\409_Maze_Test.nxc"
11	201	409	#line 201 "C:\Users\Lshi\Documents\Extracurriculars\Gov School\Robotics\GSET_Robotics\Maze\409_Maze_Test.nxc"
11	202	409		set __D0mazeNav, 0
11	202	412	#line 202 "C:\Users\Lshi\Documents\Extracurriculars\Gov School\Robotics\GSET_Robotics\Maze\409_Maze_Test.nxc"
11	203	412	#pragma macro 7
11	203	412		setout __OUT_AC, 2, __signed_stack_001mazeNav, 1, __constVal7, 8, __constVal2, 7, __D0mazeNav, 6, __constVal32, 5, __constVal0, 10, __constVal96, 11, __constVal32, 12, __constVal32, 0, __constVal63
11	6504	435	#line 6504 "C:\Users\Lshi\Documents\Extracurriculars\Gov School\Robotics\GSET_Robotics\Maze\409_Maze_Test.nxc"
11	202	435	#line 202 "C:\Users\Lshi\Documents\Extracurriculars\Gov School\Robotics\GSET_Robotics\Maze\409_Maze_Test.nxc"
11	202	435	#line 202 "C:\Users\Lshi\Documents\Extracurriculars\Gov School\Robotics\GSET_Robotics\Maze\409_Maze_Test.nxc"
11	203	435		set __Wait_7qG2_ms_7qG2_000_inline_mazeNav, 5000
11	202	438	#line 202 "C:\Users\Lshi\Documents\Extracurriculars\Gov School\Robotics\GSET_Robotics\Maze\409_Maze_Test.nxc"
11	7921	438	#line 7921 "NXCDefs.h"
11	7922	438		wait2 NA, __Wait_7qG2_ms_7qG2_000_inline_mazeNav
11	7921	441	#line 7921 "NXCDefs.h"
11	203	441	#line 203 "C:\Users\Lshi\Documents\Extracurriculars\Gov School\Robotics\GSET_Robotics\Maze\409_Maze_Test.nxc"
11	203	441	#line 203 "C:\Users\Lshi\Documents\Extracurriculars\Gov School\Robotics\GSET_Robotics\Maze\409_Maze_Test.nxc"
11	204	441		set __signed_stack_001mazeNav, 0
11	203	444	#line 203 "C:\Users\Lshi\Documents\Extracurriculars\Gov School\Robotics\GSET_Robotics\Maze\409_Maze_Test.nxc"
11	203	444	#line 203 "C:\Users\Lshi\Documents\Extracurriculars\Gov School\Robotics\GSET_Robotics\Maze\409_Maze_Test.nxc"
11	204	444		set __D0mazeNav, 0
11	204	447	#line 204 "C:\Users\Lshi\Documents\Extracurriculars\Gov School\Robotics\GSET_Robotics\Maze\409_Maze_Test.nxc"
11	205	447	#pragma macro 7
11	205	447		setout __OUT_AC, 2, __signed_stack_001mazeNav, 1, __constVal7, 8, __constVal2, 7, __D0mazeNav, 6, __constVal32, 5, __constVal0, 10, __constVal96, 11, __constVal32, 12, __constVal32, 0, __constVal63
11	6527	470	#line 6527 "C:\Users\Lshi\Documents\Extracurriculars\Gov School\Robotics\GSET_Robotics\Maze\409_Maze_Test.nxc"
11	204	470	#line 204 "C:\Users\Lshi\Documents\Extracurriculars\Gov School\Robotics\GSET_Robotics\Maze\409_Maze_Test.nxc"
11	204	470	#line 204 "C:\Users\Lshi\Documents\Extracurriculars\Gov School\Robotics\GSET_Robotics\Maze\409_Maze_Test.nxc"
11	205	470		mov __Wait_7qG2_ms_7qG2_000_inline_mazeNav, __constVal203940234
11	204	472	#line 204 "C:\Users\Lshi\Documents\Extracurriculars\Gov School\Robotics\GSET_Robotics\Maze\409_Maze_Test.nxc"
11	7921	472	#line 7921 "NXCDefs.h"
11	7922	472		wait2 NA, __Wait_7qG2_ms_7qG2_000_inline_mazeNav
11	7921	475	#line 7921 "NXCDefs.h"
11	205	475	#line 205 "C:\Users\Lshi\Documents\Extracurriculars\Gov School\Robotics\GSET_Robotics\Maze\409_Maze_Test.nxc"
11	206	475	#line 206 "C:\Users\Lshi\Documents\Extracurriculars\Gov School\Robotics\GSET_Robotics\Maze\409_Maze_Test.nxc"
11	207	475		jmp __NXC_Label_685
11	206	477	#line 206 "C:\Users\Lshi\Documents\Extracurriculars\Gov School\Robotics\GSET_Robotics\Maze\409_Maze_Test.nxc"
11	207	477		subcall ballFind, __ballFind_return
11	206	480	#line 206 "C:\Users\Lshi\Documents\Extracurriculars\Gov School\Robotics\GSET_Robotics\Maze\409_Maze_Test.nxc"
11	207	480		mov __signed_stack_001mazeNav, __D0ballFind
11	206	482	#line 206 "C:\Users\Lshi\Documents\Extracurriculars\Gov School\Robotics\GSET_Robotics\Maze\409_Maze_Test.nxc"
11	206	482	#line 206 "C:\Users\Lshi\Documents\Extracurriculars\Gov School\Robotics\GSET_Robotics\Maze\409_Maze_Test.nxc"
11	207	482		set __D0mazeNav, 5
11	206	485	#line 206 "C:\Users\Lshi\Documents\Extracurriculars\Gov School\Robotics\GSET_Robotics\Maze\409_Maze_Test.nxc"
11	207	485		cmp 0, __zfmazeNav, __signed_stack_001mazeNav, __D0mazeNav
11	206	489	#line 206 "C:\Users\Lshi\Documents\Extracurriculars\Gov School\Robotics\GSET_Robotics\Maze\409_Maze_Test.nxc"
11	207	489		mov __D0mazeNav, __zfmazeNav
11	207	492	#line 207 "C:\Users\Lshi\Documents\Extracurriculars\Gov School\Robotics\GSET_Robotics\Maze\409_Maze_Test.nxc"
11	208	492		brtst 4, __NXC_Label_688, __zfmazeNav
11	208	495	#line 208 "C:\Users\Lshi\Documents\Extracurriculars\Gov School\Robotics\GSET_Robotics\Maze\409_Maze_Test.nxc"
11	209	495		mov __driveUpToWall_7qG2_look_7qG2_000, __constVal0
11	208	497	#line 208 "C:\Users\Lshi\Documents\Extracurriculars\Gov School\Robotics\GSET_Robotics\Maze\409_Maze_Test.nxc"
11	209	497		subcall driveUpToWall, __driveUpToWall_return
11	208	500	#line 208 "C:\Users\Lshi\Documents\Extracurriculars\Gov School\Robotics\GSET_Robotics\Maze\409_Maze_Test.nxc"
11	208	500	#line 208 "C:\Users\Lshi\Documents\Extracurriculars\Gov School\Robotics\GSET_Robotics\Maze\409_Maze_Test.nxc"
11	209	500		mov __doubleWheelTurn_7qG2_degrees_7qG2_000, __constValNeg90
11	208	502	#line 208 "C:\Users\Lshi\Documents\Extracurriculars\Gov School\Robotics\GSET_Robotics\Maze\409_Maze_Test.nxc"
11	209	502	#line 209 "C:\Users\Lshi\Documents\Extracurriculars\Gov School\Robotics\GSET_Robotics\Maze\409_Maze_Test.nxc"
11	210	502		subcall doubleWheelTurn, __doubleWheelTurn_return
11	209	505	#line 209 "C:\Users\Lshi\Documents\Extracurriculars\Gov School\Robotics\GSET_Robotics\Maze\409_Maze_Test.nxc"
11	210	505	#line 210 "C:\Users\Lshi\Documents\Extracurriculars\Gov School\Robotics\GSET_Robotics\Maze\409_Maze_Test.nxc"
11	211	505		mov __driveUpToWall_7qG2_look_7qG2_000, __constVal0
11	210	507	#line 210 "C:\Users\Lshi\Documents\Extracurriculars\Gov School\Robotics\GSET_Robotics\Maze\409_Maze_Test.nxc"
11	211	507		subcall driveUpToWall, __driveUpToWall_return
11	210	510	#line 210 "C:\Users\Lshi\Documents\Extracurriculars\Gov School\Robotics\GSET_Robotics\Maze\409_Maze_Test.nxc"
11	210	510	#line 210 "C:\Users\Lshi\Documents\Extracurriculars\Gov School\Robotics\GSET_Robotics\Maze\409_Maze_Test.nxc"
11	211	510		set __doubleWheelTurn_7qG2_degrees_7qG2_000, 90
11	210	513	#line 210 "C:\Users\Lshi\Documents\Extracurriculars\Gov School\Robotics\GSET_Robotics\Maze\409_Maze_Test.nxc"
11	211	513	#line 211 "C:\Users\Lshi\Documents\Extracurriculars\Gov School\Robotics\GSET_Robotics\Maze\409_Maze_Test.nxc"
11	212	513		subcall doubleWheelTurn, __doubleWheelTurn_return
11	211	516	#line 211 "C:\Users\Lshi\Documents\Extracurriculars\Gov School\Robotics\GSET_Robotics\Maze\409_Maze_Test.nxc"
11	212	516	#line 212 "C:\Users\Lshi\Documents\Extracurriculars\Gov School\Robotics\GSET_Robotics\Maze\409_Maze_Test.nxc"
11	213	516		mov __driveUpToWall_7qG2_look_7qG2_000, __constVal0
11	212	518	#line 212 "C:\Users\Lshi\Documents\Extracurriculars\Gov School\Robotics\GSET_Robotics\Maze\409_Maze_Test.nxc"
11	213	518		subcall driveUpToWall, __driveUpToWall_return
11	212	521	#line 212 "C:\Users\Lshi\Documents\Extracurriculars\Gov School\Robotics\GSET_Robotics\Maze\409_Maze_Test.nxc"
11	212	521	#line 212 "C:\Users\Lshi\Documents\Extracurriculars\Gov School\Robotics\GSET_Robotics\Maze\409_Maze_Test.nxc"
11	213	521		set __doubleWheelTurn_7qG2_degrees_7qG2_000, 90
11	212	524	#line 212 "C:\Users\Lshi\Documents\Extracurriculars\Gov School\Robotics\GSET_Robotics\Maze\409_Maze_Test.nxc"
11	213	524	#line 213 "C:\Users\Lshi\Documents\Extracurriculars\Gov School\Robotics\GSET_Robotics\Maze\409_Maze_Test.nxc"
11	214	524		subcall doubleWheelTurn, __doubleWheelTurn_return
11	213	527	#line 213 "C:\Users\Lshi\Documents\Extracurriculars\Gov School\Robotics\GSET_Robotics\Maze\409_Maze_Test.nxc"
11	213	527	#line 213 "C:\Users\Lshi\Documents\Extracurriculars\Gov School\Robotics\GSET_Robotics\Maze\409_Maze_Test.nxc"
11	214	527		set __driveUpToNotWall_7qG2_look2_7qG2_000, 90
11	213	530	#line 213 "C:\Users\Lshi\Documents\Extracurriculars\Gov School\Robotics\GSET_Robotics\Maze\409_Maze_Test.nxc"
11	214	530	#line 214 "C:\Users\Lshi\Documents\Extracurriculars\Gov School\Robotics\GSET_Robotics\Maze\409_Maze_Test.nxc"
11	215	530		subcall driveUpToNotWall, __driveUpToNotWall_return
11	214	533	#line 214 "C:\Users\Lshi\Documents\Extracurriculars\Gov School\Robotics\GSET_Robotics\Maze\409_Maze_Test.nxc"
11	214	533	#line 214 "C:\Users\Lshi\Documents\Extracurriculars\Gov School\Robotics\GSET_Robotics\Maze\409_Maze_Test.nxc"
11	215	533		mov __doubleWheelTurn_7qG2_degrees_7qG2_000, __constValNeg90
11	214	535	#line 214 "C:\Users\Lshi\Documents\Extracurriculars\Gov School\Robotics\GSET_Robotics\Maze\409_Maze_Test.nxc"
11	215	535	#line 215 "C:\Users\Lshi\Documents\Extracurriculars\Gov School\Robotics\GSET_Robotics\Maze\409_Maze_Test.nxc"
11	216	535		subcall doubleWheelTurn, __doubleWheelTurn_return
11	215	538	#line 215 "C:\Users\Lshi\Documents\Extracurriculars\Gov School\Robotics\GSET_Robotics\Maze\409_Maze_Test.nxc"
11	215	538	#line 215 "C:\Users\Lshi\Documents\Extracurriculars\Gov School\Robotics\GSET_Robotics\Maze\409_Maze_Test.nxc"
11	215	538	#line 215 "C:\Users\Lshi\Documents\Extracurriculars\Gov School\Robotics\GSET_Robotics\Maze\409_Maze_Test.nxc"
11	215	538	#line 215 "C:\Users\Lshi\Documents\Extracurriculars\Gov School\Robotics\GSET_Robotics\Maze\409_Maze_Test.nxc"
11	215	538	#line 215 "C:\Users\Lshi\Documents\Extracurriculars\Gov School\Robotics\GSET_Robotics\Maze\409_Maze_Test.nxc"
11	216	538		mul __signed_stack_001mazeNav, __constVal60, dir
11	215	542	#line 215 "C:\Users\Lshi\Documents\Extracurriculars\Gov School\Robotics\GSET_Robotics\Maze\409_Maze_Test.nxc"
11	215	542	#line 215 "C:\Users\Lshi\Documents\Extracurriculars\Gov School\Robotics\GSET_Robotics\Maze\409_Maze_Test.nxc"
11	216	542		set __D0mazeNav, 0
11	216	545	#line 216 "C:\Users\Lshi\Documents\Extracurriculars\Gov School\Robotics\GSET_Robotics\Maze\409_Maze_Test.nxc"
11	217	545	#pragma macro 7
11	217	545		setout __OUT_AC, 2, __signed_stack_001mazeNav, 1, __constVal7, 8, __constVal2, 7, __D0mazeNav, 6, __constVal32, 5, __constVal0, 10, __constVal96, 11, __constVal32, 12, __constVal32, 0, __constVal63
11	6635	568	#line 6635 "C:\Users\Lshi\Documents\Extracurriculars\Gov School\Robotics\GSET_Robotics\Maze\409_Maze_Test.nxc"
11	216	568	#line 216 "C:\Users\Lshi\Documents\Extracurriculars\Gov School\Robotics\GSET_Robotics\Maze\409_Maze_Test.nxc"
11	216	568	#line 216 "C:\Users\Lshi\Documents\Extracurriculars\Gov School\Robotics\GSET_Robotics\Maze\409_Maze_Test.nxc"
11	217	568		set __Wait_7qG2_ms_7qG2_000_inline_mazeNav, 5000
11	216	571	#line 216 "C:\Users\Lshi\Documents\Extracurriculars\Gov School\Robotics\GSET_Robotics\Maze\409_Maze_Test.nxc"
11	7921	571	#line 7921 "NXCDefs.h"
11	7922	571		wait2 NA, __Wait_7qG2_ms_7qG2_000_inline_mazeNav
11	7921	574	#line 7921 "NXCDefs.h"
11	217	574	#line 217 "C:\Users\Lshi\Documents\Extracurriculars\Gov School\Robotics\GSET_Robotics\Maze\409_Maze_Test.nxc"
11	217	574	#line 217 "C:\Users\Lshi\Documents\Extracurriculars\Gov School\Robotics\GSET_Robotics\Maze\409_Maze_Test.nxc"
11	218	574		set __signed_stack_001mazeNav, 0
11	217	577	#line 217 "C:\Users\Lshi\Documents\Extracurriculars\Gov School\Robotics\GSET_Robotics\Maze\409_Maze_Test.nxc"
11	217	577	#line 217 "C:\Users\Lshi\Documents\Extracurriculars\Gov School\Robotics\GSET_Robotics\Maze\409_Maze_Test.nxc"
11	218	577		set __D0mazeNav, 0
11	218	580	#line 218 "C:\Users\Lshi\Documents\Extracurriculars\Gov School\Robotics\GSET_Robotics\Maze\409_Maze_Test.nxc"
11	219	580	#pragma macro 7
11	219	580		setout __OUT_AC, 2, __signed_stack_001mazeNav, 1, __constVal7, 8, __constVal2, 7, __D0mazeNav, 6, __constVal32, 5, __constVal0, 10, __constVal96, 11, __constVal32, 12, __constVal32, 0, __constVal63
11	6658	603	#line 6658 "C:\Users\Lshi\Documents\Extracurriculars\Gov School\Robotics\GSET_Robotics\Maze\409_Maze_Test.nxc"
11	218	603	#line 218 "C:\Users\Lshi\Documents\Extracurriculars\Gov School\Robotics\GSET_Robotics\Maze\409_Maze_Test.nxc"
11	218	603	#line 218 "C:\Users\Lshi\Documents\Extracurriculars\Gov School\Robotics\GSET_Robotics\Maze\409_Maze_Test.nxc"
11	219	603		mov __Wait_7qG2_ms_7qG2_000_inline_mazeNav, __constVal203940234
11	218	605	#line 218 "C:\Users\Lshi\Documents\Extracurriculars\Gov School\Robotics\GSET_Robotics\Maze\409_Maze_Test.nxc"
11	7921	605	#line 7921 "NXCDefs.h"
11	7922	605		wait2 NA, __Wait_7qG2_ms_7qG2_000_inline_mazeNav
11	7921	608	#line 7921 "NXCDefs.h"
11	219	608	#line 219 "C:\Users\Lshi\Documents\Extracurriculars\Gov School\Robotics\GSET_Robotics\Maze\409_Maze_Test.nxc"
11	229	608	#line 229 "C:\Users\Lshi\Documents\Extracurriculars\Gov School\Robotics\GSET_Robotics\Maze\409_Maze_Test.nxc"
11	229	608	#line 229 "C:\Users\Lshi\Documents\Extracurriculars\Gov School\Robotics\GSET_Robotics\Maze\409_Maze_Test.nxc"
11	229	608	#line 229 "C:\Users\Lshi\Documents\Extracurriculars\Gov School\Robotics\GSET_Robotics\Maze\409_Maze_Test.nxc"
11	230	608	#line 230 "C:\Users\Lshi\Documents\Extracurriculars\Gov School\Robotics\GSET_Robotics\Maze\409_Maze_Test.nxc"
11	231	608		mov __driveUpToWall_7qG2_look_7qG2_000, __constVal0
11	230	610	#line 230 "C:\Users\Lshi\Documents\Extracurriculars\Gov School\Robotics\GSET_Robotics\Maze\409_Maze_Test.nxc"
11	231	610		subcall driveUpToWall, __driveUpToWall_return
11	230	613	#line 230 "C:\Users\Lshi\Documents\Extracurriculars\Gov School\Robotics\GSET_Robotics\Maze\409_Maze_Test.nxc"
11	230	613	#line 230 "C:\Users\Lshi\Documents\Extracurriculars\Gov School\Robotics\GSET_Robotics\Maze\409_Maze_Test.nxc"
11	231	613		set __doubleWheelTurn_7qG2_degrees_7qG2_000, 180
11	230	616	#line 230 "C:\Users\Lshi\Documents\Extracurriculars\Gov School\Robotics\GSET_Robotics\Maze\409_Maze_Test.nxc"
11	231	616	#line 231 "C:\Users\Lshi\Documents\Extracurriculars\Gov School\Robotics\GSET_Robotics\Maze\409_Maze_Test.nxc"
11	232	616		subcall doubleWheelTurn, __doubleWheelTurn_return
11	231	619	#line 231 "C:\Users\Lshi\Documents\Extracurriculars\Gov School\Robotics\GSET_Robotics\Maze\409_Maze_Test.nxc"
11	231	619	#line 231 "C:\Users\Lshi\Documents\Extracurriculars\Gov School\Robotics\GSET_Robotics\Maze\409_Maze_Test.nxc"
11	232	619		subcall ballFind, __ballFind_return
11	231	622	#line 231 "C:\Users\Lshi\Documents\Extracurriculars\Gov School\Robotics\GSET_Robotics\Maze\409_Maze_Test.nxc"
11	232	622		mov __D0mazeNav, __D0ballFind
11	236	624	#line 236 "C:\Users\Lshi\Documents\Extracurriculars\Gov School\Robotics\GSET_Robotics\Maze\409_Maze_Test.nxc"
11	237	624		tst 5, __zfmazeNav, __D0mazeNav
11	236	627	#line 236 "C:\Users\Lshi\Documents\Extracurriculars\Gov School\Robotics\GSET_Robotics\Maze\409_Maze_Test.nxc"
11	237	627		brtst 4, __NXC_Label_715, __zfmazeNav
11	237	630	#line 237 "C:\Users\Lshi\Documents\Extracurriculars\Gov School\Robotics\GSET_Robotics\Maze\409_Maze_Test.nxc"
11	238	630		subcall ballCatch, __ballCatch_return
11	237	633	#line 237 "C:\Users\Lshi\Documents\Extracurriculars\Gov School\Robotics\GSET_Robotics\Maze\409_Maze_Test.nxc"
11	238	633	#line 238 "C:\Users\Lshi\Documents\Extracurriculars\Gov School\Robotics\GSET_Robotics\Maze\409_Maze_Test.nxc"
11	239	633		subcall switchDir, __switchDir_return
11	238	636	#line 238 "C:\Users\Lshi\Documents\Extracurriculars\Gov School\Robotics\GSET_Robotics\Maze\409_Maze_Test.nxc"
11	238	636	#line 238 "C:\Users\Lshi\Documents\Extracurriculars\Gov School\Robotics\GSET_Robotics\Maze\409_Maze_Test.nxc"
11	239	636		set __doubleWheelTurn_7qG2_degrees_7qG2_000, 90
11	238	639	#line 238 "C:\Users\Lshi\Documents\Extracurriculars\Gov School\Robotics\GSET_Robotics\Maze\409_Maze_Test.nxc"
11	239	639	#line 239 "C:\Users\Lshi\Documents\Extracurriculars\Gov School\Robotics\GSET_Robotics\Maze\409_Maze_Test.nxc"
11	240	639		subcall doubleWheelTurn, __doubleWheelTurn_return
11	239	642	#line 239 "C:\Users\Lshi\Documents\Extracurriculars\Gov School\Robotics\GSET_Robotics\Maze\409_Maze_Test.nxc"
11	240	642	#line 240 "C:\Users\Lshi\Documents\Extracurriculars\Gov School\Robotics\GSET_Robotics\Maze\409_Maze_Test.nxc"
11	241	642		mov __driveUpToWall_7qG2_look_7qG2_000, __constVal0
11	240	644	#line 240 "C:\Users\Lshi\Documents\Extracurriculars\Gov School\Robotics\GSET_Robotics\Maze\409_Maze_Test.nxc"
11	241	644		subcall driveUpToWall, __driveUpToWall_return
11	240	647	#line 240 "C:\Users\Lshi\Documents\Extracurriculars\Gov School\Robotics\GSET_Robotics\Maze\409_Maze_Test.nxc"
11	240	647	#line 240 "C:\Users\Lshi\Documents\Extracurriculars\Gov School\Robotics\GSET_Robotics\Maze\409_Maze_Test.nxc"
11	241	647		mov __doubleWheelTurn_7qG2_degrees_7qG2_000, __constValNeg90
11	240	649	#line 240 "C:\Users\Lshi\Documents\Extracurriculars\Gov School\Robotics\GSET_Robotics\Maze\409_Maze_Test.nxc"
11	241	649	#line 241 "C:\Users\Lshi\Documents\Extracurriculars\Gov School\Robotics\GSET_Robotics\Maze\409_Maze_Test.nxc"
11	242	649		subcall doubleWheelTurn, __doubleWheelTurn_return
11	241	652	#line 241 "C:\Users\Lshi\Documents\Extracurriculars\Gov School\Robotics\GSET_Robotics\Maze\409_Maze_Test.nxc"
11	242	652	#line 242 "C:\Users\Lshi\Documents\Extracurriculars\Gov School\Robotics\GSET_Robotics\Maze\409_Maze_Test.nxc"
11	243	652		mov __driveUpToWall_7qG2_look_7qG2_000, __constVal0
11	242	654	#line 242 "C:\Users\Lshi\Documents\Extracurriculars\Gov School\Robotics\GSET_Robotics\Maze\409_Maze_Test.nxc"
11	243	654		subcall driveUpToWall, __driveUpToWall_return
11	242	657	#line 242 "C:\Users\Lshi\Documents\Extracurriculars\Gov School\Robotics\GSET_Robotics\Maze\409_Maze_Test.nxc"
11	242	657	#line 242 "C:\Users\Lshi\Documents\Extracurriculars\Gov School\Robotics\GSET_Robotics\Maze\409_Maze_Test.nxc"
11	243	657		mov __doubleWheelTurn_7qG2_degrees_7qG2_000, __constValNeg90
11	242	659	#line 242 "C:\Users\Lshi\Documents\Extracurriculars\Gov School\Robotics\GSET_Robotics\Maze\409_Maze_Test.nxc"
11	243	659	#line 243 "C:\Users\Lshi\Documents\Extracurriculars\Gov School\Robotics\GSET_Robotics\Maze\409_Maze_Test.nxc"
11	244	659		subcall doubleWheelTurn, __doubleWheelTurn_return
11	243	662	#line 243 "C:\Users\Lshi\Documents\Extracurriculars\Gov School\Robotics\GSET_Robotics\Maze\409_Maze_Test.nxc"
11	243	662	#line 243 "C:\Users\Lshi\Documents\Extracurriculars\Gov School\Robotics\GSET_Robotics\Maze\409_Maze_Test.nxc"
11	244	662		mov __driveUpToNotWall_7qG2_look2_7qG2_000, __constValNeg90
11	243	664	#line 243 "C:\Users\Lshi\Documents\Extracurriculars\Gov School\Robotics\GSET_Robotics\Maze\409_Maze_Test.nxc"
11	244	664	#line 244 "C:\Users\Lshi\Documents\Extracurriculars\Gov School\Robotics\GSET_Robotics\Maze\409_Maze_Test.nxc"
11	245	664		subcall driveUpToNotWall, __driveUpToNotWall_return
11	244	667	#line 244 "C:\Users\Lshi\Documents\Extracurriculars\Gov School\Robotics\GSET_Robotics\Maze\409_Maze_Test.nxc"
11	244	667	#line 244 "C:\Users\Lshi\Documents\Extracurriculars\Gov School\Robotics\GSET_Robotics\Maze\409_Maze_Test.nxc"
11	245	667		set __doubleWheelTurn_7qG2_degrees_7qG2_000, 90
11	244	670	#line 244 "C:\Users\Lshi\Documents\Extracurriculars\Gov School\Robotics\GSET_Robotics\Maze\409_Maze_Test.nxc"
11	245	670	#line 245 "C:\Users\Lshi\Documents\Extracurriculars\Gov School\Robotics\GSET_Robotics\Maze\409_Maze_Test.nxc"
11	246	670		subcall doubleWheelTurn, __doubleWheelTurn_return
11	245	673	#line 245 "C:\Users\Lshi\Documents\Extracurriculars\Gov School\Robotics\GSET_Robotics\Maze\409_Maze_Test.nxc"
11	245	673	#line 245 "C:\Users\Lshi\Documents\Extracurriculars\Gov School\Robotics\GSET_Robotics\Maze\409_Maze_Test.nxc"
11	245	673	#line 245 "C:\Users\Lshi\Documents\Extracurriculars\Gov School\Robotics\GSET_Robotics\Maze\409_Maze_Test.nxc"
11	245	673	#line 245 "C:\Users\Lshi\Documents\Extracurriculars\Gov School\Robotics\GSET_Robotics\Maze\409_Maze_Test.nxc"
11	245	673	#line 245 "C:\Users\Lshi\Documents\Extracurriculars\Gov School\Robotics\GSET_Robotics\Maze\409_Maze_Test.nxc"
11	246	673		mul __signed_stack_001mazeNav, __constVal60, dir
11	245	677	#line 245 "C:\Users\Lshi\Documents\Extracurriculars\Gov School\Robotics\GSET_Robotics\Maze\409_Maze_Test.nxc"
11	245	677	#line 245 "C:\Users\Lshi\Documents\Extracurriculars\Gov School\Robotics\GSET_Robotics\Maze\409_Maze_Test.nxc"
11	246	677		set __D0mazeNav, 0
11	246	680	#line 246 "C:\Users\Lshi\Documents\Extracurriculars\Gov School\Robotics\GSET_Robotics\Maze\409_Maze_Test.nxc"
11	247	680	#pragma macro 7
11	247	680		setout __OUT_AC, 2, __signed_stack_001mazeNav, 1, __constVal7, 8, __constVal2, 7, __D0mazeNav, 6, __constVal32, 5, __constVal0, 10, __constVal96, 11, __constVal32, 12, __constVal32, 0, __constVal63
11	6778	703	#line 6778 "C:\Users\Lshi\Documents\Extracurriculars\Gov School\Robotics\GSET_Robotics\Maze\409_Maze_Test.nxc"
11	246	703	#line 246 "C:\Users\Lshi\Documents\Extracurriculars\Gov School\Robotics\GSET_Robotics\Maze\409_Maze_Test.nxc"
11	246	703	#line 246 "C:\Users\Lshi\Documents\Extracurriculars\Gov School\Robotics\GSET_Robotics\Maze\409_Maze_Test.nxc"
11	247	703		set __Wait_7qG2_ms_7qG2_000_inline_mazeNav, 5000
11	246	706	#line 246 "C:\Users\Lshi\Documents\Extracurriculars\Gov School\Robotics\GSET_Robotics\Maze\409_Maze_Test.nxc"
11	7921	706	#line 7921 "NXCDefs.h"
11	7922	706		wait2 NA, __Wait_7qG2_ms_7qG2_000_inline_mazeNav
11	7921	709	#line 7921 "NXCDefs.h"
11	247	709	#line 247 "C:\Users\Lshi\Documents\Extracurriculars\Gov School\Robotics\GSET_Robotics\Maze\409_Maze_Test.nxc"
11	247	709	#line 247 "C:\Users\Lshi\Documents\Extracurriculars\Gov School\Robotics\GSET_Robotics\Maze\409_Maze_Test.nxc"
11	248	709		set __signed_stack_001mazeNav, 0
11	247	712	#line 247 "C:\Users\Lshi\Documents\Extracurriculars\Gov School\Robotics\GSET_Robotics\Maze\409_Maze_Test.nxc"
11	247	712	#line 247 "C:\Users\Lshi\Documents\Extracurriculars\Gov School\Robotics\GSET_Robotics\Maze\409_Maze_Test.nxc"
11	248	712		set __D0mazeNav, 0
11	248	715	#line 248 "C:\Users\Lshi\Documents\Extracurriculars\Gov School\Robotics\GSET_Robotics\Maze\409_Maze_Test.nxc"
11	249	715	#pragma macro 7
11	249	715		setout __OUT_AC, 2, __signed_stack_001mazeNav, 1, __constVal7, 8, __constVal2, 7, __D0mazeNav, 6, __constVal32, 5, __constVal0, 10, __constVal96, 11, __constVal32, 12, __constVal32, 0, __constVal63
11	6801	738	#line 6801 "C:\Users\Lshi\Documents\Extracurriculars\Gov School\Robotics\GSET_Robotics\Maze\409_Maze_Test.nxc"
11	248	738	#line 248 "C:\Users\Lshi\Documents\Extracurriculars\Gov School\Robotics\GSET_Robotics\Maze\409_Maze_Test.nxc"
11	248	738	#line 248 "C:\Users\Lshi\Documents\Extracurriculars\Gov School\Robotics\GSET_Robotics\Maze\409_Maze_Test.nxc"
11	249	738		mov __Wait_7qG2_ms_7qG2_000_inline_mazeNav, __constVal203940234
11	248	740	#line 248 "C:\Users\Lshi\Documents\Extracurriculars\Gov School\Robotics\GSET_Robotics\Maze\409_Maze_Test.nxc"
11	7921	740	#line 7921 "NXCDefs.h"
11	7922	740		wait2 NA, __Wait_7qG2_ms_7qG2_000_inline_mazeNav
11	7921	743	#line 7921 "NXCDefs.h"
11	256	743	#line 256 "C:\Users\Lshi\Documents\Extracurriculars\Gov School\Robotics\GSET_Robotics\Maze\409_Maze_Test.nxc"
11	256	743	#line 256 "C:\Users\Lshi\Documents\Extracurriculars\Gov School\Robotics\GSET_Robotics\Maze\409_Maze_Test.nxc"
11	257	743		mov __Wait_7qG2_ms_7qG2_000_inline_mazeNav, __constVal42424242
11	256	745	#line 256 "C:\Users\Lshi\Documents\Extracurriculars\Gov School\Robotics\GSET_Robotics\Maze\409_Maze_Test.nxc"
11	7921	745	#line 7921 "NXCDefs.h"
11	7922	745		wait2 NA, __Wait_7qG2_ms_7qG2_000_inline_mazeNav
11	7921	748	#line 7921 "NXCDefs.h"
11	257	748	#line 257 "C:\Users\Lshi\Documents\Extracurriculars\Gov School\Robotics\GSET_Robotics\Maze\409_Maze_Test.nxc"
11	270	748	#line 270 "C:\Users\Lshi\Documents\Extracurriculars\Gov School\Robotics\GSET_Robotics\Maze\409_Maze_Test.nxc"
11	271	748		exit -1, -1
12	272	0	#line 272 "C:\Users\Lshi\Documents\Extracurriculars\Gov School\Robotics\GSET_Robotics\Maze\409_Maze_Test.nxc"
12	273	0		mov __signed_stack_001turnHeadTo, __turnHeadTo_7qG2_degrees_7qG2_000
12	272	2	#line 272 "C:\Users\Lshi\Documents\Extracurriculars\Gov School\Robotics\GSET_Robotics\Maze\409_Maze_Test.nxc"
12	273	2	#line 273 "C:\Users\Lshi\Documents\Extracurriculars\Gov School\Robotics\GSET_Robotics\Maze\409_Maze_Test.nxc"
12	274	2		getout __D0turnHeadTo, __constVal1, 14
12	273	6	#line 273 "C:\Users\Lshi\Documents\Extracurriculars\Gov School\Robotics\GSET_Robotics\Maze\409_Maze_Test.nxc"
12	274	6		sub __turnHeadTo_7qG2_delta_7qG2_000, __signed_stack_001turnHeadTo, __D0turnHeadTo
12	273	10	#line 273 "C:\Users\Lshi\Documents\Extracurriculars\Gov School\Robotics\GSET_Robotics\Maze\409_Maze_Test.nxc"
12	273	10	#line 273 "C:\Users\Lshi\Documents\Extracurriculars\Gov School\Robotics\GSET_Robotics\Maze\409_Maze_Test.nxc"
12	274	10		set __signed_stack_001turnHeadTo, 60
12	273	13	#line 273 "C:\Users\Lshi\Documents\Extracurriculars\Gov School\Robotics\GSET_Robotics\Maze\409_Maze_Test.nxc"
12	273	13	#line 273 "C:\Users\Lshi\Documents\Extracurriculars\Gov School\Robotics\GSET_Robotics\Maze\409_Maze_Test.nxc"
12	274	13		mov __D0turnHeadTo, __turnHeadTo_7qG2_delta_7qG2_000
12	274	15	#line 274 "C:\Users\Lshi\Documents\Extracurriculars\Gov School\Robotics\GSET_Robotics\Maze\409_Maze_Test.nxc"
12	275	15	#pragma macro 33
12	275	15		acquire __rotateMutex1
12	275	16		arrbuild __rotate_ports1, __constVal1
12	275	20		mov __rotate_power1, __signed_stack_001turnHeadTo
12	275	23		mov __rotate_angle1, __D0turnHeadTo
12	275	25		mov __rotate_turnpct1, __constVal0
12	275	27		mov __rotate_sync1, __constVal0
12	275	29		mov __rotate_stop1, __constVal1
12	275	31		mov __rotate_theRVP1, __constVal32
12	275	33		mov __rotate_theRVI1, __constVal0
12	275	35		mov __rotate_theRVD1, __constVal96
12	275	37		subcall __RotateMotor1, ____RotateMotor1_return
12	275	40		release __rotateMutex1
12	6855	41	#line 6855 "C:\Users\Lshi\Documents\Extracurriculars\Gov School\Robotics\GSET_Robotics\Maze\409_Maze_Test.nxc"
12	274	41	#line 274 "C:\Users\Lshi\Documents\Extracurriculars\Gov School\Robotics\GSET_Robotics\Maze\409_Maze_Test.nxc"
12	276	41	#line 276 "C:\Users\Lshi\Documents\Extracurriculars\Gov School\Robotics\GSET_Robotics\Maze\409_Maze_Test.nxc"
12	277	41		subret __turnHeadTo_return
13	277	0	#line 277 "C:\Users\Lshi\Documents\Extracurriculars\Gov School\Robotics\GSET_Robotics\Maze\409_Maze_Test.nxc"
13	278	0		mov __turnHeadTo_7qG2_degrees_7qG2_000, __driveUpToNotWall_7qG2_look2_7qG2_000
13	277	2	#line 277 "C:\Users\Lshi\Documents\Extracurriculars\Gov School\Robotics\GSET_Robotics\Maze\409_Maze_Test.nxc"
13	278	2	#line 278 "C:\Users\Lshi\Documents\Extracurriculars\Gov School\Robotics\GSET_Robotics\Maze\409_Maze_Test.nxc"
13	279	2		subcall turnHeadTo, __turnHeadTo_return
13	278	5	#line 278 "C:\Users\Lshi\Documents\Extracurriculars\Gov School\Robotics\GSET_Robotics\Maze\409_Maze_Test.nxc"
13	278	5	#line 278 "C:\Users\Lshi\Documents\Extracurriculars\Gov School\Robotics\GSET_Robotics\Maze\409_Maze_Test.nxc"
13	278	5	#line 278 "C:\Users\Lshi\Documents\Extracurriculars\Gov School\Robotics\GSET_Robotics\Maze\409_Maze_Test.nxc"
13	278	5	#line 278 "C:\Users\Lshi\Documents\Extracurriculars\Gov School\Robotics\GSET_Robotics\Maze\409_Maze_Test.nxc"
13	278	5	#line 278 "C:\Users\Lshi\Documents\Extracurriculars\Gov School\Robotics\GSET_Robotics\Maze\409_Maze_Test.nxc"
13	279	5		mul __signed_stack_001driveUpToNotWall, dir, __constVal60
13	278	9	#line 278 "C:\Users\Lshi\Documents\Extracurriculars\Gov School\Robotics\GSET_Robotics\Maze\409_Maze_Test.nxc"
13	278	9	#line 278 "C:\Users\Lshi\Documents\Extracurriculars\Gov School\Robotics\GSET_Robotics\Maze\409_Maze_Test.nxc"
13	279	9		set __D0driveUpToNotWall, 0
13	279	12	#line 279 "C:\Users\Lshi\Documents\Extracurriculars\Gov School\Robotics\GSET_Robotics\Maze\409_Maze_Test.nxc"
13	280	12	#pragma macro 7
13	280	12		setout __OUT_AC, 2, __signed_stack_001driveUpToNotWall, 1, __constVal7, 8, __constVal2, 7, __D0driveUpToNotWall, 6, __constVal32, 5, __constVal0, 10, __constVal96, 11, __constVal32, 12, __constVal32, 0, __constVal63
13	6888	35	#line 6888 "C:\Users\Lshi\Documents\Extracurriculars\Gov School\Robotics\GSET_Robotics\Maze\409_Maze_Test.nxc"
13	279	35	#line 279 "C:\Users\Lshi\Documents\Extracurriculars\Gov School\Robotics\GSET_Robotics\Maze\409_Maze_Test.nxc"
13	279	35	#line 279 "C:\Users\Lshi\Documents\Extracurriculars\Gov School\Robotics\GSET_Robotics\Maze\409_Maze_Test.nxc"
13	280	35		subcall turnCheck, __turnCheck_return
13	279	38	#line 279 "C:\Users\Lshi\Documents\Extracurriculars\Gov School\Robotics\GSET_Robotics\Maze\409_Maze_Test.nxc"
13	279	38	#line 279 "C:\Users\Lshi\Documents\Extracurriculars\Gov School\Robotics\GSET_Robotics\Maze\409_Maze_Test.nxc"
13	280	38		not __D0driveUpToNotWall, __D0turnCheck
13	280	41	#line 280 "C:\Users\Lshi\Documents\Extracurriculars\Gov School\Robotics\GSET_Robotics\Maze\409_Maze_Test.nxc"
13	281	41		tst 5, __zfdriveUpToNotWall, __D0driveUpToNotWall
13	280	44	#line 280 "C:\Users\Lshi\Documents\Extracurriculars\Gov School\Robotics\GSET_Robotics\Maze\409_Maze_Test.nxc"
13	281	44		brtst 4, __NXC_Label_753, __zfdriveUpToNotWall
13	280	47	#line 280 "C:\Users\Lshi\Documents\Extracurriculars\Gov School\Robotics\GSET_Robotics\Maze\409_Maze_Test.nxc"
13	280	47	#line 280 "C:\Users\Lshi\Documents\Extracurriculars\Gov School\Robotics\GSET_Robotics\Maze\409_Maze_Test.nxc"
13	281	47		jmp __NXC_Label_752
13	280	49	#line 280 "C:\Users\Lshi\Documents\Extracurriculars\Gov School\Robotics\GSET_Robotics\Maze\409_Maze_Test.nxc"
13	280	49	#line 280 "C:\Users\Lshi\Documents\Extracurriculars\Gov School\Robotics\GSET_Robotics\Maze\409_Maze_Test.nxc"
13	281	49		set __signed_stack_001driveUpToNotWall, 0
13	280	52	#line 280 "C:\Users\Lshi\Documents\Extracurriculars\Gov School\Robotics\GSET_Robotics\Maze\409_Maze_Test.nxc"
13	280	52	#line 280 "C:\Users\Lshi\Documents\Extracurriculars\Gov School\Robotics\GSET_Robotics\Maze\409_Maze_Test.nxc"
13	281	52		set __D0driveUpToNotWall, 0
13	281	55	#line 281 "C:\Users\Lshi\Documents\Extracurriculars\Gov School\Robotics\GSET_Robotics\Maze\409_Maze_Test.nxc"
13	282	55	#pragma macro 7
13	282	55		setout __OUT_AC, 2, __signed_stack_001driveUpToNotWall, 1, __constVal7, 8, __constVal2, 7, __D0driveUpToNotWall, 6, __constVal32, 5, __constVal0, 10, __constVal96, 11, __constVal32, 12, __constVal32, 0, __constVal63
13	6919	78	#line 6919 "C:\Users\Lshi\Documents\Extracurriculars\Gov School\Robotics\GSET_Robotics\Maze\409_Maze_Test.nxc"
13	281	78	#line 281 "C:\Users\Lshi\Documents\Extracurriculars\Gov School\Robotics\GSET_Robotics\Maze\409_Maze_Test.nxc"
13	283	78	#line 283 "C:\Users\Lshi\Documents\Extracurriculars\Gov School\Robotics\GSET_Robotics\Maze\409_Maze_Test.nxc"
13	284	78		subret __driveUpToNotWall_return
14	285	0	#line 285 "C:\Users\Lshi\Documents\Extracurriculars\Gov School\Robotics\GSET_Robotics\Maze\409_Maze_Test.nxc"
14	286	0		mov __signed_stack_001driveUpToWall, dir
14	285	2	#line 285 "C:\Users\Lshi\Documents\Extracurriculars\Gov School\Robotics\GSET_Robotics\Maze\409_Maze_Test.nxc"
14	285	2	#line 285 "C:\Users\Lshi\Documents\Extracurriculars\Gov School\Robotics\GSET_Robotics\Maze\409_Maze_Test.nxc"
14	286	2		mov __D0driveUpToWall, __constValNeg1
14	285	5	#line 285 "C:\Users\Lshi\Documents\Extracurriculars\Gov School\Robotics\GSET_Robotics\Maze\409_Maze_Test.nxc"
14	286	5		cmp 4, __zfdriveUpToWall, __signed_stack_001driveUpToWall, __D0driveUpToWall
14	285	9	#line 285 "C:\Users\Lshi\Documents\Extracurriculars\Gov School\Robotics\GSET_Robotics\Maze\409_Maze_Test.nxc"
14	286	9		mov __D0driveUpToWall, __zfdriveUpToWall
14	285	12	#line 285 "C:\Users\Lshi\Documents\Extracurriculars\Gov School\Robotics\GSET_Robotics\Maze\409_Maze_Test.nxc"
14	286	12		brtst 4, __NXC_Label_761, __zfdriveUpToWall
14	285	15	#line 285 "C:\Users\Lshi\Documents\Extracurriculars\Gov School\Robotics\GSET_Robotics\Maze\409_Maze_Test.nxc"
14	286	15		mov __signed_stack_001driveUpToWall, __D0driveUpToWall
14	285	17	#line 285 "C:\Users\Lshi\Documents\Extracurriculars\Gov School\Robotics\GSET_Robotics\Maze\409_Maze_Test.nxc"
14	286	17		mov __signed_stack_002driveUpToWall, __driveUpToWall_7qG2_look_7qG2_000
14	285	19	#line 285 "C:\Users\Lshi\Documents\Extracurriculars\Gov School\Robotics\GSET_Robotics\Maze\409_Maze_Test.nxc"
14	285	19	#line 285 "C:\Users\Lshi\Documents\Extracurriculars\Gov School\Robotics\GSET_Robotics\Maze\409_Maze_Test.nxc"
14	286	19		set __D0driveUpToWall, 0
14	285	22	#line 285 "C:\Users\Lshi\Documents\Extracurriculars\Gov School\Robotics\GSET_Robotics\Maze\409_Maze_Test.nxc"
14	286	22		cmp 4, __zfdriveUpToWall, __signed_stack_002driveUpToWall, __D0driveUpToWall
14	285	26	#line 285 "C:\Users\Lshi\Documents\Extracurriculars\Gov School\Robotics\GSET_Robotics\Maze\409_Maze_Test.nxc"
14	285	26	#line 285 "C:\Users\Lshi\Documents\Extracurriculars\Gov School\Robotics\GSET_Robotics\Maze\409_Maze_Test.nxc"
14	286	26		and __D0driveUpToWall, __signed_stack_001driveUpToWall, __zfdriveUpToWall
14	286	30	#line 286 "C:\Users\Lshi\Documents\Extracurriculars\Gov School\Robotics\GSET_Robotics\Maze\409_Maze_Test.nxc"
14	287	30		tst 5, __zfdriveUpToWall, __D0driveUpToWall
14	286	33	#line 286 "C:\Users\Lshi\Documents\Extracurriculars\Gov School\Robotics\GSET_Robotics\Maze\409_Maze_Test.nxc"
14	287	33		brtst 4, __NXC_Label_762, __zfdriveUpToWall
14	286	36	#line 286 "C:\Users\Lshi\Documents\Extracurriculars\Gov School\Robotics\GSET_Robotics\Maze\409_Maze_Test.nxc"
14	287	36		mov __turnHeadTo_7qG2_degrees_7qG2_000, __driveUpToWall_7qG2_look_7qG2_000
14	286	38	#line 286 "C:\Users\Lshi\Documents\Extracurriculars\Gov School\Robotics\GSET_Robotics\Maze\409_Maze_Test.nxc"
14	287	38	#line 287 "C:\Users\Lshi\Documents\Extracurriculars\Gov School\Robotics\GSET_Robotics\Maze\409_Maze_Test.nxc"
14	288	38		subcall turnHeadTo, __turnHeadTo_return
14	287	41	#line 287 "C:\Users\Lshi\Documents\Extracurriculars\Gov School\Robotics\GSET_Robotics\Maze\409_Maze_Test.nxc"
14	288	41	#line 288 "C:\Users\Lshi\Documents\Extracurriculars\Gov School\Robotics\GSET_Robotics\Maze\409_Maze_Test.nxc"
14	289	41		jmp __NXC_Label_765
14	288	43	#line 288 "C:\Users\Lshi\Documents\Extracurriculars\Gov School\Robotics\GSET_Robotics\Maze\409_Maze_Test.nxc"
14	289	43		mov __signed_stack_001driveUpToWall, dir
14	288	45	#line 288 "C:\Users\Lshi\Documents\Extracurriculars\Gov School\Robotics\GSET_Robotics\Maze\409_Maze_Test.nxc"
14	288	45	#line 288 "C:\Users\Lshi\Documents\Extracurriculars\Gov School\Robotics\GSET_Robotics\Maze\409_Maze_Test.nxc"
14	289	45		set __D0driveUpToWall, 1
14	288	48	#line 288 "C:\Users\Lshi\Documents\Extracurriculars\Gov School\Robotics\GSET_Robotics\Maze\409_Maze_Test.nxc"
14	289	48		cmp 4, __zfdriveUpToWall, __signed_stack_001driveUpToWall, __D0driveUpToWall
14	288	52	#line 288 "C:\Users\Lshi\Documents\Extracurriculars\Gov School\Robotics\GSET_Robotics\Maze\409_Maze_Test.nxc"
14	289	52		mov __D0driveUpToWall, __zfdriveUpToWall
14	288	55	#line 288 "C:\Users\Lshi\Documents\Extracurriculars\Gov School\Robotics\GSET_Robotics\Maze\409_Maze_Test.nxc"
14	289	55		brtst 4, __NXC_Label_767, __zfdriveUpToWall
14	288	58	#line 288 "C:\Users\Lshi\Documents\Extracurriculars\Gov School\Robotics\GSET_Robotics\Maze\409_Maze_Test.nxc"
14	289	58		mov __signed_stack_001driveUpToWall, __D0driveUpToWall
14	288	60	#line 288 "C:\Users\Lshi\Documents\Extracurriculars\Gov School\Robotics\GSET_Robotics\Maze\409_Maze_Test.nxc"
14	289	60		mov __signed_stack_002driveUpToWall, __driveUpToWall_7qG2_look_7qG2_000
14	288	62	#line 288 "C:\Users\Lshi\Documents\Extracurriculars\Gov School\Robotics\GSET_Robotics\Maze\409_Maze_Test.nxc"
14	288	62	#line 288 "C:\Users\Lshi\Documents\Extracurriculars\Gov School\Robotics\GSET_Robotics\Maze\409_Maze_Test.nxc"
14	289	62		set __D0driveUpToWall, 0
14	288	65	#line 288 "C:\Users\Lshi\Documents\Extracurriculars\Gov School\Robotics\GSET_Robotics\Maze\409_Maze_Test.nxc"
14	289	65		cmp 4, __zfdriveUpToWall, __signed_stack_002driveUpToWall, __D0driveUpToWall
14	288	69	#line 288 "C:\Users\Lshi\Documents\Extracurriculars\Gov School\Robotics\GSET_Robotics\Maze\409_Maze_Test.nxc"
14	288	69	#line 288 "C:\Users\Lshi\Documents\Extracurriculars\Gov School\Robotics\GSET_Robotics\Maze\409_Maze_Test.nxc"
14	289	69		and __D0driveUpToWall, __signed_stack_001driveUpToWall, __zfdriveUpToWall
14	289	73	#line 289 "C:\Users\Lshi\Documents\Extracurriculars\Gov School\Robotics\GSET_Robotics\Maze\409_Maze_Test.nxc"
14	290	73		tst 5, __zfdriveUpToWall, __D0driveUpToWall
14	289	76	#line 289 "C:\Users\Lshi\Documents\Extracurriculars\Gov School\Robotics\GSET_Robotics\Maze\409_Maze_Test.nxc"
14	290	76		brtst 4, __NXC_Label_768, __zfdriveUpToWall
14	289	79	#line 289 "C:\Users\Lshi\Documents\Extracurriculars\Gov School\Robotics\GSET_Robotics\Maze\409_Maze_Test.nxc"
14	290	79		set __turnHeadTo_7qG2_degrees_7qG2_000, 180
14	289	82	#line 289 "C:\Users\Lshi\Documents\Extracurriculars\Gov School\Robotics\GSET_Robotics\Maze\409_Maze_Test.nxc"
14	290	82	#line 290 "C:\Users\Lshi\Documents\Extracurriculars\Gov School\Robotics\GSET_Robotics\Maze\409_Maze_Test.nxc"
14	291	82		subcall turnHeadTo, __turnHeadTo_return
14	290	85	#line 290 "C:\Users\Lshi\Documents\Extracurriculars\Gov School\Robotics\GSET_Robotics\Maze\409_Maze_Test.nxc"
14	292	85	#line 292 "C:\Users\Lshi\Documents\Extracurriculars\Gov School\Robotics\GSET_Robotics\Maze\409_Maze_Test.nxc"
14	293	85		jmp __NXC_Label_771
14	292	87	#line 292 "C:\Users\Lshi\Documents\Extracurriculars\Gov School\Robotics\GSET_Robotics\Maze\409_Maze_Test.nxc"
14	293	87		mov __turnHeadTo_7qG2_degrees_7qG2_000, __driveUpToWall_7qG2_look_7qG2_000
14	292	89	#line 292 "C:\Users\Lshi\Documents\Extracurriculars\Gov School\Robotics\GSET_Robotics\Maze\409_Maze_Test.nxc"
14	293	89	#line 293 "C:\Users\Lshi\Documents\Extracurriculars\Gov School\Robotics\GSET_Robotics\Maze\409_Maze_Test.nxc"
14	294	89		subcall turnHeadTo, __turnHeadTo_return
14	293	92	#line 293 "C:\Users\Lshi\Documents\Extracurriculars\Gov School\Robotics\GSET_Robotics\Maze\409_Maze_Test.nxc"
14	295	92	#line 295 "C:\Users\Lshi\Documents\Extracurriculars\Gov School\Robotics\GSET_Robotics\Maze\409_Maze_Test.nxc"
14	295	92	#line 295 "C:\Users\Lshi\Documents\Extracurriculars\Gov School\Robotics\GSET_Robotics\Maze\409_Maze_Test.nxc"
14	295	92	#line 295 "C:\Users\Lshi\Documents\Extracurriculars\Gov School\Robotics\GSET_Robotics\Maze\409_Maze_Test.nxc"
14	295	92	#line 295 "C:\Users\Lshi\Documents\Extracurriculars\Gov School\Robotics\GSET_Robotics\Maze\409_Maze_Test.nxc"
14	295	92	#line 295 "C:\Users\Lshi\Documents\Extracurriculars\Gov School\Robotics\GSET_Robotics\Maze\409_Maze_Test.nxc"
14	295	92	#line 295 "C:\Users\Lshi\Documents\Extracurriculars\Gov School\Robotics\GSET_Robotics\Maze\409_Maze_Test.nxc"
14	296	92		mul __signed_stack_001driveUpToWall, dir, __constVal60
14	295	96	#line 295 "C:\Users\Lshi\Documents\Extracurriculars\Gov School\Robotics\GSET_Robotics\Maze\409_Maze_Test.nxc"
14	295	96	#line 295 "C:\Users\Lshi\Documents\Extracurriculars\Gov School\Robotics\GSET_Robotics\Maze\409_Maze_Test.nxc"
14	296	96		set __D0driveUpToWall, 0
14	296	99	#line 296 "C:\Users\Lshi\Documents\Extracurriculars\Gov School\Robotics\GSET_Robotics\Maze\409_Maze_Test.nxc"
14	297	99	#pragma macro 7
14	297	99		setout __OUT_AC, 2, __signed_stack_001driveUpToWall, 1, __constVal7, 8, __constVal2, 7, __D0driveUpToWall, 6, __constVal32, 5, __constVal0, 10, __constVal96, 11, __constVal32, 12, __constVal32, 0, __constVal63
14	7044	122	#line 7044 "C:\Users\Lshi\Documents\Extracurriculars\Gov School\Robotics\GSET_Robotics\Maze\409_Maze_Test.nxc"
14	296	122	#line 296 "C:\Users\Lshi\Documents\Extracurriculars\Gov School\Robotics\GSET_Robotics\Maze\409_Maze_Test.nxc"
14	296	122	#line 296 "C:\Users\Lshi\Documents\Extracurriculars\Gov School\Robotics\GSET_Robotics\Maze\409_Maze_Test.nxc"
14	297	122		subcall turnCheck, __turnCheck_return
14	296	125	#line 296 "C:\Users\Lshi\Documents\Extracurriculars\Gov School\Robotics\GSET_Robotics\Maze\409_Maze_Test.nxc"
14	297	125		mov __D0driveUpToWall, __D0turnCheck
14	297	127	#line 297 "C:\Users\Lshi\Documents\Extracurriculars\Gov School\Robotics\GSET_Robotics\Maze\409_Maze_Test.nxc"
14	298	127		tst 5, __zfdriveUpToWall, __D0driveUpToWall
14	297	130	#line 297 "C:\Users\Lshi\Documents\Extracurriculars\Gov School\Robotics\GSET_Robotics\Maze\409_Maze_Test.nxc"
14	298	130		brtst 4, __NXC_Label_779, __zfdriveUpToWall
14	297	133	#line 297 "C:\Users\Lshi\Documents\Extracurriculars\Gov School\Robotics\GSET_Robotics\Maze\409_Maze_Test.nxc"
14	297	133	#line 297 "C:\Users\Lshi\Documents\Extracurriculars\Gov School\Robotics\GSET_Robotics\Maze\409_Maze_Test.nxc"
14	298	133		jmp __NXC_Label_778
14	297	135	#line 297 "C:\Users\Lshi\Documents\Extracurriculars\Gov School\Robotics\GSET_Robotics\Maze\409_Maze_Test.nxc"
14	297	135	#line 297 "C:\Users\Lshi\Documents\Extracurriculars\Gov School\Robotics\GSET_Robotics\Maze\409_Maze_Test.nxc"
14	298	135		set __signed_stack_001driveUpToWall, 0
14	297	138	#line 297 "C:\Users\Lshi\Documents\Extracurriculars\Gov School\Robotics\GSET_Robotics\Maze\409_Maze_Test.nxc"
14	297	138	#line 297 "C:\Users\Lshi\Documents\Extracurriculars\Gov School\Robotics\GSET_Robotics\Maze\409_Maze_Test.nxc"
14	298	138		set __D0driveUpToWall, 0
14	298	141	#line 298 "C:\Users\Lshi\Documents\Extracurriculars\Gov School\Robotics\GSET_Robotics\Maze\409_Maze_Test.nxc"
14	299	141	#pragma macro 7
14	299	141		setout __OUT_AC, 2, __signed_stack_001driveUpToWall, 1, __constVal7, 8, __constVal2, 7, __D0driveUpToWall, 6, __constVal32, 5, __constVal0, 10, __constVal96, 11, __constVal32, 12, __constVal32, 0, __constVal63
14	7073	164	#line 7073 "C:\Users\Lshi\Documents\Extracurriculars\Gov School\Robotics\GSET_Robotics\Maze\409_Maze_Test.nxc"
14	298	164	#line 298 "C:\Users\Lshi\Documents\Extracurriculars\Gov School\Robotics\GSET_Robotics\Maze\409_Maze_Test.nxc"
14	300	164	#line 300 "C:\Users\Lshi\Documents\Extracurriculars\Gov School\Robotics\GSET_Robotics\Maze\409_Maze_Test.nxc"
14	301	164		subret __driveUpToWall_return
15	301	0	#line 301 "C:\Users\Lshi\Documents\Extracurriculars\Gov School\Robotics\GSET_Robotics\Maze\409_Maze_Test.nxc"
15	302	0		mov __signed_stack_001doubleWheelTurn, __doubleWheelTurn_7qG2_degrees_7qG2_000
15	301	2	#line 301 "C:\Users\Lshi\Documents\Extracurriculars\Gov School\Robotics\GSET_Robotics\Maze\409_Maze_Test.nxc"
15	301	2	#line 301 "C:\Users\Lshi\Documents\Extracurriculars\Gov School\Robotics\GSET_Robotics\Maze\409_Maze_Test.nxc"
15	302	2		set __D0doubleWheelTurn, 0
15	301	5	#line 301 "C:\Users\Lshi\Documents\Extracurriculars\Gov School\Robotics\GSET_Robotics\Maze\409_Maze_Test.nxc"
15	302	5		cmp 1, __zfdoubleWheelTurn, __signed_stack_001doubleWheelTurn, __D0doubleWheelTurn
15	301	9	#line 301 "C:\Users\Lshi\Documents\Extracurriculars\Gov School\Robotics\GSET_Robotics\Maze\409_Maze_Test.nxc"
15	302	9		mov __D0doubleWheelTurn, __zfdoubleWheelTurn
15	302	12	#line 302 "C:\Users\Lshi\Documents\Extracurriculars\Gov School\Robotics\GSET_Robotics\Maze\409_Maze_Test.nxc"
15	303	12		brtst 4, __NXC_Label_788, __zfdoubleWheelTurn
15	302	15	#line 302 "C:\Users\Lshi\Documents\Extracurriculars\Gov School\Robotics\GSET_Robotics\Maze\409_Maze_Test.nxc"
15	302	15	#line 302 "C:\Users\Lshi\Documents\Extracurriculars\Gov School\Robotics\GSET_Robotics\Maze\409_Maze_Test.nxc"
15	302	15	#line 302 "C:\Users\Lshi\Documents\Extracurriculars\Gov School\Robotics\GSET_Robotics\Maze\409_Maze_Test.nxc"
15	302	15	#line 302 "C:\Users\Lshi\Documents\Extracurriculars\Gov School\Robotics\GSET_Robotics\Maze\409_Maze_Test.nxc"
15	303	15		mul __signed_stack_001doubleWheelTurn, dir, __constVal60
15	302	19	#line 302 "C:\Users\Lshi\Documents\Extracurriculars\Gov School\Robotics\GSET_Robotics\Maze\409_Maze_Test.nxc"
15	302	19	#line 302 "C:\Users\Lshi\Documents\Extracurriculars\Gov School\Robotics\GSET_Robotics\Maze\409_Maze_Test.nxc"
15	302	19	#line 302 "C:\Users\Lshi\Documents\Extracurriculars\Gov School\Robotics\GSET_Robotics\Maze\409_Maze_Test.nxc"
15	303	19		mul __float_stack_001doubleWheelTurn, __signed_stack_001doubleWheelTurn, __constValf0P5
15	302	23	#line 302 "C:\Users\Lshi\Documents\Extracurriculars\Gov School\Robotics\GSET_Robotics\Maze\409_Maze_Test.nxc"
15	302	23	#line 302 "C:\Users\Lshi\Documents\Extracurriculars\Gov School\Robotics\GSET_Robotics\Maze\409_Maze_Test.nxc"
15	302	23	#line 302 "C:\Users\Lshi\Documents\Extracurriculars\Gov School\Robotics\GSET_Robotics\Maze\409_Maze_Test.nxc"
15	302	23	#line 302 "C:\Users\Lshi\Documents\Extracurriculars\Gov School\Robotics\GSET_Robotics\Maze\409_Maze_Test.nxc"
15	302	23	#line 302 "C:\Users\Lshi\Documents\Extracurriculars\Gov School\Robotics\GSET_Robotics\Maze\409_Maze_Test.nxc"
15	303	23		mul __float_stack_002doubleWheelTurn, __constValf3P35, __doubleWheelTurn_7qG2_degrees_7qG2_000
15	302	27	#line 302 "C:\Users\Lshi\Documents\Extracurriculars\Gov School\Robotics\GSET_Robotics\Maze\409_Maze_Test.nxc"
15	302	27	#line 302 "C:\Users\Lshi\Documents\Extracurriculars\Gov School\Robotics\GSET_Robotics\Maze\409_Maze_Test.nxc"
15	303	27		mov __float_stack_003doubleWheelTurn, __constValNeg100
15	302	30	#line 302 "C:\Users\Lshi\Documents\Extracurriculars\Gov School\Robotics\GSET_Robotics\Maze\409_Maze_Test.nxc"
15	302	30	#line 302 "C:\Users\Lshi\Documents\Extracurriculars\Gov School\Robotics\GSET_Robotics\Maze\409_Maze_Test.nxc"
15	303	30		mov __float_stack_004doubleWheelTurn, __constVal1
15	302	33	#line 302 "C:\Users\Lshi\Documents\Extracurriculars\Gov School\Robotics\GSET_Robotics\Maze\409_Maze_Test.nxc"
15	302	33	#line 302 "C:\Users\Lshi\Documents\Extracurriculars\Gov School\Robotics\GSET_Robotics\Maze\409_Maze_Test.nxc"
15	303	33		mov __DF0doubleWheelTurn, __constVal1
15	303	36	#line 303 "C:\Users\Lshi\Documents\Extracurriculars\Gov School\Robotics\GSET_Robotics\Maze\409_Maze_Test.nxc"
15	304	36	#pragma macro 35
15	304	36		acquire __rotateMutex0
15	304	37		acquire __rotateMutex2
15	304	38		mov __rotate_ports4, __OUT_AC
15	304	40		mov __rotate_power4, __float_stack_001doubleWheelTurn
15	304	42		mov __rotate_angle4, __float_stack_002doubleWheelTurn
15	304	44		mov __rotate_turnpct4, __float_stack_003doubleWheelTurn
15	304	47		mov __rotate_sync4, __float_stack_004doubleWheelTurn
15	304	50		mov __rotate_stop4, __DF0doubleWheelTurn
15	304	53		mov __rotate_theRVP4, __constVal32
15	304	55		mov __rotate_theRVI4, __constVal0
15	304	57		mov __rotate_theRVD4, __constVal96
15	304	59		subcall __RotateMotor4, ____RotateMotor4_return
15	304	62		release __rotateMutex2
15	304	63		release __rotateMutex0
15	7141	64	#line 7141 "C:\Users\Lshi\Documents\Extracurriculars\Gov School\Robotics\GSET_Robotics\Maze\409_Maze_Test.nxc"
15	303	64	#line 303 "C:\Users\Lshi\Documents\Extracurriculars\Gov School\Robotics\GSET_Robotics\Maze\409_Maze_Test.nxc"
15	304	64	#line 304 "C:\Users\Lshi\Documents\Extracurriculars\Gov School\Robotics\GSET_Robotics\Maze\409_Maze_Test.nxc"
15	305	64		jmp __NXC_Label_799
15	304	66	#line 304 "C:\Users\Lshi\Documents\Extracurriculars\Gov School\Robotics\GSET_Robotics\Maze\409_Maze_Test.nxc"
15	305	66		mov __signed_stack_001doubleWheelTurn, __doubleWheelTurn_7qG2_degrees_7qG2_000
15	304	68	#line 304 "C:\Users\Lshi\Documents\Extracurriculars\Gov School\Robotics\GSET_Robotics\Maze\409_Maze_Test.nxc"
15	304	68	#line 304 "C:\Users\Lshi\Documents\Extracurriculars\Gov School\Robotics\GSET_Robotics\Maze\409_Maze_Test.nxc"
15	305	68		set __D0doubleWheelTurn, 0
15	304	71	#line 304 "C:\Users\Lshi\Documents\Extracurriculars\Gov School\Robotics\GSET_Robotics\Maze\409_Maze_Test.nxc"
15	305	71		cmp 2, __zfdoubleWheelTurn, __signed_stack_001doubleWheelTurn, __D0doubleWheelTurn
15	304	75	#line 304 "C:\Users\Lshi\Documents\Extracurriculars\Gov School\Robotics\GSET_Robotics\Maze\409_Maze_Test.nxc"
15	305	75		mov __D0doubleWheelTurn, __zfdoubleWheelTurn
15	305	78	#line 305 "C:\Users\Lshi\Documents\Extracurriculars\Gov School\Robotics\GSET_Robotics\Maze\409_Maze_Test.nxc"
15	306	78		brtst 4, __NXC_Label_802, __zfdoubleWheelTurn
15	305	81	#line 305 "C:\Users\Lshi\Documents\Extracurriculars\Gov School\Robotics\GSET_Robotics\Maze\409_Maze_Test.nxc"
15	305	81	#line 305 "C:\Users\Lshi\Documents\Extracurriculars\Gov School\Robotics\GSET_Robotics\Maze\409_Maze_Test.nxc"
15	305	81	#line 305 "C:\Users\Lshi\Documents\Extracurriculars\Gov School\Robotics\GSET_Robotics\Maze\409_Maze_Test.nxc"
15	305	81	#line 305 "C:\Users\Lshi\Documents\Extracurriculars\Gov School\Robotics\GSET_Robotics\Maze\409_Maze_Test.nxc"
15	306	81		mul __signed_stack_001doubleWheelTurn, dir, __constVal60
15	305	85	#line 305 "C:\Users\Lshi\Documents\Extracurriculars\Gov School\Robotics\GSET_Robotics\Maze\409_Maze_Test.nxc"
15	305	85	#line 305 "C:\Users\Lshi\Documents\Extracurriculars\Gov School\Robotics\GSET_Robotics\Maze\409_Maze_Test.nxc"
15	305	85	#line 305 "C:\Users\Lshi\Documents\Extracurriculars\Gov School\Robotics\GSET_Robotics\Maze\409_Maze_Test.nxc"
15	306	85		mul __float_stack_001doubleWheelTurn, __signed_stack_001doubleWheelTurn, __constValf0P5
15	305	89	#line 305 "C:\Users\Lshi\Documents\Extracurriculars\Gov School\Robotics\GSET_Robotics\Maze\409_Maze_Test.nxc"
15	305	89	#line 305 "C:\Users\Lshi\Documents\Extracurriculars\Gov School\Robotics\GSET_Robotics\Maze\409_Maze_Test.nxc"
15	305	89	#line 305 "C:\Users\Lshi\Documents\Extracurriculars\Gov School\Robotics\GSET_Robotics\Maze\409_Maze_Test.nxc"
15	305	89	#line 305 "C:\Users\Lshi\Documents\Extracurriculars\Gov School\Robotics\GSET_Robotics\Maze\409_Maze_Test.nxc"
15	305	89	#line 305 "C:\Users\Lshi\Documents\Extracurriculars\Gov School\Robotics\GSET_Robotics\Maze\409_Maze_Test.nxc"
15	306	89		mul __float_stack_002doubleWheelTurn, __constValf2P5, __doubleWheelTurn_7qG2_degrees_7qG2_000
15	305	93	#line 305 "C:\Users\Lshi\Documents\Extracurriculars\Gov School\Robotics\GSET_Robotics\Maze\409_Maze_Test.nxc"
15	305	93	#line 305 "C:\Users\Lshi\Documents\Extracurriculars\Gov School\Robotics\GSET_Robotics\Maze\409_Maze_Test.nxc"
15	306	93		mov __float_stack_003doubleWheelTurn, __constVal100
15	305	96	#line 305 "C:\Users\Lshi\Documents\Extracurriculars\Gov School\Robotics\GSET_Robotics\Maze\409_Maze_Test.nxc"
15	305	96	#line 305 "C:\Users\Lshi\Documents\Extracurriculars\Gov School\Robotics\GSET_Robotics\Maze\409_Maze_Test.nxc"
15	306	96		mov __float_stack_004doubleWheelTurn, __constVal1
15	305	99	#line 305 "C:\Users\Lshi\Documents\Extracurriculars\Gov School\Robotics\GSET_Robotics\Maze\409_Maze_Test.nxc"
15	305	99	#line 305 "C:\Users\Lshi\Documents\Extracurriculars\Gov School\Robotics\GSET_Robotics\Maze\409_Maze_Test.nxc"
15	306	99		mov __DF0doubleWheelTurn, __constVal1
15	306	102	#line 306 "C:\Users\Lshi\Documents\Extracurriculars\Gov School\Robotics\GSET_Robotics\Maze\409_Maze_Test.nxc"
15	307	102	#pragma macro 35
15	307	102		acquire __rotateMutex0
15	307	103		acquire __rotateMutex2
15	307	104		mov __rotate_ports4, __OUT_AC
15	307	106		mov __rotate_power4, __float_stack_001doubleWheelTurn
15	307	108		mov __rotate_angle4, __float_stack_002doubleWheelTurn
15	307	110		mov __rotate_turnpct4, __float_stack_003doubleWheelTurn
15	307	113		mov __rotate_sync4, __float_stack_004doubleWheelTurn
15	307	116		mov __rotate_stop4, __DF0doubleWheelTurn
15	307	119		mov __rotate_theRVP4, __constVal32
15	307	121		mov __rotate_theRVI4, __constVal0
15	307	123		mov __rotate_theRVD4, __constVal96
15	307	125		subcall __RotateMotor4, ____RotateMotor4_return
15	307	128		release __rotateMutex2
15	307	129		release __rotateMutex0
15	7207	130	#line 7207 "C:\Users\Lshi\Documents\Extracurriculars\Gov School\Robotics\GSET_Robotics\Maze\409_Maze_Test.nxc"
15	306	130	#line 306 "C:\Users\Lshi\Documents\Extracurriculars\Gov School\Robotics\GSET_Robotics\Maze\409_Maze_Test.nxc"
15	308	130	#line 308 "C:\Users\Lshi\Documents\Extracurriculars\Gov School\Robotics\GSET_Robotics\Maze\409_Maze_Test.nxc"
15	308	130	#line 308 "C:\Users\Lshi\Documents\Extracurriculars\Gov School\Robotics\GSET_Robotics\Maze\409_Maze_Test.nxc"
15	308	130	#line 308 "C:\Users\Lshi\Documents\Extracurriculars\Gov School\Robotics\GSET_Robotics\Maze\409_Maze_Test.nxc"
15	309	130		set __Wait_7qG2_ms_7qG2_000_inline_doubleWheelTurn, 100
15	308	133	#line 308 "C:\Users\Lshi\Documents\Extracurriculars\Gov School\Robotics\GSET_Robotics\Maze\409_Maze_Test.nxc"
15	7921	133	#line 7921 "NXCDefs.h"
15	7922	133		wait2 NA, __Wait_7qG2_ms_7qG2_000_inline_doubleWheelTurn
15	7921	136	#line 7921 "NXCDefs.h"
15	309	136	#line 309 "C:\Users\Lshi\Documents\Extracurriculars\Gov School\Robotics\GSET_Robotics\Maze\409_Maze_Test.nxc"
15	311	136	#line 311 "C:\Users\Lshi\Documents\Extracurriculars\Gov School\Robotics\GSET_Robotics\Maze\409_Maze_Test.nxc"
15	312	136		subret __doubleWheelTurn_return
16	313	0	#line 313 "C:\Users\Lshi\Documents\Extracurriculars\Gov School\Robotics\GSET_Robotics\Maze\409_Maze_Test.nxc"
16	314	0		set __signed_stack_001singleWheelTurn, 60
16	313	3	#line 313 "C:\Users\Lshi\Documents\Extracurriculars\Gov School\Robotics\GSET_Robotics\Maze\409_Maze_Test.nxc"
16	313	3	#line 313 "C:\Users\Lshi\Documents\Extracurriculars\Gov School\Robotics\GSET_Robotics\Maze\409_Maze_Test.nxc"
16	313	3	#line 313 "C:\Users\Lshi\Documents\Extracurriculars\Gov School\Robotics\GSET_Robotics\Maze\409_Maze_Test.nxc"
16	313	3	#line 313 "C:\Users\Lshi\Documents\Extracurriculars\Gov School\Robotics\GSET_Robotics\Maze\409_Maze_Test.nxc"
16	313	3	#line 313 "C:\Users\Lshi\Documents\Extracurriculars\Gov School\Robotics\GSET_Robotics\Maze\409_Maze_Test.nxc"
16	314	3		mul __signed_stack_002singleWheelTurn, dir, __singleWheelTurn_7qG2_degrees_7qG2_000
16	313	7	#line 313 "C:\Users\Lshi\Documents\Extracurriculars\Gov School\Robotics\GSET_Robotics\Maze\409_Maze_Test.nxc"
16	313	7	#line 313 "C:\Users\Lshi\Documents\Extracurriculars\Gov School\Robotics\GSET_Robotics\Maze\409_Maze_Test.nxc"
16	313	7	#line 313 "C:\Users\Lshi\Documents\Extracurriculars\Gov School\Robotics\GSET_Robotics\Maze\409_Maze_Test.nxc"
16	314	7		mul __DF0singleWheelTurn, __signed_stack_002singleWheelTurn, __constValf4P8
16	314	11	#line 314 "C:\Users\Lshi\Documents\Extracurriculars\Gov School\Robotics\GSET_Robotics\Maze\409_Maze_Test.nxc"
16	315	11	#pragma macro 22
16	315	11		acquire __rotateMutex0
16	315	12		acquire __rotateMutex1
16	315	13		acquire __rotateMutex2
16	315	14		arrbuild __rotate_ports6, __singleWheelTurn_7qG2_motor_7qG2_000
16	315	18		mov __rotate_power6, __signed_stack_001singleWheelTurn
16	315	21		mov __rotate_angle6, __DF0singleWheelTurn
16	315	23		mov __rotate_turnpct6, __constVal0
16	315	25		mov __rotate_sync6, __constVal0
16	315	27		mov __rotate_stop6, __constVal1
16	315	29		mov __rotate_theRVP6, __constVal32
16	315	31		mov __rotate_theRVI6, __constVal0
16	315	33		mov __rotate_theRVD6, __constVal96
16	315	35		subcall __RotateMotorVar, ____RotateMotorVar_return
16	315	38		release __rotateMutex2
16	315	39		release __rotateMutex1
16	315	40		release __rotateMutex0
16	7255	41	#line 7255 "C:\Users\Lshi\Documents\Extracurriculars\Gov School\Robotics\GSET_Robotics\Maze\409_Maze_Test.nxc"
16	314	41	#line 314 "C:\Users\Lshi\Documents\Extracurriculars\Gov School\Robotics\GSET_Robotics\Maze\409_Maze_Test.nxc"
16	314	41	#line 314 "C:\Users\Lshi\Documents\Extracurriculars\Gov School\Robotics\GSET_Robotics\Maze\409_Maze_Test.nxc"
16	315	41		set __Wait_7qG2_ms_7qG2_000_inline_singleWheelTurn, 100
16	314	44	#line 314 "C:\Users\Lshi\Documents\Extracurriculars\Gov School\Robotics\GSET_Robotics\Maze\409_Maze_Test.nxc"
16	7921	44	#line 7921 "NXCDefs.h"
16	7922	44		wait2 NA, __Wait_7qG2_ms_7qG2_000_inline_singleWheelTurn
16	7921	47	#line 7921 "NXCDefs.h"
16	315	47	#line 315 "C:\Users\Lshi\Documents\Extracurriculars\Gov School\Robotics\GSET_Robotics\Maze\409_Maze_Test.nxc"
16	317	47	#line 317 "C:\Users\Lshi\Documents\Extracurriculars\Gov School\Robotics\GSET_Robotics\Maze\409_Maze_Test.nxc"
16	318	47		subret __singleWheelTurn_return
17	340	0	#line 340 "C:\Users\Lshi\Documents\Extracurriculars\Gov School\Robotics\GSET_Robotics\Maze\409_Maze_Test.nxc"
17	341	0	#pragma macro 26
17	341	0		acquire __RLSBmutex1
17	341	1		mov __RLSReadBuf1, __RLSBbufLSWrite1
17	341	3		set __RLSBytesCount1, 1
17	341	6		wait2 NA, __constVal15
17	341	9		subcall __ReadLSBytes1, ____ReadLSBytes1_return
17	341	12		index __D0turnCheck, __RLSReadBuf1, 65535
17	341	16		release __RLSBmutex1
17	7503	17	#line 7503 "C:\Users\Lshi\Documents\Extracurriculars\Gov School\Robotics\GSET_Robotics\Maze\409_Maze_Test.nxc"
17	340	17	#line 340 "C:\Users\Lshi\Documents\Extracurriculars\Gov School\Robotics\GSET_Robotics\Maze\409_Maze_Test.nxc"
17	341	17		mov __signed_stack_001turnCheck, __D0turnCheck
17	340	19	#line 340 "C:\Users\Lshi\Documents\Extracurriculars\Gov School\Robotics\GSET_Robotics\Maze\409_Maze_Test.nxc"
17	341	19		set __D0turnCheck, 13
17	340	22	#line 340 "C:\Users\Lshi\Documents\Extracurriculars\Gov School\Robotics\GSET_Robotics\Maze\409_Maze_Test.nxc"
17	341	22		cmp 1, __zfturnCheck, __signed_stack_001turnCheck, __D0turnCheck
17	340	26	#line 340 "C:\Users\Lshi\Documents\Extracurriculars\Gov School\Robotics\GSET_Robotics\Maze\409_Maze_Test.nxc"
17	341	26		mov __D0turnCheck, __zfturnCheck
17	341	29	#line 341 "C:\Users\Lshi\Documents\Extracurriculars\Gov School\Robotics\GSET_Robotics\Maze\409_Maze_Test.nxc"
17	342	29		brtst 4, __NXC_Label_865, __zfturnCheck
17	342	32	#line 342 "C:\Users\Lshi\Documents\Extracurriculars\Gov School\Robotics\GSET_Robotics\Maze\409_Maze_Test.nxc"
17	343	32		set __D0turnCheck, 1
17	342	35	#line 342 "C:\Users\Lshi\Documents\Extracurriculars\Gov School\Robotics\GSET_Robotics\Maze\409_Maze_Test.nxc"
17	343	35		subret __turnCheck_return
17	342	37	#line 342 "C:\Users\Lshi\Documents\Extracurriculars\Gov School\Robotics\GSET_Robotics\Maze\409_Maze_Test.nxc"
17	344	37	#line 344 "C:\Users\Lshi\Documents\Extracurriculars\Gov School\Robotics\GSET_Robotics\Maze\409_Maze_Test.nxc"
17	345	37		jmp __NXC_Label_868
17	345	39	#line 345 "C:\Users\Lshi\Documents\Extracurriculars\Gov School\Robotics\GSET_Robotics\Maze\409_Maze_Test.nxc"
17	346	39		set __D0turnCheck, 0
17	345	42	#line 345 "C:\Users\Lshi\Documents\Extracurriculars\Gov School\Robotics\GSET_Robotics\Maze\409_Maze_Test.nxc"
17	346	42		subret __turnCheck_return
17	345	44	#line 345 "C:\Users\Lshi\Documents\Extracurriculars\Gov School\Robotics\GSET_Robotics\Maze\409_Maze_Test.nxc"
17	348	44	#line 348 "C:\Users\Lshi\Documents\Extracurriculars\Gov School\Robotics\GSET_Robotics\Maze\409_Maze_Test.nxc"
17	348	44	#line 348 "C:\Users\Lshi\Documents\Extracurriculars\Gov School\Robotics\GSET_Robotics\Maze\409_Maze_Test.nxc"
17	349	44		subret __turnCheck_return
18	349	0	#line 349 "C:\Users\Lshi\Documents\Extracurriculars\Gov School\Robotics\GSET_Robotics\Maze\409_Maze_Test.nxc"
18	350	0		set __HTEnhancedIRSeekerV2_7qG2_port_7qG2_000, 3
18	349	3	#line 349 "C:\Users\Lshi\Documents\Extracurriculars\Gov School\Robotics\GSET_Robotics\Maze\409_Maze_Test.nxc"
18	349	3	#line 349 "C:\Users\Lshi\Documents\Extracurriculars\Gov School\Robotics\GSET_Robotics\Maze\409_Maze_Test.nxc"
18	350	3		mov __HTEnhancedIRSeekerV2_7qG2_dir_7qG2_000, IRdir
18	349	5	#line 349 "C:\Users\Lshi\Documents\Extracurriculars\Gov School\Robotics\GSET_Robotics\Maze\409_Maze_Test.nxc"
18	350	5		mov __HTEnhancedIRSeekerV2_7qG2_strength_7qG2_000, strength
18	350	7	#line 350 "C:\Users\Lshi\Documents\Extracurriculars\Gov School\Robotics\GSET_Robotics\Maze\409_Maze_Test.nxc"
18	351	7		subcall HTEnhancedIRSeekerV2, __HTEnhancedIRSeekerV2_return
18	350	10	#line 350 "C:\Users\Lshi\Documents\Extracurriculars\Gov School\Robotics\GSET_Robotics\Maze\409_Maze_Test.nxc"
18	351	10		mov IRdir, __HTEnhancedIRSeekerV2_7qG2_dir_7qG2_000
18	350	12	#line 350 "C:\Users\Lshi\Documents\Extracurriculars\Gov School\Robotics\GSET_Robotics\Maze\409_Maze_Test.nxc"
18	351	12		mov strength, __HTEnhancedIRSeekerV2_7qG2_strength_7qG2_000
18	350	14	#line 350 "C:\Users\Lshi\Documents\Extracurriculars\Gov School\Robotics\GSET_Robotics\Maze\409_Maze_Test.nxc"
18	350	14	#line 350 "C:\Users\Lshi\Documents\Extracurriculars\Gov School\Robotics\GSET_Robotics\Maze\409_Maze_Test.nxc"
18	351	14		mov __signed_stack_001ballFind, __HTEnhancedIRSeekerV2_7qG2_strength_7qG2_000
18	350	16	#line 350 "C:\Users\Lshi\Documents\Extracurriculars\Gov School\Robotics\GSET_Robotics\Maze\409_Maze_Test.nxc"
18	350	16	#line 350 "C:\Users\Lshi\Documents\Extracurriculars\Gov School\Robotics\GSET_Robotics\Maze\409_Maze_Test.nxc"
18	351	16		set __D0ballFind, 65
18	350	19	#line 350 "C:\Users\Lshi\Documents\Extracurriculars\Gov School\Robotics\GSET_Robotics\Maze\409_Maze_Test.nxc"
18	351	19		cmp 1, __zfballFind, __signed_stack_001ballFind, __D0ballFind
18	350	23	#line 350 "C:\Users\Lshi\Documents\Extracurriculars\Gov School\Robotics\GSET_Robotics\Maze\409_Maze_Test.nxc"
18	351	23		mov __D0ballFind, __zfballFind
18	351	26	#line 351 "C:\Users\Lshi\Documents\Extracurriculars\Gov School\Robotics\GSET_Robotics\Maze\409_Maze_Test.nxc"
18	352	26		brtst 4, __NXC_Label_875, __zfballFind
18	352	29	#line 352 "C:\Users\Lshi\Documents\Extracurriculars\Gov School\Robotics\GSET_Robotics\Maze\409_Maze_Test.nxc"
18	353	29		mov __D0ballFind, IRdir
18	352	31	#line 352 "C:\Users\Lshi\Documents\Extracurriculars\Gov School\Robotics\GSET_Robotics\Maze\409_Maze_Test.nxc"
18	353	31		subret __ballFind_return
18	352	33	#line 352 "C:\Users\Lshi\Documents\Extracurriculars\Gov School\Robotics\GSET_Robotics\Maze\409_Maze_Test.nxc"
18	354	33	#line 354 "C:\Users\Lshi\Documents\Extracurriculars\Gov School\Robotics\GSET_Robotics\Maze\409_Maze_Test.nxc"
18	355	33		jmp __NXC_Label_878
18	355	35	#line 355 "C:\Users\Lshi\Documents\Extracurriculars\Gov School\Robotics\GSET_Robotics\Maze\409_Maze_Test.nxc"
18	356	35		set __D0ballFind, 0
18	355	38	#line 355 "C:\Users\Lshi\Documents\Extracurriculars\Gov School\Robotics\GSET_Robotics\Maze\409_Maze_Test.nxc"
18	356	38		subret __ballFind_return
18	355	40	#line 355 "C:\Users\Lshi\Documents\Extracurriculars\Gov School\Robotics\GSET_Robotics\Maze\409_Maze_Test.nxc"
18	358	40	#line 358 "C:\Users\Lshi\Documents\Extracurriculars\Gov School\Robotics\GSET_Robotics\Maze\409_Maze_Test.nxc"
18	358	40	#line 358 "C:\Users\Lshi\Documents\Extracurriculars\Gov School\Robotics\GSET_Robotics\Maze\409_Maze_Test.nxc"
18	359	40		subret __ballFind_return
19	362	0	#line 362 "C:\Users\Lshi\Documents\Extracurriculars\Gov School\Robotics\GSET_Robotics\Maze\409_Maze_Test.nxc"
19	363	0		arrbuild __HTEnhancedIRSeekerV2_7qG2_cmdBuf_7qG2_000, __constVal16, __constVal67
19	368	5	#line 368 "C:\Users\Lshi\Documents\Extracurriculars\Gov School\Robotics\GSET_Robotics\Maze\409_Maze_Test.nxc"
19	369	5		set __HTEnhancedIRSeekerV2_7qG2_dir_7qG2_000, 0
19	368	8	#line 368 "C:\Users\Lshi\Documents\Extracurriculars\Gov School\Robotics\GSET_Robotics\Maze\409_Maze_Test.nxc"
19	368	8	#line 368 "C:\Users\Lshi\Documents\Extracurriculars\Gov School\Robotics\GSET_Robotics\Maze\409_Maze_Test.nxc"
19	371	8	#line 371 "C:\Users\Lshi\Documents\Extracurriculars\Gov School\Robotics\GSET_Robotics\Maze\409_Maze_Test.nxc"
19	372	8		set __HTEnhancedIRSeekerV2_7qG2_strength_7qG2_000, 0
19	371	11	#line 371 "C:\Users\Lshi\Documents\Extracurriculars\Gov School\Robotics\GSET_Robotics\Maze\409_Maze_Test.nxc"
19	371	11	#line 371 "C:\Users\Lshi\Documents\Extracurriculars\Gov School\Robotics\GSET_Robotics\Maze\409_Maze_Test.nxc"
19	372	11	#line 372 "C:\Users\Lshi\Documents\Extracurriculars\Gov School\Robotics\GSET_Robotics\Maze\409_Maze_Test.nxc"
19	373	11		set __HTEnhancedIRSeekerV2_7qG2_cResp_7qG2_000, 6
19	372	14	#line 372 "C:\Users\Lshi\Documents\Extracurriculars\Gov School\Robotics\GSET_Robotics\Maze\409_Maze_Test.nxc"
19	372	14	#line 372 "C:\Users\Lshi\Documents\Extracurriculars\Gov School\Robotics\GSET_Robotics\Maze\409_Maze_Test.nxc"
19	372	14	#line 372 "C:\Users\Lshi\Documents\Extracurriculars\Gov School\Robotics\GSET_Robotics\Maze\409_Maze_Test.nxc"
19	373	14	#pragma macro 28
19	373	14		acquire __RLSBmutex0
19	373	15		acquire __RLSBmutex1
19	373	16		acquire __RLSBmutex2
19	373	17		acquire __RLSBmutex3
19	373	18		mov __RLSReadPort, __HTEnhancedIRSeekerV2_7qG2_port_7qG2_000
19	373	20		mov __RLSReadBufVar, __HTEnhancedIRSeekerV2_7qG2_cmdBuf_7qG2_000
19	373	22		mov __RLSBytesCountVar, __HTEnhancedIRSeekerV2_7qG2_cResp_7qG2_000
19	373	24		subcall __ReadLSBytesVar, ____ReadLSBytesVar_return
19	373	27		tst 4, __D0HTEnhancedIRSeekerV2, __RLSBResultVar
19	373	30		mov __HTEnhancedIRSeekerV2_7qG2_cResp_7qG2_000, __RLSBytesCountVar
19	373	32		mov __HTEnhancedIRSeekerV2_7qG2_respBuf_7qG2_000, __RLSReadBufVar
19	373	34		release __RLSBmutex0
19	373	35		release __RLSBmutex1
19	373	36		release __RLSBmutex2
19	373	37		release __RLSBmutex3
19	7651	38	#line 7651 "C:\Users\Lshi\Documents\Extracurriculars\Gov School\Robotics\GSET_Robotics\Maze\409_Maze_Test.nxc"
19	372	38	#line 372 "C:\Users\Lshi\Documents\Extracurriculars\Gov School\Robotics\GSET_Robotics\Maze\409_Maze_Test.nxc"
19	373	38		mov __HTEnhancedIRSeekerV2_7qG2_fSuccess_7qG2_000, __D0HTEnhancedIRSeekerV2
19	372	41	#line 372 "C:\Users\Lshi\Documents\Extracurriculars\Gov School\Robotics\GSET_Robotics\Maze\409_Maze_Test.nxc"
19	372	41	#line 372 "C:\Users\Lshi\Documents\Extracurriculars\Gov School\Robotics\GSET_Robotics\Maze\409_Maze_Test.nxc"
19	373	41	#line 373 "C:\Users\Lshi\Documents\Extracurriculars\Gov School\Robotics\GSET_Robotics\Maze\409_Maze_Test.nxc"
19	374	41		mov __DU0HTEnhancedIRSeekerV2, __D0HTEnhancedIRSeekerV2
19	375	43	#line 375 "C:\Users\Lshi\Documents\Extracurriculars\Gov School\Robotics\GSET_Robotics\Maze\409_Maze_Test.nxc"
19	376	43		tst 5, __zfHTEnhancedIRSeekerV2, __DU0HTEnhancedIRSeekerV2
19	375	46	#line 375 "C:\Users\Lshi\Documents\Extracurriculars\Gov School\Robotics\GSET_Robotics\Maze\409_Maze_Test.nxc"
19	376	46		brtst 4, __NXC_Label_891, __zfHTEnhancedIRSeekerV2
19	376	49	#line 376 "C:\Users\Lshi\Documents\Extracurriculars\Gov School\Robotics\GSET_Robotics\Maze\409_Maze_Test.nxc"
19	377	49		set __HTEnhancedIRSeekerV2_7qG2_iMax_7qG2_000, 0
19	376	52	#line 376 "C:\Users\Lshi\Documents\Extracurriculars\Gov School\Robotics\GSET_Robotics\Maze\409_Maze_Test.nxc"
19	376	52	#line 376 "C:\Users\Lshi\Documents\Extracurriculars\Gov School\Robotics\GSET_Robotics\Maze\409_Maze_Test.nxc"
19	376	52	#line 376 "C:\Users\Lshi\Documents\Extracurriculars\Gov School\Robotics\GSET_Robotics\Maze\409_Maze_Test.nxc"
19	377	52		set __HTEnhancedIRSeekerV2_7qG2_i_7qG2_000, 1
19	376	55	#line 376 "C:\Users\Lshi\Documents\Extracurriculars\Gov School\Robotics\GSET_Robotics\Maze\409_Maze_Test.nxc"
19	376	55	#line 376 "C:\Users\Lshi\Documents\Extracurriculars\Gov School\Robotics\GSET_Robotics\Maze\409_Maze_Test.nxc"
19	377	55		mov __signed_stack_001HTEnhancedIRSeekerV2, __HTEnhancedIRSeekerV2_7qG2_i_7qG2_000
19	376	57	#line 376 "C:\Users\Lshi\Documents\Extracurriculars\Gov School\Robotics\GSET_Robotics\Maze\409_Maze_Test.nxc"
19	376	57	#line 376 "C:\Users\Lshi\Documents\Extracurriculars\Gov School\Robotics\GSET_Robotics\Maze\409_Maze_Test.nxc"
19	377	57		set __D0HTEnhancedIRSeekerV2, 5
19	376	60	#line 376 "C:\Users\Lshi\Documents\Extracurriculars\Gov School\Robotics\GSET_Robotics\Maze\409_Maze_Test.nxc"
19	377	60		cmp 0, __zfHTEnhancedIRSeekerV2, __signed_stack_001HTEnhancedIRSeekerV2, __D0HTEnhancedIRSeekerV2
19	376	64	#line 376 "C:\Users\Lshi\Documents\Extracurriculars\Gov School\Robotics\GSET_Robotics\Maze\409_Maze_Test.nxc"
19	377	64		mov __D0HTEnhancedIRSeekerV2, __zfHTEnhancedIRSeekerV2
19	376	67	#line 376 "C:\Users\Lshi\Documents\Extracurriculars\Gov School\Robotics\GSET_Robotics\Maze\409_Maze_Test.nxc"
19	377	67		brtst 4, __NXC_Label_895, __zfHTEnhancedIRSeekerV2
19	376	70	#line 376 "C:\Users\Lshi\Documents\Extracurriculars\Gov School\Robotics\GSET_Robotics\Maze\409_Maze_Test.nxc"
19	377	70		jmp __NXC_Label_896
19	376	72	#line 376 "C:\Users\Lshi\Documents\Extracurriculars\Gov School\Robotics\GSET_Robotics\Maze\409_Maze_Test.nxc"
19	377	72		add __HTEnhancedIRSeekerV2_7qG2_i_7qG2_000, __HTEnhancedIRSeekerV2_7qG2_i_7qG2_000, __constVal1
19	376	76	#line 376 "C:\Users\Lshi\Documents\Extracurriculars\Gov School\Robotics\GSET_Robotics\Maze\409_Maze_Test.nxc"
19	377	76		jmp __NXC_Label_894
19	376	78	#line 376 "C:\Users\Lshi\Documents\Extracurriculars\Gov School\Robotics\GSET_Robotics\Maze\409_Maze_Test.nxc"
19	377	78		mov __signed_stack_001HTEnhancedIRSeekerV2, __HTEnhancedIRSeekerV2_7qG2_i_7qG2_000
19	376	80	#line 376 "C:\Users\Lshi\Documents\Extracurriculars\Gov School\Robotics\GSET_Robotics\Maze\409_Maze_Test.nxc"
19	376	80	#line 376 "C:\Users\Lshi\Documents\Extracurriculars\Gov School\Robotics\GSET_Robotics\Maze\409_Maze_Test.nxc"
19	377	80		index __ArrHelper__HTEnhancedIRSeekerV2_98_0, __HTEnhancedIRSeekerV2_7qG2_respBuf_7qG2_000, __signed_stack_001HTEnhancedIRSeekerV2
19	376	84	#line 376 "C:\Users\Lshi\Documents\Extracurriculars\Gov School\Robotics\GSET_Robotics\Maze\409_Maze_Test.nxc"
19	377	84		mov __unsigned_stack_001HTEnhancedIRSeekerV2, __ArrHelper__HTEnhancedIRSeekerV2_98_0
19	376	87	#line 376 "C:\Users\Lshi\Documents\Extracurriculars\Gov School\Robotics\GSET_Robotics\Maze\409_Maze_Test.nxc"
19	376	87	#line 376 "C:\Users\Lshi\Documents\Extracurriculars\Gov School\Robotics\GSET_Robotics\Maze\409_Maze_Test.nxc"
19	377	87		mov __signed_stack_002HTEnhancedIRSeekerV2, __HTEnhancedIRSeekerV2_7qG2_iMax_7qG2_000
19	376	89	#line 376 "C:\Users\Lshi\Documents\Extracurriculars\Gov School\Robotics\GSET_Robotics\Maze\409_Maze_Test.nxc"
19	376	89	#line 376 "C:\Users\Lshi\Documents\Extracurriculars\Gov School\Robotics\GSET_Robotics\Maze\409_Maze_Test.nxc"
19	377	89		index __ArrHelper__HTEnhancedIRSeekerV2_98_0, __HTEnhancedIRSeekerV2_7qG2_respBuf_7qG2_000, __signed_stack_002HTEnhancedIRSeekerV2
19	376	93	#line 376 "C:\Users\Lshi\Documents\Extracurriculars\Gov School\Robotics\GSET_Robotics\Maze\409_Maze_Test.nxc"
19	377	93		mov __DU0HTEnhancedIRSeekerV2, __ArrHelper__HTEnhancedIRSeekerV2_98_0
19	376	96	#line 376 "C:\Users\Lshi\Documents\Extracurriculars\Gov School\Robotics\GSET_Robotics\Maze\409_Maze_Test.nxc"
19	377	96		cmp 1, __zfHTEnhancedIRSeekerV2, __unsigned_stack_001HTEnhancedIRSeekerV2, __DU0HTEnhancedIRSeekerV2
19	376	100	#line 376 "C:\Users\Lshi\Documents\Extracurriculars\Gov School\Robotics\GSET_Robotics\Maze\409_Maze_Test.nxc"
19	377	100		mov __D0HTEnhancedIRSeekerV2, __zfHTEnhancedIRSeekerV2
19	376	103	#line 376 "C:\Users\Lshi\Documents\Extracurriculars\Gov School\Robotics\GSET_Robotics\Maze\409_Maze_Test.nxc"
19	377	103		brtst 4, __NXC_Label_908, __zfHTEnhancedIRSeekerV2
19	378	106	#line 378 "C:\Users\Lshi\Documents\Extracurriculars\Gov School\Robotics\GSET_Robotics\Maze\409_Maze_Test.nxc"
19	379	106		mov __HTEnhancedIRSeekerV2_7qG2_iMax_7qG2_000, __HTEnhancedIRSeekerV2_7qG2_i_7qG2_000
19	378	108	#line 378 "C:\Users\Lshi\Documents\Extracurriculars\Gov School\Robotics\GSET_Robotics\Maze\409_Maze_Test.nxc"
19	378	108	#line 378 "C:\Users\Lshi\Documents\Extracurriculars\Gov School\Robotics\GSET_Robotics\Maze\409_Maze_Test.nxc"
19	378	108	#line 378 "C:\Users\Lshi\Documents\Extracurriculars\Gov School\Robotics\GSET_Robotics\Maze\409_Maze_Test.nxc"
19	378	108	#line 378 "C:\Users\Lshi\Documents\Extracurriculars\Gov School\Robotics\GSET_Robotics\Maze\409_Maze_Test.nxc"
19	379	108		jmp __NXC_Label_897
19	378	110	#line 378 "C:\Users\Lshi\Documents\Extracurriculars\Gov School\Robotics\GSET_Robotics\Maze\409_Maze_Test.nxc"
19	378	110	#line 378 "C:\Users\Lshi\Documents\Extracurriculars\Gov School\Robotics\GSET_Robotics\Maze\409_Maze_Test.nxc"
19	378	110	#line 378 "C:\Users\Lshi\Documents\Extracurriculars\Gov School\Robotics\GSET_Robotics\Maze\409_Maze_Test.nxc"
19	378	110	#line 378 "C:\Users\Lshi\Documents\Extracurriculars\Gov School\Robotics\GSET_Robotics\Maze\409_Maze_Test.nxc"
19	378	110	#line 378 "C:\Users\Lshi\Documents\Extracurriculars\Gov School\Robotics\GSET_Robotics\Maze\409_Maze_Test.nxc"
19	379	110		mul __signed_stack_001HTEnhancedIRSeekerV2, __HTEnhancedIRSeekerV2_7qG2_iMax_7qG2_000, __constVal2
19	378	114	#line 378 "C:\Users\Lshi\Documents\Extracurriculars\Gov School\Robotics\GSET_Robotics\Maze\409_Maze_Test.nxc"
19	380	114	#line 380 "C:\Users\Lshi\Documents\Extracurriculars\Gov School\Robotics\GSET_Robotics\Maze\409_Maze_Test.nxc"
19	380	114	#line 380 "C:\Users\Lshi\Documents\Extracurriculars\Gov School\Robotics\GSET_Robotics\Maze\409_Maze_Test.nxc"
19	381	114		add __HTEnhancedIRSeekerV2_7qG2_dir_7qG2_000, __signed_stack_001HTEnhancedIRSeekerV2, __constVal1
19	380	118	#line 380 "C:\Users\Lshi\Documents\Extracurriculars\Gov School\Robotics\GSET_Robotics\Maze\409_Maze_Test.nxc"
19	380	118	#line 380 "C:\Users\Lshi\Documents\Extracurriculars\Gov School\Robotics\GSET_Robotics\Maze\409_Maze_Test.nxc"
19	380	118	#line 380 "C:\Users\Lshi\Documents\Extracurriculars\Gov School\Robotics\GSET_Robotics\Maze\409_Maze_Test.nxc"
19	381	118		mov __signed_stack_001HTEnhancedIRSeekerV2, __HTEnhancedIRSeekerV2_7qG2_iMax_7qG2_000
19	380	120	#line 380 "C:\Users\Lshi\Documents\Extracurriculars\Gov School\Robotics\GSET_Robotics\Maze\409_Maze_Test.nxc"
19	380	120	#line 380 "C:\Users\Lshi\Documents\Extracurriculars\Gov School\Robotics\GSET_Robotics\Maze\409_Maze_Test.nxc"
19	381	120		index __ArrHelper__HTEnhancedIRSeekerV2_98_0, __HTEnhancedIRSeekerV2_7qG2_respBuf_7qG2_000, __signed_stack_001HTEnhancedIRSeekerV2
19	380	124	#line 380 "C:\Users\Lshi\Documents\Extracurriculars\Gov School\Robotics\GSET_Robotics\Maze\409_Maze_Test.nxc"
19	381	124		mov __unsigned_stack_001HTEnhancedIRSeekerV2, __ArrHelper__HTEnhancedIRSeekerV2_98_0
19	380	127	#line 380 "C:\Users\Lshi\Documents\Extracurriculars\Gov School\Robotics\GSET_Robotics\Maze\409_Maze_Test.nxc"
19	380	127	#line 380 "C:\Users\Lshi\Documents\Extracurriculars\Gov School\Robotics\GSET_Robotics\Maze\409_Maze_Test.nxc"
19	381	127		set __signed_stack_002HTEnhancedIRSeekerV2, 5
19	380	130	#line 380 "C:\Users\Lshi\Documents\Extracurriculars\Gov School\Robotics\GSET_Robotics\Maze\409_Maze_Test.nxc"
19	380	130	#line 380 "C:\Users\Lshi\Documents\Extracurriculars\Gov School\Robotics\GSET_Robotics\Maze\409_Maze_Test.nxc"
19	381	130		index __ArrHelper__HTEnhancedIRSeekerV2_98_0, __HTEnhancedIRSeekerV2_7qG2_respBuf_7qG2_000, __signed_stack_002HTEnhancedIRSeekerV2
19	380	134	#line 380 "C:\Users\Lshi\Documents\Extracurriculars\Gov School\Robotics\GSET_Robotics\Maze\409_Maze_Test.nxc"
19	382	134	#line 382 "C:\Users\Lshi\Documents\Extracurriculars\Gov School\Robotics\GSET_Robotics\Maze\409_Maze_Test.nxc"
19	383	134		add __HTEnhancedIRSeekerV2_7qG2_dcSigSum_7qG2_000, __unsigned_stack_001HTEnhancedIRSeekerV2, __ArrHelper__HTEnhancedIRSeekerV2_98_0
19	382	138	#line 382 "C:\Users\Lshi\Documents\Extracurriculars\Gov School\Robotics\GSET_Robotics\Maze\409_Maze_Test.nxc"
19	382	138	#line 382 "C:\Users\Lshi\Documents\Extracurriculars\Gov School\Robotics\GSET_Robotics\Maze\409_Maze_Test.nxc"
19	382	138	#line 382 "C:\Users\Lshi\Documents\Extracurriculars\Gov School\Robotics\GSET_Robotics\Maze\409_Maze_Test.nxc"
19	383	138		mov __signed_stack_001HTEnhancedIRSeekerV2, __HTEnhancedIRSeekerV2_7qG2_iMax_7qG2_000
19	382	140	#line 382 "C:\Users\Lshi\Documents\Extracurriculars\Gov School\Robotics\GSET_Robotics\Maze\409_Maze_Test.nxc"
19	382	140	#line 382 "C:\Users\Lshi\Documents\Extracurriculars\Gov School\Robotics\GSET_Robotics\Maze\409_Maze_Test.nxc"
19	383	140		set __D0HTEnhancedIRSeekerV2, 0
19	382	143	#line 382 "C:\Users\Lshi\Documents\Extracurriculars\Gov School\Robotics\GSET_Robotics\Maze\409_Maze_Test.nxc"
19	383	143		cmp 1, __zfHTEnhancedIRSeekerV2, __signed_stack_001HTEnhancedIRSeekerV2, __D0HTEnhancedIRSeekerV2
19	382	147	#line 382 "C:\Users\Lshi\Documents\Extracurriculars\Gov School\Robotics\GSET_Robotics\Maze\409_Maze_Test.nxc"
19	383	147		mov __D0HTEnhancedIRSeekerV2, __zfHTEnhancedIRSeekerV2
19	382	150	#line 382 "C:\Users\Lshi\Documents\Extracurriculars\Gov School\Robotics\GSET_Robotics\Maze\409_Maze_Test.nxc"
19	383	150		brtst 4, __NXC_Label_920, __zfHTEnhancedIRSeekerV2
19	382	153	#line 382 "C:\Users\Lshi\Documents\Extracurriculars\Gov School\Robotics\GSET_Robotics\Maze\409_Maze_Test.nxc"
19	383	153		mov __signed_stack_001HTEnhancedIRSeekerV2, __D0HTEnhancedIRSeekerV2
19	382	155	#line 382 "C:\Users\Lshi\Documents\Extracurriculars\Gov School\Robotics\GSET_Robotics\Maze\409_Maze_Test.nxc"
19	382	155	#line 382 "C:\Users\Lshi\Documents\Extracurriculars\Gov School\Robotics\GSET_Robotics\Maze\409_Maze_Test.nxc"
19	382	155	#line 382 "C:\Users\Lshi\Documents\Extracurriculars\Gov School\Robotics\GSET_Robotics\Maze\409_Maze_Test.nxc"
19	382	155	#line 382 "C:\Users\Lshi\Documents\Extracurriculars\Gov School\Robotics\GSET_Robotics\Maze\409_Maze_Test.nxc"
19	383	155		sub __signed_stack_002HTEnhancedIRSeekerV2, __HTEnhancedIRSeekerV2_7qG2_iMax_7qG2_000, __constVal1
19	382	159	#line 382 "C:\Users\Lshi\Documents\Extracurriculars\Gov School\Robotics\GSET_Robotics\Maze\409_Maze_Test.nxc"
19	382	159	#line 382 "C:\Users\Lshi\Documents\Extracurriculars\Gov School\Robotics\GSET_Robotics\Maze\409_Maze_Test.nxc"
19	383	159		index __ArrHelper__HTEnhancedIRSeekerV2_98_0, __HTEnhancedIRSeekerV2_7qG2_respBuf_7qG2_000, __signed_stack_002HTEnhancedIRSeekerV2
19	382	163	#line 382 "C:\Users\Lshi\Documents\Extracurriculars\Gov School\Robotics\GSET_Robotics\Maze\409_Maze_Test.nxc"
19	383	163		mov __unsigned_stack_002HTEnhancedIRSeekerV2, __ArrHelper__HTEnhancedIRSeekerV2_98_0
19	382	166	#line 382 "C:\Users\Lshi\Documents\Extracurriculars\Gov School\Robotics\GSET_Robotics\Maze\409_Maze_Test.nxc"
19	382	166	#line 382 "C:\Users\Lshi\Documents\Extracurriculars\Gov School\Robotics\GSET_Robotics\Maze\409_Maze_Test.nxc"
19	383	166		mov __signed_stack_003HTEnhancedIRSeekerV2, __HTEnhancedIRSeekerV2_7qG2_iMax_7qG2_000
19	382	168	#line 382 "C:\Users\Lshi\Documents\Extracurriculars\Gov School\Robotics\GSET_Robotics\Maze\409_Maze_Test.nxc"
19	382	168	#line 382 "C:\Users\Lshi\Documents\Extracurriculars\Gov School\Robotics\GSET_Robotics\Maze\409_Maze_Test.nxc"
19	383	168		index __ArrHelper__HTEnhancedIRSeekerV2_98_0, __HTEnhancedIRSeekerV2_7qG2_respBuf_7qG2_000, __signed_stack_003HTEnhancedIRSeekerV2
19	382	172	#line 382 "C:\Users\Lshi\Documents\Extracurriculars\Gov School\Robotics\GSET_Robotics\Maze\409_Maze_Test.nxc"
19	382	172	#line 382 "C:\Users\Lshi\Documents\Extracurriculars\Gov School\Robotics\GSET_Robotics\Maze\409_Maze_Test.nxc"
19	382	172	#line 382 "C:\Users\Lshi\Documents\Extracurriculars\Gov School\Robotics\GSET_Robotics\Maze\409_Maze_Test.nxc"
19	382	172	#line 382 "C:\Users\Lshi\Documents\Extracurriculars\Gov School\Robotics\GSET_Robotics\Maze\409_Maze_Test.nxc"
19	383	172		div __D0HTEnhancedIRSeekerV2, __ArrHelper__HTEnhancedIRSeekerV2_98_0, __constVal2
19	382	176	#line 382 "C:\Users\Lshi\Documents\Extracurriculars\Gov School\Robotics\GSET_Robotics\Maze\409_Maze_Test.nxc"
19	383	176		cmp 1, __zfHTEnhancedIRSeekerV2, __unsigned_stack_002HTEnhancedIRSeekerV2, __D0HTEnhancedIRSeekerV2
19	382	180	#line 382 "C:\Users\Lshi\Documents\Extracurriculars\Gov School\Robotics\GSET_Robotics\Maze\409_Maze_Test.nxc"
19	382	180	#line 382 "C:\Users\Lshi\Documents\Extracurriculars\Gov School\Robotics\GSET_Robotics\Maze\409_Maze_Test.nxc"
19	383	180		and __D0HTEnhancedIRSeekerV2, __signed_stack_001HTEnhancedIRSeekerV2, __zfHTEnhancedIRSeekerV2
19	383	184	#line 383 "C:\Users\Lshi\Documents\Extracurriculars\Gov School\Robotics\GSET_Robotics\Maze\409_Maze_Test.nxc"
19	384	184		tst 5, __zfHTEnhancedIRSeekerV2, __D0HTEnhancedIRSeekerV2
19	383	187	#line 383 "C:\Users\Lshi\Documents\Extracurriculars\Gov School\Robotics\GSET_Robotics\Maze\409_Maze_Test.nxc"
19	384	187		brtst 4, __NXC_Label_929, __zfHTEnhancedIRSeekerV2
19	384	190	#line 384 "C:\Users\Lshi\Documents\Extracurriculars\Gov School\Robotics\GSET_Robotics\Maze\409_Maze_Test.nxc"
19	385	190		sub __HTEnhancedIRSeekerV2_7qG2_dir_7qG2_000, __HTEnhancedIRSeekerV2_7qG2_dir_7qG2_000, __constVal1
19	384	194	#line 384 "C:\Users\Lshi\Documents\Extracurriculars\Gov School\Robotics\GSET_Robotics\Maze\409_Maze_Test.nxc"
19	384	194	#line 384 "C:\Users\Lshi\Documents\Extracurriculars\Gov School\Robotics\GSET_Robotics\Maze\409_Maze_Test.nxc"
19	384	194	#line 384 "C:\Users\Lshi\Documents\Extracurriculars\Gov School\Robotics\GSET_Robotics\Maze\409_Maze_Test.nxc"
19	384	194	#line 384 "C:\Users\Lshi\Documents\Extracurriculars\Gov School\Robotics\GSET_Robotics\Maze\409_Maze_Test.nxc"
19	384	194	#line 384 "C:\Users\Lshi\Documents\Extracurriculars\Gov School\Robotics\GSET_Robotics\Maze\409_Maze_Test.nxc"
19	385	194		sub __signed_stack_001HTEnhancedIRSeekerV2, __HTEnhancedIRSeekerV2_7qG2_iMax_7qG2_000, __constVal1
19	384	198	#line 384 "C:\Users\Lshi\Documents\Extracurriculars\Gov School\Robotics\GSET_Robotics\Maze\409_Maze_Test.nxc"
19	384	198	#line 384 "C:\Users\Lshi\Documents\Extracurriculars\Gov School\Robotics\GSET_Robotics\Maze\409_Maze_Test.nxc"
19	385	198		index __ArrHelper__HTEnhancedIRSeekerV2_98_0, __HTEnhancedIRSeekerV2_7qG2_respBuf_7qG2_000, __signed_stack_001HTEnhancedIRSeekerV2
19	384	202	#line 384 "C:\Users\Lshi\Documents\Extracurriculars\Gov School\Robotics\GSET_Robotics\Maze\409_Maze_Test.nxc"
19	385	202	#line 385 "C:\Users\Lshi\Documents\Extracurriculars\Gov School\Robotics\GSET_Robotics\Maze\409_Maze_Test.nxc"
19	386	202		add __HTEnhancedIRSeekerV2_7qG2_dcSigSum_7qG2_000, __HTEnhancedIRSeekerV2_7qG2_dcSigSum_7qG2_000, __ArrHelper__HTEnhancedIRSeekerV2_98_0
19	385	206	#line 385 "C:\Users\Lshi\Documents\Extracurriculars\Gov School\Robotics\GSET_Robotics\Maze\409_Maze_Test.nxc"
19	386	206	#line 386 "C:\Users\Lshi\Documents\Extracurriculars\Gov School\Robotics\GSET_Robotics\Maze\409_Maze_Test.nxc"
19	386	206	#line 386 "C:\Users\Lshi\Documents\Extracurriculars\Gov School\Robotics\GSET_Robotics\Maze\409_Maze_Test.nxc"
19	387	206		mov __signed_stack_001HTEnhancedIRSeekerV2, __HTEnhancedIRSeekerV2_7qG2_iMax_7qG2_000
19	386	208	#line 386 "C:\Users\Lshi\Documents\Extracurriculars\Gov School\Robotics\GSET_Robotics\Maze\409_Maze_Test.nxc"
19	386	208	#line 386 "C:\Users\Lshi\Documents\Extracurriculars\Gov School\Robotics\GSET_Robotics\Maze\409_Maze_Test.nxc"
19	387	208		set __D0HTEnhancedIRSeekerV2, 4
19	386	211	#line 386 "C:\Users\Lshi\Documents\Extracurriculars\Gov School\Robotics\GSET_Robotics\Maze\409_Maze_Test.nxc"
19	387	211		cmp 0, __zfHTEnhancedIRSeekerV2, __signed_stack_001HTEnhancedIRSeekerV2, __D0HTEnhancedIRSeekerV2
19	386	215	#line 386 "C:\Users\Lshi\Documents\Extracurriculars\Gov School\Robotics\GSET_Robotics\Maze\409_Maze_Test.nxc"
19	387	215		mov __D0HTEnhancedIRSeekerV2, __zfHTEnhancedIRSeekerV2
19	386	218	#line 386 "C:\Users\Lshi\Documents\Extracurriculars\Gov School\Robotics\GSET_Robotics\Maze\409_Maze_Test.nxc"
19	387	218		brtst 4, __NXC_Label_935, __zfHTEnhancedIRSeekerV2
19	386	221	#line 386 "C:\Users\Lshi\Documents\Extracurriculars\Gov School\Robotics\GSET_Robotics\Maze\409_Maze_Test.nxc"
19	387	221		mov __signed_stack_001HTEnhancedIRSeekerV2, __D0HTEnhancedIRSeekerV2
19	386	223	#line 386 "C:\Users\Lshi\Documents\Extracurriculars\Gov School\Robotics\GSET_Robotics\Maze\409_Maze_Test.nxc"
19	386	223	#line 386 "C:\Users\Lshi\Documents\Extracurriculars\Gov School\Robotics\GSET_Robotics\Maze\409_Maze_Test.nxc"
19	386	223	#line 386 "C:\Users\Lshi\Documents\Extracurriculars\Gov School\Robotics\GSET_Robotics\Maze\409_Maze_Test.nxc"
19	386	223	#line 386 "C:\Users\Lshi\Documents\Extracurriculars\Gov School\Robotics\GSET_Robotics\Maze\409_Maze_Test.nxc"
19	387	223		add __signed_stack_002HTEnhancedIRSeekerV2, __HTEnhancedIRSeekerV2_7qG2_iMax_7qG2_000, __constVal1
19	386	227	#line 386 "C:\Users\Lshi\Documents\Extracurriculars\Gov School\Robotics\GSET_Robotics\Maze\409_Maze_Test.nxc"
19	386	227	#line 386 "C:\Users\Lshi\Documents\Extracurriculars\Gov School\Robotics\GSET_Robotics\Maze\409_Maze_Test.nxc"
19	387	227		index __ArrHelper__HTEnhancedIRSeekerV2_98_0, __HTEnhancedIRSeekerV2_7qG2_respBuf_7qG2_000, __signed_stack_002HTEnhancedIRSeekerV2
19	386	231	#line 386 "C:\Users\Lshi\Documents\Extracurriculars\Gov School\Robotics\GSET_Robotics\Maze\409_Maze_Test.nxc"
19	387	231		mov __unsigned_stack_002HTEnhancedIRSeekerV2, __ArrHelper__HTEnhancedIRSeekerV2_98_0
19	386	234	#line 386 "C:\Users\Lshi\Documents\Extracurriculars\Gov School\Robotics\GSET_Robotics\Maze\409_Maze_Test.nxc"
19	386	234	#line 386 "C:\Users\Lshi\Documents\Extracurriculars\Gov School\Robotics\GSET_Robotics\Maze\409_Maze_Test.nxc"
19	387	234		mov __signed_stack_003HTEnhancedIRSeekerV2, __HTEnhancedIRSeekerV2_7qG2_iMax_7qG2_000
19	386	236	#line 386 "C:\Users\Lshi\Documents\Extracurriculars\Gov School\Robotics\GSET_Robotics\Maze\409_Maze_Test.nxc"
19	386	236	#line 386 "C:\Users\Lshi\Documents\Extracurriculars\Gov School\Robotics\GSET_Robotics\Maze\409_Maze_Test.nxc"
19	387	236		index __ArrHelper__HTEnhancedIRSeekerV2_98_0, __HTEnhancedIRSeekerV2_7qG2_respBuf_7qG2_000, __signed_stack_003HTEnhancedIRSeekerV2
19	386	240	#line 386 "C:\Users\Lshi\Documents\Extracurriculars\Gov School\Robotics\GSET_Robotics\Maze\409_Maze_Test.nxc"
19	386	240	#line 386 "C:\Users\Lshi\Documents\Extracurriculars\Gov School\Robotics\GSET_Robotics\Maze\409_Maze_Test.nxc"
19	386	240	#line 386 "C:\Users\Lshi\Documents\Extracurriculars\Gov School\Robotics\GSET_Robotics\Maze\409_Maze_Test.nxc"
19	386	240	#line 386 "C:\Users\Lshi\Documents\Extracurriculars\Gov School\Robotics\GSET_Robotics\Maze\409_Maze_Test.nxc"
19	387	240		div __D0HTEnhancedIRSeekerV2, __ArrHelper__HTEnhancedIRSeekerV2_98_0, __constVal2
19	386	244	#line 386 "C:\Users\Lshi\Documents\Extracurriculars\Gov School\Robotics\GSET_Robotics\Maze\409_Maze_Test.nxc"
19	387	244		cmp 1, __zfHTEnhancedIRSeekerV2, __unsigned_stack_002HTEnhancedIRSeekerV2, __D0HTEnhancedIRSeekerV2
19	386	248	#line 386 "C:\Users\Lshi\Documents\Extracurriculars\Gov School\Robotics\GSET_Robotics\Maze\409_Maze_Test.nxc"
19	386	248	#line 386 "C:\Users\Lshi\Documents\Extracurriculars\Gov School\Robotics\GSET_Robotics\Maze\409_Maze_Test.nxc"
19	387	248		and __D0HTEnhancedIRSeekerV2, __signed_stack_001HTEnhancedIRSeekerV2, __zfHTEnhancedIRSeekerV2
19	387	252	#line 387 "C:\Users\Lshi\Documents\Extracurriculars\Gov School\Robotics\GSET_Robotics\Maze\409_Maze_Test.nxc"
19	388	252		tst 5, __zfHTEnhancedIRSeekerV2, __D0HTEnhancedIRSeekerV2
19	387	255	#line 387 "C:\Users\Lshi\Documents\Extracurriculars\Gov School\Robotics\GSET_Robotics\Maze\409_Maze_Test.nxc"
19	388	255		brtst 4, __NXC_Label_944, __zfHTEnhancedIRSeekerV2
19	388	258	#line 388 "C:\Users\Lshi\Documents\Extracurriculars\Gov School\Robotics\GSET_Robotics\Maze\409_Maze_Test.nxc"
19	389	258		add __HTEnhancedIRSeekerV2_7qG2_dir_7qG2_000, __HTEnhancedIRSeekerV2_7qG2_dir_7qG2_000, __constVal1
19	388	262	#line 388 "C:\Users\Lshi\Documents\Extracurriculars\Gov School\Robotics\GSET_Robotics\Maze\409_Maze_Test.nxc"
19	388	262	#line 388 "C:\Users\Lshi\Documents\Extracurriculars\Gov School\Robotics\GSET_Robotics\Maze\409_Maze_Test.nxc"
19	388	262	#line 388 "C:\Users\Lshi\Documents\Extracurriculars\Gov School\Robotics\GSET_Robotics\Maze\409_Maze_Test.nxc"
19	388	262	#line 388 "C:\Users\Lshi\Documents\Extracurriculars\Gov School\Robotics\GSET_Robotics\Maze\409_Maze_Test.nxc"
19	388	262	#line 388 "C:\Users\Lshi\Documents\Extracurriculars\Gov School\Robotics\GSET_Robotics\Maze\409_Maze_Test.nxc"
19	389	262		add __signed_stack_001HTEnhancedIRSeekerV2, __HTEnhancedIRSeekerV2_7qG2_iMax_7qG2_000, __constVal1
19	388	266	#line 388 "C:\Users\Lshi\Documents\Extracurriculars\Gov School\Robotics\GSET_Robotics\Maze\409_Maze_Test.nxc"
19	388	266	#line 388 "C:\Users\Lshi\Documents\Extracurriculars\Gov School\Robotics\GSET_Robotics\Maze\409_Maze_Test.nxc"
19	389	266		index __ArrHelper__HTEnhancedIRSeekerV2_98_0, __HTEnhancedIRSeekerV2_7qG2_respBuf_7qG2_000, __signed_stack_001HTEnhancedIRSeekerV2
19	388	270	#line 388 "C:\Users\Lshi\Documents\Extracurriculars\Gov School\Robotics\GSET_Robotics\Maze\409_Maze_Test.nxc"
19	389	270	#line 389 "C:\Users\Lshi\Documents\Extracurriculars\Gov School\Robotics\GSET_Robotics\Maze\409_Maze_Test.nxc"
19	390	270		add __HTEnhancedIRSeekerV2_7qG2_dcSigSum_7qG2_000, __HTEnhancedIRSeekerV2_7qG2_dcSigSum_7qG2_000, __ArrHelper__HTEnhancedIRSeekerV2_98_0
19	389	274	#line 389 "C:\Users\Lshi\Documents\Extracurriculars\Gov School\Robotics\GSET_Robotics\Maze\409_Maze_Test.nxc"
19	391	274	#line 391 "C:\Users\Lshi\Documents\Extracurriculars\Gov School\Robotics\GSET_Robotics\Maze\409_Maze_Test.nxc"
19	391	274	#line 391 "C:\Users\Lshi\Documents\Extracurriculars\Gov School\Robotics\GSET_Robotics\Maze\409_Maze_Test.nxc"
19	391	274	#line 391 "C:\Users\Lshi\Documents\Extracurriculars\Gov School\Robotics\GSET_Robotics\Maze\409_Maze_Test.nxc"
19	392	274		mul __HTEnhancedIRSeekerV2_7qG2_dcSigSum_7qG2_000, __HTEnhancedIRSeekerV2_7qG2_dcSigSum_7qG2_000, __constVal500
19	391	278	#line 391 "C:\Users\Lshi\Documents\Extracurriculars\Gov School\Robotics\GSET_Robotics\Maze\409_Maze_Test.nxc"
19	392	278	#line 392 "C:\Users\Lshi\Documents\Extracurriculars\Gov School\Robotics\GSET_Robotics\Maze\409_Maze_Test.nxc"
19	393	278		set __HTEnhancedIRSeekerV2_7qG2_dcStr_7qG2_000, 1
19	392	281	#line 392 "C:\Users\Lshi\Documents\Extracurriculars\Gov School\Robotics\GSET_Robotics\Maze\409_Maze_Test.nxc"
19	392	281	#line 392 "C:\Users\Lshi\Documents\Extracurriculars\Gov School\Robotics\GSET_Robotics\Maze\409_Maze_Test.nxc"
19	392	281	#line 392 "C:\Users\Lshi\Documents\Extracurriculars\Gov School\Robotics\GSET_Robotics\Maze\409_Maze_Test.nxc"
19	393	281		set __signed_stack_001HTEnhancedIRSeekerV2, 10
19	392	284	#line 392 "C:\Users\Lshi\Documents\Extracurriculars\Gov School\Robotics\GSET_Robotics\Maze\409_Maze_Test.nxc"
19	392	284	#line 392 "C:\Users\Lshi\Documents\Extracurriculars\Gov School\Robotics\GSET_Robotics\Maze\409_Maze_Test.nxc"
19	393	284		sub __signed_stack_001HTEnhancedIRSeekerV2, __signed_stack_001HTEnhancedIRSeekerV2, __constVal1
19	392	288	#line 392 "C:\Users\Lshi\Documents\Extracurriculars\Gov School\Robotics\GSET_Robotics\Maze\409_Maze_Test.nxc"
19	393	288		brtst 0, __NXC_Label_954, __signed_stack_001HTEnhancedIRSeekerV2
19	392	291	#line 392 "C:\Users\Lshi\Documents\Extracurriculars\Gov School\Robotics\GSET_Robotics\Maze\409_Maze_Test.nxc"
19	392	291	#line 392 "C:\Users\Lshi\Documents\Extracurriculars\Gov School\Robotics\GSET_Robotics\Maze\409_Maze_Test.nxc"
19	392	291	#line 392 "C:\Users\Lshi\Documents\Extracurriculars\Gov School\Robotics\GSET_Robotics\Maze\409_Maze_Test.nxc"
19	392	291	#line 392 "C:\Users\Lshi\Documents\Extracurriculars\Gov School\Robotics\GSET_Robotics\Maze\409_Maze_Test.nxc"
19	393	291		div __signed_stack_002HTEnhancedIRSeekerV2, __HTEnhancedIRSeekerV2_7qG2_dcSigSum_7qG2_000, __HTEnhancedIRSeekerV2_7qG2_dcStr_7qG2_000
19	392	295	#line 392 "C:\Users\Lshi\Documents\Extracurriculars\Gov School\Robotics\GSET_Robotics\Maze\409_Maze_Test.nxc"
19	392	295	#line 392 "C:\Users\Lshi\Documents\Extracurriculars\Gov School\Robotics\GSET_Robotics\Maze\409_Maze_Test.nxc"
19	392	295	#line 392 "C:\Users\Lshi\Documents\Extracurriculars\Gov School\Robotics\GSET_Robotics\Maze\409_Maze_Test.nxc"
19	393	295		add __signed_stack_002HTEnhancedIRSeekerV2, __signed_stack_002HTEnhancedIRSeekerV2, __HTEnhancedIRSeekerV2_7qG2_dcStr_7qG2_000
19	392	299	#line 392 "C:\Users\Lshi\Documents\Extracurriculars\Gov School\Robotics\GSET_Robotics\Maze\409_Maze_Test.nxc"
19	393	299	#line 393 "C:\Users\Lshi\Documents\Extracurriculars\Gov School\Robotics\GSET_Robotics\Maze\409_Maze_Test.nxc"
19	393	299	#line 393 "C:\Users\Lshi\Documents\Extracurriculars\Gov School\Robotics\GSET_Robotics\Maze\409_Maze_Test.nxc"
19	394	299		div __HTEnhancedIRSeekerV2_7qG2_dcStr_7qG2_000, __signed_stack_002HTEnhancedIRSeekerV2, __constVal2
19	393	303	#line 393 "C:\Users\Lshi\Documents\Extracurriculars\Gov School\Robotics\GSET_Robotics\Maze\409_Maze_Test.nxc"
19	393	303	#line 393 "C:\Users\Lshi\Documents\Extracurriculars\Gov School\Robotics\GSET_Robotics\Maze\409_Maze_Test.nxc"
19	393	303	#line 393 "C:\Users\Lshi\Documents\Extracurriculars\Gov School\Robotics\GSET_Robotics\Maze\409_Maze_Test.nxc"
19	394	303		jmp __NXC_Label_953
19	393	305	#line 393 "C:\Users\Lshi\Documents\Extracurriculars\Gov School\Robotics\GSET_Robotics\Maze\409_Maze_Test.nxc"
19	395	305	#line 395 "C:\Users\Lshi\Documents\Extracurriculars\Gov School\Robotics\GSET_Robotics\Maze\409_Maze_Test.nxc"
19	396	305		mov __HTEnhancedIRSeekerV2_7qG2_strength_7qG2_000, __HTEnhancedIRSeekerV2_7qG2_dcStr_7qG2_000
19	395	307	#line 395 "C:\Users\Lshi\Documents\Extracurriculars\Gov School\Robotics\GSET_Robotics\Maze\409_Maze_Test.nxc"
19	395	307	#line 395 "C:\Users\Lshi\Documents\Extracurriculars\Gov School\Robotics\GSET_Robotics\Maze\409_Maze_Test.nxc"
19	395	307	#line 395 "C:\Users\Lshi\Documents\Extracurriculars\Gov School\Robotics\GSET_Robotics\Maze\409_Maze_Test.nxc"
19	396	307		mov __signed_stack_001HTEnhancedIRSeekerV2, __HTEnhancedIRSeekerV2_7qG2_dcStr_7qG2_000
19	395	309	#line 395 "C:\Users\Lshi\Documents\Extracurriculars\Gov School\Robotics\GSET_Robotics\Maze\409_Maze_Test.nxc"
19	395	309	#line 395 "C:\Users\Lshi\Documents\Extracurriculars\Gov School\Robotics\GSET_Robotics\Maze\409_Maze_Test.nxc"
19	396	309		set __D0HTEnhancedIRSeekerV2, 200
19	395	312	#line 395 "C:\Users\Lshi\Documents\Extracurriculars\Gov School\Robotics\GSET_Robotics\Maze\409_Maze_Test.nxc"
19	396	312		cmp 2, __zfHTEnhancedIRSeekerV2, __signed_stack_001HTEnhancedIRSeekerV2, __D0HTEnhancedIRSeekerV2
19	395	316	#line 395 "C:\Users\Lshi\Documents\Extracurriculars\Gov School\Robotics\GSET_Robotics\Maze\409_Maze_Test.nxc"
19	396	316		mov __D0HTEnhancedIRSeekerV2, __zfHTEnhancedIRSeekerV2
19	397	319	#line 397 "C:\Users\Lshi\Documents\Extracurriculars\Gov School\Robotics\GSET_Robotics\Maze\409_Maze_Test.nxc"
19	398	319		brtst 4, __NXC_Label_965, __zfHTEnhancedIRSeekerV2
19	397	322	#line 397 "C:\Users\Lshi\Documents\Extracurriculars\Gov School\Robotics\GSET_Robotics\Maze\409_Maze_Test.nxc"
19	398	322		set __HTEnhancedIRSeekerV2_7qG2_dir_7qG2_000, 0
19	397	325	#line 397 "C:\Users\Lshi\Documents\Extracurriculars\Gov School\Robotics\GSET_Robotics\Maze\409_Maze_Test.nxc"
19	397	325	#line 397 "C:\Users\Lshi\Documents\Extracurriculars\Gov School\Robotics\GSET_Robotics\Maze\409_Maze_Test.nxc"
19	398	325	#line 398 "C:\Users\Lshi\Documents\Extracurriculars\Gov School\Robotics\GSET_Robotics\Maze\409_Maze_Test.nxc"
19	399	325		set __HTEnhancedIRSeekerV2_7qG2_strength_7qG2_000, 0
19	398	328	#line 398 "C:\Users\Lshi\Documents\Extracurriculars\Gov School\Robotics\GSET_Robotics\Maze\409_Maze_Test.nxc"
19	398	328	#line 398 "C:\Users\Lshi\Documents\Extracurriculars\Gov School\Robotics\GSET_Robotics\Maze\409_Maze_Test.nxc"
19	398	328	#line 398 "C:\Users\Lshi\Documents\Extracurriculars\Gov School\Robotics\GSET_Robotics\Maze\409_Maze_Test.nxc"
19	399	328		set __signed_stack_001HTEnhancedIRSeekerV2, 1
19	398	331	#line 398 "C:\Users\Lshi\Documents\Extracurriculars\Gov School\Robotics\GSET_Robotics\Maze\409_Maze_Test.nxc"
19	399	331	#line 399 "C:\Users\Lshi\Documents\Extracurriculars\Gov School\Robotics\GSET_Robotics\Maze\409_Maze_Test.nxc"
19	400	331		set __D0HTEnhancedIRSeekerV2, 73
19	399	334	#line 399 "C:\Users\Lshi\Documents\Extracurriculars\Gov School\Robotics\GSET_Robotics\Maze\409_Maze_Test.nxc"
19	400	334		replace __HTEnhancedIRSeekerV2_7qG2_cmdBuf_7qG2_000, __HTEnhancedIRSeekerV2_7qG2_cmdBuf_7qG2_000, __signed_stack_001HTEnhancedIRSeekerV2, __D0HTEnhancedIRSeekerV2
19	399	339	#line 399 "C:\Users\Lshi\Documents\Extracurriculars\Gov School\Robotics\GSET_Robotics\Maze\409_Maze_Test.nxc"
19	400	339	#line 400 "C:\Users\Lshi\Documents\Extracurriculars\Gov School\Robotics\GSET_Robotics\Maze\409_Maze_Test.nxc"
19	401	339		set __HTEnhancedIRSeekerV2_7qG2_cResp_7qG2_000, 6
19	400	342	#line 400 "C:\Users\Lshi\Documents\Extracurriculars\Gov School\Robotics\GSET_Robotics\Maze\409_Maze_Test.nxc"
19	400	342	#line 400 "C:\Users\Lshi\Documents\Extracurriculars\Gov School\Robotics\GSET_Robotics\Maze\409_Maze_Test.nxc"
19	400	342	#line 400 "C:\Users\Lshi\Documents\Extracurriculars\Gov School\Robotics\GSET_Robotics\Maze\409_Maze_Test.nxc"
19	401	342	#pragma macro 28
19	401	342		acquire __RLSBmutex0
19	401	343		acquire __RLSBmutex1
19	401	344		acquire __RLSBmutex2
19	401	345		acquire __RLSBmutex3
19	401	346		mov __RLSReadPort, __HTEnhancedIRSeekerV2_7qG2_port_7qG2_000
19	401	348		mov __RLSReadBufVar, __HTEnhancedIRSeekerV2_7qG2_cmdBuf_7qG2_000
19	401	350		mov __RLSBytesCountVar, __HTEnhancedIRSeekerV2_7qG2_cResp_7qG2_000
19	401	352		subcall __ReadLSBytesVar, ____ReadLSBytesVar_return
19	401	355		tst 4, __D0HTEnhancedIRSeekerV2, __RLSBResultVar
19	401	358		mov __HTEnhancedIRSeekerV2_7qG2_cResp_7qG2_000, __RLSBytesCountVar
19	401	360		mov __HTEnhancedIRSeekerV2_7qG2_respBuf_7qG2_000, __RLSReadBufVar
19	401	362		release __RLSBmutex0
19	401	363		release __RLSBmutex1
19	401	364		release __RLSBmutex2
19	401	365		release __RLSBmutex3
19	8085	366	#line 8085 "C:\Users\Lshi\Documents\Extracurriculars\Gov School\Robotics\GSET_Robotics\Maze\409_Maze_Test.nxc"
19	400	366	#line 400 "C:\Users\Lshi\Documents\Extracurriculars\Gov School\Robotics\GSET_Robotics\Maze\409_Maze_Test.nxc"
19	401	366		mov __HTEnhancedIRSeekerV2_7qG2_fSuccess_7qG2_000, __D0HTEnhancedIRSeekerV2
19	400	369	#line 400 "C:\Users\Lshi\Documents\Extracurriculars\Gov School\Robotics\GSET_Robotics\Maze\409_Maze_Test.nxc"
19	400	369	#line 400 "C:\Users\Lshi\Documents\Extracurriculars\Gov School\Robotics\GSET_Robotics\Maze\409_Maze_Test.nxc"
19	401	369	#line 401 "C:\Users\Lshi\Documents\Extracurriculars\Gov School\Robotics\GSET_Robotics\Maze\409_Maze_Test.nxc"
19	402	369		mov __DU0HTEnhancedIRSeekerV2, __D0HTEnhancedIRSeekerV2
19	402	371	#line 402 "C:\Users\Lshi\Documents\Extracurriculars\Gov School\Robotics\GSET_Robotics\Maze\409_Maze_Test.nxc"
19	403	371		tst 5, __zfHTEnhancedIRSeekerV2, __DU0HTEnhancedIRSeekerV2
19	402	374	#line 402 "C:\Users\Lshi\Documents\Extracurriculars\Gov School\Robotics\GSET_Robotics\Maze\409_Maze_Test.nxc"
19	403	374		brtst 4, __NXC_Label_980, __zfHTEnhancedIRSeekerV2
19	402	377	#line 402 "C:\Users\Lshi\Documents\Extracurriculars\Gov School\Robotics\GSET_Robotics\Maze\409_Maze_Test.nxc"
19	403	377		set __signed_stack_001HTEnhancedIRSeekerV2, 0
19	402	380	#line 402 "C:\Users\Lshi\Documents\Extracurriculars\Gov School\Robotics\GSET_Robotics\Maze\409_Maze_Test.nxc"
19	402	380	#line 402 "C:\Users\Lshi\Documents\Extracurriculars\Gov School\Robotics\GSET_Robotics\Maze\409_Maze_Test.nxc"
19	403	380		index __ArrHelper__HTEnhancedIRSeekerV2_98_0, __HTEnhancedIRSeekerV2_7qG2_respBuf_7qG2_000, __signed_stack_001HTEnhancedIRSeekerV2
19	402	384	#line 402 "C:\Users\Lshi\Documents\Extracurriculars\Gov School\Robotics\GSET_Robotics\Maze\409_Maze_Test.nxc"
19	403	384		mov __HTEnhancedIRSeekerV2_7qG2_dir_7qG2_000, __ArrHelper__HTEnhancedIRSeekerV2_98_0
19	404	386	#line 404 "C:\Users\Lshi\Documents\Extracurriculars\Gov School\Robotics\GSET_Robotics\Maze\409_Maze_Test.nxc"
19	404	386	#line 404 "C:\Users\Lshi\Documents\Extracurriculars\Gov School\Robotics\GSET_Robotics\Maze\409_Maze_Test.nxc"
19	404	386	#line 404 "C:\Users\Lshi\Documents\Extracurriculars\Gov School\Robotics\GSET_Robotics\Maze\409_Maze_Test.nxc"
19	405	386		mov __signed_stack_001HTEnhancedIRSeekerV2, __ArrHelper__HTEnhancedIRSeekerV2_98_0
19	404	389	#line 404 "C:\Users\Lshi\Documents\Extracurriculars\Gov School\Robotics\GSET_Robotics\Maze\409_Maze_Test.nxc"
19	404	389	#line 404 "C:\Users\Lshi\Documents\Extracurriculars\Gov School\Robotics\GSET_Robotics\Maze\409_Maze_Test.nxc"
19	405	389		set __D0HTEnhancedIRSeekerV2, 0
19	404	392	#line 404 "C:\Users\Lshi\Documents\Extracurriculars\Gov School\Robotics\GSET_Robotics\Maze\409_Maze_Test.nxc"
19	405	392		cmp 1, __zfHTEnhancedIRSeekerV2, __signed_stack_001HTEnhancedIRSeekerV2, __D0HTEnhancedIRSeekerV2
19	404	396	#line 404 "C:\Users\Lshi\Documents\Extracurriculars\Gov School\Robotics\GSET_Robotics\Maze\409_Maze_Test.nxc"
19	405	396		mov __D0HTEnhancedIRSeekerV2, __zfHTEnhancedIRSeekerV2
19	404	399	#line 404 "C:\Users\Lshi\Documents\Extracurriculars\Gov School\Robotics\GSET_Robotics\Maze\409_Maze_Test.nxc"
19	405	399		brtst 4, __NXC_Label_987, __zfHTEnhancedIRSeekerV2
19	404	402	#line 404 "C:\Users\Lshi\Documents\Extracurriculars\Gov School\Robotics\GSET_Robotics\Maze\409_Maze_Test.nxc"
19	405	402		set __HTEnhancedIRSeekerV2_7qG2_i_7qG2_000, 1
19	404	405	#line 404 "C:\Users\Lshi\Documents\Extracurriculars\Gov School\Robotics\GSET_Robotics\Maze\409_Maze_Test.nxc"
19	404	405	#line 404 "C:\Users\Lshi\Documents\Extracurriculars\Gov School\Robotics\GSET_Robotics\Maze\409_Maze_Test.nxc"
19	405	405		mov __signed_stack_001HTEnhancedIRSeekerV2, __HTEnhancedIRSeekerV2_7qG2_i_7qG2_000
19	404	407	#line 404 "C:\Users\Lshi\Documents\Extracurriculars\Gov School\Robotics\GSET_Robotics\Maze\409_Maze_Test.nxc"
19	404	407	#line 404 "C:\Users\Lshi\Documents\Extracurriculars\Gov School\Robotics\GSET_Robotics\Maze\409_Maze_Test.nxc"
19	405	407		set __D0HTEnhancedIRSeekerV2, 5
19	404	410	#line 404 "C:\Users\Lshi\Documents\Extracurriculars\Gov School\Robotics\GSET_Robotics\Maze\409_Maze_Test.nxc"
19	405	410		cmp 2, __zfHTEnhancedIRSeekerV2, __signed_stack_001HTEnhancedIRSeekerV2, __D0HTEnhancedIRSeekerV2
19	404	414	#line 404 "C:\Users\Lshi\Documents\Extracurriculars\Gov School\Robotics\GSET_Robotics\Maze\409_Maze_Test.nxc"
19	405	414		mov __D0HTEnhancedIRSeekerV2, __zfHTEnhancedIRSeekerV2
19	404	417	#line 404 "C:\Users\Lshi\Documents\Extracurriculars\Gov School\Robotics\GSET_Robotics\Maze\409_Maze_Test.nxc"
19	405	417		brtst 4, __NXC_Label_989, __zfHTEnhancedIRSeekerV2
19	404	420	#line 404 "C:\Users\Lshi\Documents\Extracurriculars\Gov School\Robotics\GSET_Robotics\Maze\409_Maze_Test.nxc"
19	405	420		jmp __NXC_Label_990
19	404	422	#line 404 "C:\Users\Lshi\Documents\Extracurriculars\Gov School\Robotics\GSET_Robotics\Maze\409_Maze_Test.nxc"
19	405	422		add __HTEnhancedIRSeekerV2_7qG2_i_7qG2_000, __HTEnhancedIRSeekerV2_7qG2_i_7qG2_000, __constVal1
19	404	426	#line 404 "C:\Users\Lshi\Documents\Extracurriculars\Gov School\Robotics\GSET_Robotics\Maze\409_Maze_Test.nxc"
19	405	426		jmp __NXC_Label_988
19	404	428	#line 404 "C:\Users\Lshi\Documents\Extracurriculars\Gov School\Robotics\GSET_Robotics\Maze\409_Maze_Test.nxc"
19	405	428		mov __signed_stack_001HTEnhancedIRSeekerV2, __HTEnhancedIRSeekerV2_7qG2_i_7qG2_000
19	404	430	#line 404 "C:\Users\Lshi\Documents\Extracurriculars\Gov School\Robotics\GSET_Robotics\Maze\409_Maze_Test.nxc"
19	404	430	#line 404 "C:\Users\Lshi\Documents\Extracurriculars\Gov School\Robotics\GSET_Robotics\Maze\409_Maze_Test.nxc"
19	405	430		index __ArrHelper__HTEnhancedIRSeekerV2_98_0, __HTEnhancedIRSeekerV2_7qG2_respBuf_7qG2_000, __signed_stack_001HTEnhancedIRSeekerV2
19	404	434	#line 404 "C:\Users\Lshi\Documents\Extracurriculars\Gov School\Robotics\GSET_Robotics\Maze\409_Maze_Test.nxc"
19	405	434	#line 405 "C:\Users\Lshi\Documents\Extracurriculars\Gov School\Robotics\GSET_Robotics\Maze\409_Maze_Test.nxc"
19	406	434		add __HTEnhancedIRSeekerV2_7qG2_strength_7qG2_000, __HTEnhancedIRSeekerV2_7qG2_strength_7qG2_000, __ArrHelper__HTEnhancedIRSeekerV2_98_0
19	405	438	#line 405 "C:\Users\Lshi\Documents\Extracurriculars\Gov School\Robotics\GSET_Robotics\Maze\409_Maze_Test.nxc"
19	405	438	#line 405 "C:\Users\Lshi\Documents\Extracurriculars\Gov School\Robotics\GSET_Robotics\Maze\409_Maze_Test.nxc"
19	406	438		jmp __NXC_Label_991
19	405	440	#line 405 "C:\Users\Lshi\Documents\Extracurriculars\Gov School\Robotics\GSET_Robotics\Maze\409_Maze_Test.nxc"
19	406	440	#line 406 "C:\Users\Lshi\Documents\Extracurriculars\Gov School\Robotics\GSET_Robotics\Maze\409_Maze_Test.nxc"
19	407	440	#line 407 "C:\Users\Lshi\Documents\Extracurriculars\Gov School\Robotics\GSET_Robotics\Maze\409_Maze_Test.nxc"
19	408	440	#line 408 "C:\Users\Lshi\Documents\Extracurriculars\Gov School\Robotics\GSET_Robotics\Maze\409_Maze_Test.nxc"
19	430	440	#line 430 "C:\Users\Lshi\Documents\Extracurriculars\Gov School\Robotics\GSET_Robotics\Maze\409_Maze_Test.nxc"
19	430	440	#line 430 "C:\Users\Lshi\Documents\Extracurriculars\Gov School\Robotics\GSET_Robotics\Maze\409_Maze_Test.nxc"
19	431	440		subret __HTEnhancedIRSeekerV2_return
20	433	0	#line 433 "C:\Users\Lshi\Documents\Extracurriculars\Gov School\Robotics\GSET_Robotics\Maze\409_Maze_Test.nxc"
20	434	0		subcall ballFind, __ballFind_return
20	433	3	#line 433 "C:\Users\Lshi\Documents\Extracurriculars\Gov School\Robotics\GSET_Robotics\Maze\409_Maze_Test.nxc"
20	434	3		mov __signed_stack_001ballCatch, __D0ballFind
20	433	5	#line 433 "C:\Users\Lshi\Documents\Extracurriculars\Gov School\Robotics\GSET_Robotics\Maze\409_Maze_Test.nxc"
20	433	5	#line 433 "C:\Users\Lshi\Documents\Extracurriculars\Gov School\Robotics\GSET_Robotics\Maze\409_Maze_Test.nxc"
20	434	5		set __D0ballCatch, 5
20	433	8	#line 433 "C:\Users\Lshi\Documents\Extracurriculars\Gov School\Robotics\GSET_Robotics\Maze\409_Maze_Test.nxc"
20	434	8		cmp 0, __zfballCatch, __signed_stack_001ballCatch, __D0ballCatch
20	433	12	#line 433 "C:\Users\Lshi\Documents\Extracurriculars\Gov School\Robotics\GSET_Robotics\Maze\409_Maze_Test.nxc"
20	434	12		mov __D0ballCatch, __zfballCatch
20	434	15	#line 434 "C:\Users\Lshi\Documents\Extracurriculars\Gov School\Robotics\GSET_Robotics\Maze\409_Maze_Test.nxc"
20	435	15		brtst 4, __NXC_Label_1002, __zfballCatch
20	434	18	#line 434 "C:\Users\Lshi\Documents\Extracurriculars\Gov School\Robotics\GSET_Robotics\Maze\409_Maze_Test.nxc"
20	435	18		set __ballCatch_7qG2_i_7qG2_002, 0
20	434	21	#line 434 "C:\Users\Lshi\Documents\Extracurriculars\Gov School\Robotics\GSET_Robotics\Maze\409_Maze_Test.nxc"
20	434	21	#line 434 "C:\Users\Lshi\Documents\Extracurriculars\Gov School\Robotics\GSET_Robotics\Maze\409_Maze_Test.nxc"
20	435	21		mov __signed_stack_001ballCatch, __ballCatch_7qG2_i_7qG2_002
20	434	23	#line 434 "C:\Users\Lshi\Documents\Extracurriculars\Gov School\Robotics\GSET_Robotics\Maze\409_Maze_Test.nxc"
20	434	23	#line 434 "C:\Users\Lshi\Documents\Extracurriculars\Gov School\Robotics\GSET_Robotics\Maze\409_Maze_Test.nxc"
20	435	23		set __D0ballCatch, 91
20	434	26	#line 434 "C:\Users\Lshi\Documents\Extracurriculars\Gov School\Robotics\GSET_Robotics\Maze\409_Maze_Test.nxc"
20	435	26		cmp 0, __zfballCatch, __signed_stack_001ballCatch, __D0ballCatch
20	434	30	#line 434 "C:\Users\Lshi\Documents\Extracurriculars\Gov School\Robotics\GSET_Robotics\Maze\409_Maze_Test.nxc"
20	435	30		mov __D0ballCatch, __zfballCatch
20	434	33	#line 434 "C:\Users\Lshi\Documents\Extracurriculars\Gov School\Robotics\GSET_Robotics\Maze\409_Maze_Test.nxc"
20	435	33		brtst 4, __NXC_Label_1004, __zfballCatch
20	434	36	#line 434 "C:\Users\Lshi\Documents\Extracurriculars\Gov School\Robotics\GSET_Robotics\Maze\409_Maze_Test.nxc"
20	435	36		jmp __NXC_Label_1005
20	434	38	#line 434 "C:\Users\Lshi\Documents\Extracurriculars\Gov School\Robotics\GSET_Robotics\Maze\409_Maze_Test.nxc"
20	434	38	#line 434 "C:\Users\Lshi\Documents\Extracurriculars\Gov School\Robotics\GSET_Robotics\Maze\409_Maze_Test.nxc"
20	435	38		add __ballCatch_7qG2_i_7qG2_002, __ballCatch_7qG2_i_7qG2_002, __constVal5
20	435	42	#line 435 "C:\Users\Lshi\Documents\Extracurriculars\Gov School\Robotics\GSET_Robotics\Maze\409_Maze_Test.nxc"
20	436	42		jmp __NXC_Label_1003
20	435	44	#line 435 "C:\Users\Lshi\Documents\Extracurriculars\Gov School\Robotics\GSET_Robotics\Maze\409_Maze_Test.nxc"
20	436	44		set __doubleWheelTurn_7qG2_degrees_7qG2_000, 5
20	435	47	#line 435 "C:\Users\Lshi\Documents\Extracurriculars\Gov School\Robotics\GSET_Robotics\Maze\409_Maze_Test.nxc"
20	436	47	#line 436 "C:\Users\Lshi\Documents\Extracurriculars\Gov School\Robotics\GSET_Robotics\Maze\409_Maze_Test.nxc"
20	437	47		subcall doubleWheelTurn, __doubleWheelTurn_return
20	436	50	#line 436 "C:\Users\Lshi\Documents\Extracurriculars\Gov School\Robotics\GSET_Robotics\Maze\409_Maze_Test.nxc"
20	436	50	#line 436 "C:\Users\Lshi\Documents\Extracurriculars\Gov School\Robotics\GSET_Robotics\Maze\409_Maze_Test.nxc"
20	437	50		subcall ballFind, __ballFind_return
20	436	53	#line 436 "C:\Users\Lshi\Documents\Extracurriculars\Gov School\Robotics\GSET_Robotics\Maze\409_Maze_Test.nxc"
20	437	53		mov __signed_stack_001ballCatch, __D0ballFind
20	436	55	#line 436 "C:\Users\Lshi\Documents\Extracurriculars\Gov School\Robotics\GSET_Robotics\Maze\409_Maze_Test.nxc"
20	436	55	#line 436 "C:\Users\Lshi\Documents\Extracurriculars\Gov School\Robotics\GSET_Robotics\Maze\409_Maze_Test.nxc"
20	437	55		set __D0ballCatch, 4
20	436	58	#line 436 "C:\Users\Lshi\Documents\Extracurriculars\Gov School\Robotics\GSET_Robotics\Maze\409_Maze_Test.nxc"
20	437	58		cmp 4, __zfballCatch, __signed_stack_001ballCatch, __D0ballCatch
20	436	62	#line 436 "C:\Users\Lshi\Documents\Extracurriculars\Gov School\Robotics\GSET_Robotics\Maze\409_Maze_Test.nxc"
20	437	62		mov __D0ballCatch, __zfballCatch
20	437	65	#line 437 "C:\Users\Lshi\Documents\Extracurriculars\Gov School\Robotics\GSET_Robotics\Maze\409_Maze_Test.nxc"
20	438	65		brtst 4, __NXC_Label_1017, __zfballCatch
20	438	68	#line 438 "C:\Users\Lshi\Documents\Extracurriculars\Gov School\Robotics\GSET_Robotics\Maze\409_Maze_Test.nxc"
20	439	68		mov ballAngle, __ballCatch_7qG2_i_7qG2_002
20	438	70	#line 438 "C:\Users\Lshi\Documents\Extracurriculars\Gov School\Robotics\GSET_Robotics\Maze\409_Maze_Test.nxc"
20	438	70	#line 438 "C:\Users\Lshi\Documents\Extracurriculars\Gov School\Robotics\GSET_Robotics\Maze\409_Maze_Test.nxc"
20	439	70	#line 439 "C:\Users\Lshi\Documents\Extracurriculars\Gov School\Robotics\GSET_Robotics\Maze\409_Maze_Test.nxc"
20	440	70		jmp __NXC_Label_1004
20	439	72	#line 439 "C:\Users\Lshi\Documents\Extracurriculars\Gov School\Robotics\GSET_Robotics\Maze\409_Maze_Test.nxc"
20	441	72	#line 441 "C:\Users\Lshi\Documents\Extracurriculars\Gov School\Robotics\GSET_Robotics\Maze\409_Maze_Test.nxc"
20	442	72	#line 442 "C:\Users\Lshi\Documents\Extracurriculars\Gov School\Robotics\GSET_Robotics\Maze\409_Maze_Test.nxc"
20	443	72		jmp __NXC_Label_1006
20	442	74	#line 442 "C:\Users\Lshi\Documents\Extracurriculars\Gov School\Robotics\GSET_Robotics\Maze\409_Maze_Test.nxc"
20	442	74	#line 442 "C:\Users\Lshi\Documents\Extracurriculars\Gov School\Robotics\GSET_Robotics\Maze\409_Maze_Test.nxc"
20	443	74		jmp __NXC_Label_1020
20	442	76	#line 442 "C:\Users\Lshi\Documents\Extracurriculars\Gov School\Robotics\GSET_Robotics\Maze\409_Maze_Test.nxc"
20	443	76		subcall ballFind, __ballFind_return
20	442	79	#line 442 "C:\Users\Lshi\Documents\Extracurriculars\Gov School\Robotics\GSET_Robotics\Maze\409_Maze_Test.nxc"
20	443	79		mov __signed_stack_001ballCatch, __D0ballFind
20	442	81	#line 442 "C:\Users\Lshi\Documents\Extracurriculars\Gov School\Robotics\GSET_Robotics\Maze\409_Maze_Test.nxc"
20	442	81	#line 442 "C:\Users\Lshi\Documents\Extracurriculars\Gov School\Robotics\GSET_Robotics\Maze\409_Maze_Test.nxc"
20	443	81		set __D0ballCatch, 5
20	442	84	#line 442 "C:\Users\Lshi\Documents\Extracurriculars\Gov School\Robotics\GSET_Robotics\Maze\409_Maze_Test.nxc"
20	443	84		cmp 1, __zfballCatch, __signed_stack_001ballCatch, __D0ballCatch
20	442	88	#line 442 "C:\Users\Lshi\Documents\Extracurriculars\Gov School\Robotics\GSET_Robotics\Maze\409_Maze_Test.nxc"
20	443	88		mov __D0ballCatch, __zfballCatch
20	443	91	#line 443 "C:\Users\Lshi\Documents\Extracurriculars\Gov School\Robotics\GSET_Robotics\Maze\409_Maze_Test.nxc"
20	444	91		brtst 4, __NXC_Label_1023, __zfballCatch
20	443	94	#line 443 "C:\Users\Lshi\Documents\Extracurriculars\Gov School\Robotics\GSET_Robotics\Maze\409_Maze_Test.nxc"
20	444	94		set __ballCatch_7qG2_i_7qG2_002, 0
20	443	97	#line 443 "C:\Users\Lshi\Documents\Extracurriculars\Gov School\Robotics\GSET_Robotics\Maze\409_Maze_Test.nxc"
20	443	97	#line 443 "C:\Users\Lshi\Documents\Extracurriculars\Gov School\Robotics\GSET_Robotics\Maze\409_Maze_Test.nxc"
20	444	97		mov __signed_stack_001ballCatch, __ballCatch_7qG2_i_7qG2_002
20	443	99	#line 443 "C:\Users\Lshi\Documents\Extracurriculars\Gov School\Robotics\GSET_Robotics\Maze\409_Maze_Test.nxc"
20	443	99	#line 443 "C:\Users\Lshi\Documents\Extracurriculars\Gov School\Robotics\GSET_Robotics\Maze\409_Maze_Test.nxc"
20	444	99		mov __D0ballCatch, __constValNeg91
20	443	102	#line 443 "C:\Users\Lshi\Documents\Extracurriculars\Gov School\Robotics\GSET_Robotics\Maze\409_Maze_Test.nxc"
20	444	102		cmp 1, __zfballCatch, __signed_stack_001ballCatch, __D0ballCatch
20	443	106	#line 443 "C:\Users\Lshi\Documents\Extracurriculars\Gov School\Robotics\GSET_Robotics\Maze\409_Maze_Test.nxc"
20	444	106		mov __D0ballCatch, __zfballCatch
20	443	109	#line 443 "C:\Users\Lshi\Documents\Extracurriculars\Gov School\Robotics\GSET_Robotics\Maze\409_Maze_Test.nxc"
20	444	109		brtst 4, __NXC_Label_1025, __zfballCatch
20	443	112	#line 443 "C:\Users\Lshi\Documents\Extracurriculars\Gov School\Robotics\GSET_Robotics\Maze\409_Maze_Test.nxc"
20	444	112		jmp __NXC_Label_1026
20	443	114	#line 443 "C:\Users\Lshi\Documents\Extracurriculars\Gov School\Robotics\GSET_Robotics\Maze\409_Maze_Test.nxc"
20	443	114	#line 443 "C:\Users\Lshi\Documents\Extracurriculars\Gov School\Robotics\GSET_Robotics\Maze\409_Maze_Test.nxc"
20	444	114		sub __ballCatch_7qG2_i_7qG2_002, __ballCatch_7qG2_i_7qG2_002, __constVal5
20	444	118	#line 444 "C:\Users\Lshi\Documents\Extracurriculars\Gov School\Robotics\GSET_Robotics\Maze\409_Maze_Test.nxc"
20	445	118		jmp __NXC_Label_1024
20	444	120	#line 444 "C:\Users\Lshi\Documents\Extracurriculars\Gov School\Robotics\GSET_Robotics\Maze\409_Maze_Test.nxc"
20	445	120		mov __doubleWheelTurn_7qG2_degrees_7qG2_000, __constValNeg5
20	444	122	#line 444 "C:\Users\Lshi\Documents\Extracurriculars\Gov School\Robotics\GSET_Robotics\Maze\409_Maze_Test.nxc"
20	445	122	#line 445 "C:\Users\Lshi\Documents\Extracurriculars\Gov School\Robotics\GSET_Robotics\Maze\409_Maze_Test.nxc"
20	446	122		subcall doubleWheelTurn, __doubleWheelTurn_return
20	445	125	#line 445 "C:\Users\Lshi\Documents\Extracurriculars\Gov School\Robotics\GSET_Robotics\Maze\409_Maze_Test.nxc"
20	445	125	#line 445 "C:\Users\Lshi\Documents\Extracurriculars\Gov School\Robotics\GSET_Robotics\Maze\409_Maze_Test.nxc"
20	446	125		subcall ballFind, __ballFind_return
20	445	128	#line 445 "C:\Users\Lshi\Documents\Extracurriculars\Gov School\Robotics\GSET_Robotics\Maze\409_Maze_Test.nxc"
20	446	128		mov __signed_stack_001ballCatch, __D0ballFind
20	445	130	#line 445 "C:\Users\Lshi\Documents\Extracurriculars\Gov School\Robotics\GSET_Robotics\Maze\409_Maze_Test.nxc"
20	445	130	#line 445 "C:\Users\Lshi\Documents\Extracurriculars\Gov School\Robotics\GSET_Robotics\Maze\409_Maze_Test.nxc"
20	446	130		set __D0ballCatch, 4
20	445	133	#line 445 "C:\Users\Lshi\Documents\Extracurriculars\Gov School\Robotics\GSET_Robotics\Maze\409_Maze_Test.nxc"
20	446	133		cmp 4, __zfballCatch, __signed_stack_001ballCatch, __D0ballCatch
20	445	137	#line 445 "C:\Users\Lshi\Documents\Extracurriculars\Gov School\Robotics\GSET_Robotics\Maze\409_Maze_Test.nxc"
20	446	137		mov __D0ballCatch, __zfballCatch
20	446	140	#line 446 "C:\Users\Lshi\Documents\Extracurriculars\Gov School\Robotics\GSET_Robotics\Maze\409_Maze_Test.nxc"
20	447	140		brtst 4, __NXC_Label_1038, __zfballCatch
20	447	143	#line 447 "C:\Users\Lshi\Documents\Extracurriculars\Gov School\Robotics\GSET_Robotics\Maze\409_Maze_Test.nxc"
20	448	143		mov ballAngle, __ballCatch_7qG2_i_7qG2_002
20	447	145	#line 447 "C:\Users\Lshi\Documents\Extracurriculars\Gov School\Robotics\GSET_Robotics\Maze\409_Maze_Test.nxc"
20	447	145	#line 447 "C:\Users\Lshi\Documents\Extracurriculars\Gov School\Robotics\GSET_Robotics\Maze\409_Maze_Test.nxc"
20	448	145	#line 448 "C:\Users\Lshi\Documents\Extracurriculars\Gov School\Robotics\GSET_Robotics\Maze\409_Maze_Test.nxc"
20	449	145		jmp __NXC_Label_1025
20	448	147	#line 448 "C:\Users\Lshi\Documents\Extracurriculars\Gov School\Robotics\GSET_Robotics\Maze\409_Maze_Test.nxc"
20	450	147	#line 450 "C:\Users\Lshi\Documents\Extracurriculars\Gov School\Robotics\GSET_Robotics\Maze\409_Maze_Test.nxc"
20	463	147	#line 463 "C:\Users\Lshi\Documents\Extracurriculars\Gov School\Robotics\GSET_Robotics\Maze\409_Maze_Test.nxc"
20	464	147		jmp __NXC_Label_1027
20	463	149	#line 463 "C:\Users\Lshi\Documents\Extracurriculars\Gov School\Robotics\GSET_Robotics\Maze\409_Maze_Test.nxc"
20	463	149	#line 463 "C:\Users\Lshi\Documents\Extracurriculars\Gov School\Robotics\GSET_Robotics\Maze\409_Maze_Test.nxc"
20	463	149	#line 463 "C:\Users\Lshi\Documents\Extracurriculars\Gov School\Robotics\GSET_Robotics\Maze\409_Maze_Test.nxc"
20	463	149	#line 463 "C:\Users\Lshi\Documents\Extracurriculars\Gov School\Robotics\GSET_Robotics\Maze\409_Maze_Test.nxc"
20	463	149	#line 463 "C:\Users\Lshi\Documents\Extracurriculars\Gov School\Robotics\GSET_Robotics\Maze\409_Maze_Test.nxc"
20	463	149	#line 463 "C:\Users\Lshi\Documents\Extracurriculars\Gov School\Robotics\GSET_Robotics\Maze\409_Maze_Test.nxc"
20	463	149	#line 463 "C:\Users\Lshi\Documents\Extracurriculars\Gov School\Robotics\GSET_Robotics\Maze\409_Maze_Test.nxc"
20	464	149		mul __D0ballCatch, dir, __constVal100
20	465	153	#line 465 "C:\Users\Lshi\Documents\Extracurriculars\Gov School\Robotics\GSET_Robotics\Maze\409_Maze_Test.nxc"
20	466	153	#pragma macro 7
20	466	153		setout __OUT_AC, 2, __D0ballCatch, 1, __constVal3, 8, __constVal0, 6, __constVal32, 7, __constVal0, 5, __constVal0, 10, __constVal96, 11, __constVal32, 12, __constVal32, 0, __constVal63
20	8392	176	#line 8392 "C:\Users\Lshi\Documents\Extracurriculars\Gov School\Robotics\GSET_Robotics\Maze\409_Maze_Test.nxc"
20	465	176	#line 465 "C:\Users\Lshi\Documents\Extracurriculars\Gov School\Robotics\GSET_Robotics\Maze\409_Maze_Test.nxc"
20	465	176	#line 465 "C:\Users\Lshi\Documents\Extracurriculars\Gov School\Robotics\GSET_Robotics\Maze\409_Maze_Test.nxc"
20	466	176		set __Wait_7qG2_ms_7qG2_000_inline_ballCatch, 3000
20	465	179	#line 465 "C:\Users\Lshi\Documents\Extracurriculars\Gov School\Robotics\GSET_Robotics\Maze\409_Maze_Test.nxc"
20	7921	179	#line 7921 "NXCDefs.h"
20	7922	179		wait2 NA, __Wait_7qG2_ms_7qG2_000_inline_ballCatch
20	7921	182	#line 7921 "NXCDefs.h"
20	466	182	#line 466 "C:\Users\Lshi\Documents\Extracurriculars\Gov School\Robotics\GSET_Robotics\Maze\409_Maze_Test.nxc"
20	466	182	#line 466 "C:\Users\Lshi\Documents\Extracurriculars\Gov School\Robotics\GSET_Robotics\Maze\409_Maze_Test.nxc"
20	467	182		set __D0ballCatch, 0
20	468	185	#line 468 "C:\Users\Lshi\Documents\Extracurriculars\Gov School\Robotics\GSET_Robotics\Maze\409_Maze_Test.nxc"
20	469	185	#pragma macro 7
20	469	185		setout __OUT_AC, 2, __D0ballCatch, 1, __constVal3, 8, __constVal0, 6, __constVal32, 7, __constVal0, 5, __constVal0, 10, __constVal96, 11, __constVal32, 12, __constVal32, 0, __constVal63
20	8413	208	#line 8413 "C:\Users\Lshi\Documents\Extracurriculars\Gov School\Robotics\GSET_Robotics\Maze\409_Maze_Test.nxc"
20	468	208	#line 468 "C:\Users\Lshi\Documents\Extracurriculars\Gov School\Robotics\GSET_Robotics\Maze\409_Maze_Test.nxc"
20	468	208	#line 468 "C:\Users\Lshi\Documents\Extracurriculars\Gov School\Robotics\GSET_Robotics\Maze\409_Maze_Test.nxc"
20	469	208		set __turnHeadTo_7qG2_degrees_7qG2_000, 360
20	468	211	#line 468 "C:\Users\Lshi\Documents\Extracurriculars\Gov School\Robotics\GSET_Robotics\Maze\409_Maze_Test.nxc"
20	471	211	#line 471 "C:\Users\Lshi\Documents\Extracurriculars\Gov School\Robotics\GSET_Robotics\Maze\409_Maze_Test.nxc"
20	472	211		subcall turnHeadTo, __turnHeadTo_return
20	471	214	#line 471 "C:\Users\Lshi\Documents\Extracurriculars\Gov School\Robotics\GSET_Robotics\Maze\409_Maze_Test.nxc"
20	471	214	#line 471 "C:\Users\Lshi\Documents\Extracurriculars\Gov School\Robotics\GSET_Robotics\Maze\409_Maze_Test.nxc"
20	472	214		set __turnHeadTo_7qG2_degrees_7qG2_000, 180
20	471	217	#line 471 "C:\Users\Lshi\Documents\Extracurriculars\Gov School\Robotics\GSET_Robotics\Maze\409_Maze_Test.nxc"
20	473	217	#line 473 "C:\Users\Lshi\Documents\Extracurriculars\Gov School\Robotics\GSET_Robotics\Maze\409_Maze_Test.nxc"
20	474	217		subcall turnHeadTo, __turnHeadTo_return
20	473	220	#line 473 "C:\Users\Lshi\Documents\Extracurriculars\Gov School\Robotics\GSET_Robotics\Maze\409_Maze_Test.nxc"
20	475	220	#line 475 "C:\Users\Lshi\Documents\Extracurriculars\Gov School\Robotics\GSET_Robotics\Maze\409_Maze_Test.nxc"
20	476	220		set dir, 1
20	475	223	#line 475 "C:\Users\Lshi\Documents\Extracurriculars\Gov School\Robotics\GSET_Robotics\Maze\409_Maze_Test.nxc"
20	475	223	#line 475 "C:\Users\Lshi\Documents\Extracurriculars\Gov School\Robotics\GSET_Robotics\Maze\409_Maze_Test.nxc"
20	475	223	#line 475 "C:\Users\Lshi\Documents\Extracurriculars\Gov School\Robotics\GSET_Robotics\Maze\409_Maze_Test.nxc"
20	476	223		set __signed_stack_001ballCatch, 440
20	475	226	#line 475 "C:\Users\Lshi\Documents\Extracurriculars\Gov School\Robotics\GSET_Robotics\Maze\409_Maze_Test.nxc"
20	475	226	#line 475 "C:\Users\Lshi\Documents\Extracurriculars\Gov School\Robotics\GSET_Robotics\Maze\409_Maze_Test.nxc"
20	476	226		set __signed_stack_002ballCatch, 250
20	475	229	#line 475 "C:\Users\Lshi\Documents\Extracurriculars\Gov School\Robotics\GSET_Robotics\Maze\409_Maze_Test.nxc"
20	475	229	#line 475 "C:\Users\Lshi\Documents\Extracurriculars\Gov School\Robotics\GSET_Robotics\Maze\409_Maze_Test.nxc"
20	476	229		set __signed_stack_003ballCatch, 4
20	475	232	#line 475 "C:\Users\Lshi\Documents\Extracurriculars\Gov School\Robotics\GSET_Robotics\Maze\409_Maze_Test.nxc"
20	475	232	#line 475 "C:\Users\Lshi\Documents\Extracurriculars\Gov School\Robotics\GSET_Robotics\Maze\409_Maze_Test.nxc"
20	476	232		set __D0ballCatch, 0
20	476	235	#line 476 "C:\Users\Lshi\Documents\Extracurriculars\Gov School\Robotics\GSET_Robotics\Maze\409_Maze_Test.nxc"
20	477	235		acquire __SPTArgsMutex
20	476	236	#line 476 "C:\Users\Lshi\Documents\Extracurriculars\Gov School\Robotics\GSET_Robotics\Maze\409_Maze_Test.nxc"
20	477	236		mov __SPTArgs.Frequency, __signed_stack_001ballCatch
20	476	239	#line 476 "C:\Users\Lshi\Documents\Extracurriculars\Gov School\Robotics\GSET_Robotics\Maze\409_Maze_Test.nxc"
20	477	239		mov __SPTArgs.Duration, __signed_stack_002ballCatch
20	476	242	#line 476 "C:\Users\Lshi\Documents\Extracurriculars\Gov School\Robotics\GSET_Robotics\Maze\409_Maze_Test.nxc"
20	477	242		mov __SPTArgs.Volume, __signed_stack_003ballCatch
20	476	245	#line 476 "C:\Users\Lshi\Documents\Extracurriculars\Gov School\Robotics\GSET_Robotics\Maze\409_Maze_Test.nxc"
20	477	245		mov __SPTArgs.Loop, __D0ballCatch
20	476	248	#line 476 "C:\Users\Lshi\Documents\Extracurriculars\Gov School\Robotics\GSET_Robotics\Maze\409_Maze_Test.nxc"
20	477	248		syscall 10, __SPTArgs
20	476	251	#line 476 "C:\Users\Lshi\Documents\Extracurriculars\Gov School\Robotics\GSET_Robotics\Maze\409_Maze_Test.nxc"
20	477	251		mov __D0ballCatch, __SPTArgs.Result
20	476	254	#line 476 "C:\Users\Lshi\Documents\Extracurriculars\Gov School\Robotics\GSET_Robotics\Maze\409_Maze_Test.nxc"
20	477	254		release __SPTArgsMutex
20	476	255	#line 476 "C:\Users\Lshi\Documents\Extracurriculars\Gov School\Robotics\GSET_Robotics\Maze\409_Maze_Test.nxc"
20	476	255	#line 476 "C:\Users\Lshi\Documents\Extracurriculars\Gov School\Robotics\GSET_Robotics\Maze\409_Maze_Test.nxc"
20	477	255		mov __Wait_7qG2_ms_7qG2_000_inline_ballCatch, __constValf1000000000000
20	476	257	#line 476 "C:\Users\Lshi\Documents\Extracurriculars\Gov School\Robotics\GSET_Robotics\Maze\409_Maze_Test.nxc"
20	7921	257	#line 7921 "NXCDefs.h"
20	7922	257		wait2 NA, __Wait_7qG2_ms_7qG2_000_inline_ballCatch
20	7921	260	#line 7921 "NXCDefs.h"
20	477	260	#line 477 "C:\Users\Lshi\Documents\Extracurriculars\Gov School\Robotics\GSET_Robotics\Maze\409_Maze_Test.nxc"
20	480	260	#line 480 "C:\Users\Lshi\Documents\Extracurriculars\Gov School\Robotics\GSET_Robotics\Maze\409_Maze_Test.nxc"
20	481	260		subret __ballCatch_return
21	481	0	#line 481 "C:\Users\Lshi\Documents\Extracurriculars\Gov School\Robotics\GSET_Robotics\Maze\409_Maze_Test.nxc"
21	482	0		mov __signed_stack_001switchDir, dir
21	481	2	#line 481 "C:\Users\Lshi\Documents\Extracurriculars\Gov School\Robotics\GSET_Robotics\Maze\409_Maze_Test.nxc"
21	481	2	#line 481 "C:\Users\Lshi\Documents\Extracurriculars\Gov School\Robotics\GSET_Robotics\Maze\409_Maze_Test.nxc"
21	482	2		mov __D0switchDir, __constValNeg1
21	481	5	#line 481 "C:\Users\Lshi\Documents\Extracurriculars\Gov School\Robotics\GSET_Robotics\Maze\409_Maze_Test.nxc"
21	482	5		cmp 4, __zfswitchDir, __signed_stack_001switchDir, __D0switchDir
21	481	9	#line 481 "C:\Users\Lshi\Documents\Extracurriculars\Gov School\Robotics\GSET_Robotics\Maze\409_Maze_Test.nxc"
21	482	9		mov __D0switchDir, __zfswitchDir
21	482	12	#line 482 "C:\Users\Lshi\Documents\Extracurriculars\Gov School\Robotics\GSET_Robotics\Maze\409_Maze_Test.nxc"
21	483	12		brtst 4, __NXC_Label_1065, __zfswitchDir
21	483	15	#line 483 "C:\Users\Lshi\Documents\Extracurriculars\Gov School\Robotics\GSET_Robotics\Maze\409_Maze_Test.nxc"
21	484	15		set dir, 1
21	483	18	#line 483 "C:\Users\Lshi\Documents\Extracurriculars\Gov School\Robotics\GSET_Robotics\Maze\409_Maze_Test.nxc"
21	483	18	#line 483 "C:\Users\Lshi\Documents\Extracurriculars\Gov School\Robotics\GSET_Robotics\Maze\409_Maze_Test.nxc"
21	483	18	#line 483 "C:\Users\Lshi\Documents\Extracurriculars\Gov School\Robotics\GSET_Robotics\Maze\409_Maze_Test.nxc"
21	484	18		set __signed_stack_001switchDir, 30
21	483	21	#line 483 "C:\Users\Lshi\Documents\Extracurriculars\Gov School\Robotics\GSET_Robotics\Maze\409_Maze_Test.nxc"
21	483	21	#line 483 "C:\Users\Lshi\Documents\Extracurriculars\Gov School\Robotics\GSET_Robotics\Maze\409_Maze_Test.nxc"
21	484	21		mov __D0switchDir, __constValNeg180
21	485	23	#line 485 "C:\Users\Lshi\Documents\Extracurriculars\Gov School\Robotics\GSET_Robotics\Maze\409_Maze_Test.nxc"
21	486	23	#pragma macro 33
21	486	23		acquire __rotateMutex1
21	486	24		arrbuild __rotate_ports1, __constVal1
21	486	28		mov __rotate_power1, __signed_stack_001switchDir
21	486	31		mov __rotate_angle1, __D0switchDir
21	486	33		mov __rotate_turnpct1, __constVal0
21	486	35		mov __rotate_sync1, __constVal0
21	486	37		mov __rotate_stop1, __constVal1
21	486	39		mov __rotate_theRVP1, __constVal32
21	486	41		mov __rotate_theRVI1, __constVal0
21	486	43		mov __rotate_theRVD1, __constVal96
21	486	45		subcall __RotateMotor1, ____RotateMotor1_return
21	486	48		release __rotateMutex1
21	8526	49	#line 8526 "C:\Users\Lshi\Documents\Extracurriculars\Gov School\Robotics\GSET_Robotics\Maze\409_Maze_Test.nxc"
21	485	49	#line 485 "C:\Users\Lshi\Documents\Extracurriculars\Gov School\Robotics\GSET_Robotics\Maze\409_Maze_Test.nxc"
21	486	49	#line 486 "C:\Users\Lshi\Documents\Extracurriculars\Gov School\Robotics\GSET_Robotics\Maze\409_Maze_Test.nxc"
21	487	49		jmp __NXC_Label_1072
21	486	51	#line 486 "C:\Users\Lshi\Documents\Extracurriculars\Gov School\Robotics\GSET_Robotics\Maze\409_Maze_Test.nxc"
21	487	51		mov __signed_stack_001switchDir, dir
21	486	53	#line 486 "C:\Users\Lshi\Documents\Extracurriculars\Gov School\Robotics\GSET_Robotics\Maze\409_Maze_Test.nxc"
21	486	53	#line 486 "C:\Users\Lshi\Documents\Extracurriculars\Gov School\Robotics\GSET_Robotics\Maze\409_Maze_Test.nxc"
21	487	53		set __D0switchDir, 1
21	486	56	#line 486 "C:\Users\Lshi\Documents\Extracurriculars\Gov School\Robotics\GSET_Robotics\Maze\409_Maze_Test.nxc"
21	487	56		cmp 4, __zfswitchDir, __signed_stack_001switchDir, __D0switchDir
21	486	60	#line 486 "C:\Users\Lshi\Documents\Extracurriculars\Gov School\Robotics\GSET_Robotics\Maze\409_Maze_Test.nxc"
21	487	60		mov __D0switchDir, __zfswitchDir
21	487	63	#line 487 "C:\Users\Lshi\Documents\Extracurriculars\Gov School\Robotics\GSET_Robotics\Maze\409_Maze_Test.nxc"
21	488	63		brtst 4, __NXC_Label_1075, __zfswitchDir
21	488	66	#line 488 "C:\Users\Lshi\Documents\Extracurriculars\Gov School\Robotics\GSET_Robotics\Maze\409_Maze_Test.nxc"
21	489	66		mov dir, __constValNeg1
21	488	68	#line 488 "C:\Users\Lshi\Documents\Extracurriculars\Gov School\Robotics\GSET_Robotics\Maze\409_Maze_Test.nxc"
21	488	68	#line 488 "C:\Users\Lshi\Documents\Extracurriculars\Gov School\Robotics\GSET_Robotics\Maze\409_Maze_Test.nxc"
21	488	68	#line 488 "C:\Users\Lshi\Documents\Extracurriculars\Gov School\Robotics\GSET_Robotics\Maze\409_Maze_Test.nxc"
21	489	68		set __signed_stack_001switchDir, 30
21	488	71	#line 488 "C:\Users\Lshi\Documents\Extracurriculars\Gov School\Robotics\GSET_Robotics\Maze\409_Maze_Test.nxc"
21	488	71	#line 488 "C:\Users\Lshi\Documents\Extracurriculars\Gov School\Robotics\GSET_Robotics\Maze\409_Maze_Test.nxc"
21	489	71		set __D0switchDir, 180
21	489	74	#line 489 "C:\Users\Lshi\Documents\Extracurriculars\Gov School\Robotics\GSET_Robotics\Maze\409_Maze_Test.nxc"
21	490	74	#pragma macro 33
21	490	74		acquire __rotateMutex1
21	490	75		arrbuild __rotate_ports1, __constVal1
21	490	79		mov __rotate_power1, __signed_stack_001switchDir
21	490	82		mov __rotate_angle1, __D0switchDir
21	490	84		mov __rotate_turnpct1, __constVal0
21	490	86		mov __rotate_sync1, __constVal0
21	490	88		mov __rotate_stop1, __constVal1
21	490	90		mov __rotate_theRVP1, __constVal32
21	490	92		mov __rotate_theRVI1, __constVal0
21	490	94		mov __rotate_theRVD1, __constVal96
21	490	96		subcall __RotateMotor1, ____RotateMotor1_return
21	490	99		release __rotateMutex1
21	8563	100	#line 8563 "C:\Users\Lshi\Documents\Extracurriculars\Gov School\Robotics\GSET_Robotics\Maze\409_Maze_Test.nxc"
21	489	100	#line 489 "C:\Users\Lshi\Documents\Extracurriculars\Gov School\Robotics\GSET_Robotics\Maze\409_Maze_Test.nxc"
21	492	100	#line 492 "C:\Users\Lshi\Documents\Extracurriculars\Gov School\Robotics\GSET_Robotics\Maze\409_Maze_Test.nxc"
21	492	100	#line 492 "C:\Users\Lshi\Documents\Extracurriculars\Gov School\Robotics\GSET_Robotics\Maze\409_Maze_Test.nxc"
21	492	100	#line 492 "C:\Users\Lshi\Documents\Extracurriculars\Gov School\Robotics\GSET_Robotics\Maze\409_Maze_Test.nxc"
21	493	100		subret __switchDir_return
22	6069	0	#line 6069 "NXCDefs.h"
22	6070	0	#pragma macro 6
22	6070	0		acquire __PointOutMutex
22	6070	1		mov __PointOutArgs.Location.X, __constVal200
22	6070	4		mov __PointOutArgs.Location.Y, __constVal200
22	6070	7		mov __PointOutArgs.Options, __constVal1
22	6070	9		syscall 14, __PointOutArgs
22	6070	12		release __PointOutMutex
22	8575	13	#line 8575 "NXCDefs.h"
22	6069	13	#line 6069 "NXCDefs.h"
22	494	13	#line 494 "C:\Users\Lshi\Documents\Extracurriculars\Gov School\Robotics\GSET_Robotics\Maze\409_Maze_Test.nxc"
22	494	13	#line 494 "C:\Users\Lshi\Documents\Extracurriculars\Gov School\Robotics\GSET_Robotics\Maze\409_Maze_Test.nxc"
22	495	13		set __signed_stack_001displayNum, 0
22	494	16	#line 494 "C:\Users\Lshi\Documents\Extracurriculars\Gov School\Robotics\GSET_Robotics\Maze\409_Maze_Test.nxc"
22	494	16	#line 494 "C:\Users\Lshi\Documents\Extracurriculars\Gov School\Robotics\GSET_Robotics\Maze\409_Maze_Test.nxc"
22	495	16		set __signed_stack_002displayNum, 2
22	494	19	#line 494 "C:\Users\Lshi\Documents\Extracurriculars\Gov School\Robotics\GSET_Robotics\Maze\409_Maze_Test.nxc"
22	494	19	#line 494 "C:\Users\Lshi\Documents\Extracurriculars\Gov School\Robotics\GSET_Robotics\Maze\409_Maze_Test.nxc"
22	495	19		mov __D0displayNum, __displayNum_7qG2_n_7qG2_000
22	494	21	#line 494 "C:\Users\Lshi\Documents\Extracurriculars\Gov School\Robotics\GSET_Robotics\Maze\409_Maze_Test.nxc"
22	495	21		numtostr __strretvaldisplayNum, __D0displayNum
22	494	24	#line 494 "C:\Users\Lshi\Documents\Extracurriculars\Gov School\Robotics\GSET_Robotics\Maze\409_Maze_Test.nxc"
22	495	24		strcat __strbufdisplayNum, __strretvaldisplayNum
22	495	28	#line 495 "C:\Users\Lshi\Documents\Extracurriculars\Gov School\Robotics\GSET_Robotics\Maze\409_Maze_Test.nxc"
22	496	28		acquire __TextOutMutex
22	495	29	#line 495 "C:\Users\Lshi\Documents\Extracurriculars\Gov School\Robotics\GSET_Robotics\Maze\409_Maze_Test.nxc"
22	496	29		mov __TextOutArgs.Location.X, __signed_stack_001displayNum
22	495	32	#line 495 "C:\Users\Lshi\Documents\Extracurriculars\Gov School\Robotics\GSET_Robotics\Maze\409_Maze_Test.nxc"
22	496	32		mov __TextOutArgs.Location.Y, __signed_stack_002displayNum
22	495	35	#line 495 "C:\Users\Lshi\Documents\Extracurriculars\Gov School\Robotics\GSET_Robotics\Maze\409_Maze_Test.nxc"
22	496	35		set __TextOutArgs.Options, 0
22	495	38	#line 495 "C:\Users\Lshi\Documents\Extracurriculars\Gov School\Robotics\GSET_Robotics\Maze\409_Maze_Test.nxc"
22	496	38		mov __TextOutArgs.Text, __strbufdisplayNum
22	495	40	#line 495 "C:\Users\Lshi\Documents\Extracurriculars\Gov School\Robotics\GSET_Robotics\Maze\409_Maze_Test.nxc"
22	496	40		syscall 13, __TextOutArgs
22	495	43	#line 495 "C:\Users\Lshi\Documents\Extracurriculars\Gov School\Robotics\GSET_Robotics\Maze\409_Maze_Test.nxc"
22	496	43		mov __D0displayNum, __TextOutArgs.Result
22	495	46	#line 495 "C:\Users\Lshi\Documents\Extracurriculars\Gov School\Robotics\GSET_Robotics\Maze\409_Maze_Test.nxc"
22	496	46		release __TextOutMutex
22	495	47	#line 495 "C:\Users\Lshi\Documents\Extracurriculars\Gov School\Robotics\GSET_Robotics\Maze\409_Maze_Test.nxc"
22	495	47	#line 495 "C:\Users\Lshi\Documents\Extracurriculars\Gov School\Robotics\GSET_Robotics\Maze\409_Maze_Test.nxc"
22	496	47		set __Wait_7qG2_ms_7qG2_000_inline_displayNum, 1500
22	495	50	#line 495 "C:\Users\Lshi\Documents\Extracurriculars\Gov School\Robotics\GSET_Robotics\Maze\409_Maze_Test.nxc"
22	7921	50	#line 7921 "NXCDefs.h"
22	7922	50		wait2 NA, __Wait_7qG2_ms_7qG2_000_inline_displayNum
22	7921	53	#line 7921 "NXCDefs.h"
22	496	53	#line 496 "C:\Users\Lshi\Documents\Extracurriculars\Gov School\Robotics\GSET_Robotics\Maze\409_Maze_Test.nxc"
22	6069	53	#line 6069 "NXCDefs.h"
22	6070	53	#pragma macro 6
22	6070	53		acquire __PointOutMutex
22	6070	54		mov __PointOutArgs.Location.X, __constVal200
22	6070	57		mov __PointOutArgs.Location.Y, __constVal200
22	6070	60		mov __PointOutArgs.Options, __constVal1
22	6070	62		syscall 14, __PointOutArgs
22	6070	65		release __PointOutMutex
22	8630	66	#line 8630 "NXCDefs.h"
22	6069	66	#line 6069 "NXCDefs.h"
22	497	66	#line 497 "C:\Users\Lshi\Documents\Extracurriculars\Gov School\Robotics\GSET_Robotics\Maze\409_Maze_Test.nxc"
22	499	66	#line 499 "C:\Users\Lshi\Documents\Extracurriculars\Gov School\Robotics\GSET_Robotics\Maze\409_Maze_Test.nxc"
22	500	66		subret __displayNum_return
23	500	0	#line 500 "C:\Users\Lshi\Documents\Extracurriculars\Gov School\Robotics\GSET_Robotics\Maze\409_Maze_Test.nxc"
23	501	0		set __signed_stack_001calibration, 0
23	500	3	#line 500 "C:\Users\Lshi\Documents\Extracurriculars\Gov School\Robotics\GSET_Robotics\Maze\409_Maze_Test.nxc"
23	500	3	#line 500 "C:\Users\Lshi\Documents\Extracurriculars\Gov School\Robotics\GSET_Robotics\Maze\409_Maze_Test.nxc"
23	501	3		set __signed_stack_002calibration, 2
23	500	6	#line 500 "C:\Users\Lshi\Documents\Extracurriculars\Gov School\Robotics\GSET_Robotics\Maze\409_Maze_Test.nxc"
23	500	6	#line 500 "C:\Users\Lshi\Documents\Extracurriculars\Gov School\Robotics\GSET_Robotics\Maze\409_Maze_Test.nxc"
23	501	6		strcat __strbufcalibration, __constStr0009
23	501	10	#line 501 "C:\Users\Lshi\Documents\Extracurriculars\Gov School\Robotics\GSET_Robotics\Maze\409_Maze_Test.nxc"
23	502	10		acquire __TextOutMutex
23	501	11	#line 501 "C:\Users\Lshi\Documents\Extracurriculars\Gov School\Robotics\GSET_Robotics\Maze\409_Maze_Test.nxc"
23	502	11		mov __TextOutArgs.Location.X, __signed_stack_001calibration
23	501	14	#line 501 "C:\Users\Lshi\Documents\Extracurriculars\Gov School\Robotics\GSET_Robotics\Maze\409_Maze_Test.nxc"
23	502	14		mov __TextOutArgs.Location.Y, __signed_stack_002calibration
23	501	17	#line 501 "C:\Users\Lshi\Documents\Extracurriculars\Gov School\Robotics\GSET_Robotics\Maze\409_Maze_Test.nxc"
23	502	17		set __TextOutArgs.Options, 0
23	501	20	#line 501 "C:\Users\Lshi\Documents\Extracurriculars\Gov School\Robotics\GSET_Robotics\Maze\409_Maze_Test.nxc"
23	502	20		mov __TextOutArgs.Text, __strbufcalibration
23	501	22	#line 501 "C:\Users\Lshi\Documents\Extracurriculars\Gov School\Robotics\GSET_Robotics\Maze\409_Maze_Test.nxc"
23	502	22		syscall 13, __TextOutArgs
23	501	25	#line 501 "C:\Users\Lshi\Documents\Extracurriculars\Gov School\Robotics\GSET_Robotics\Maze\409_Maze_Test.nxc"
23	502	25		mov __D0calibration, __TextOutArgs.Result
23	501	28	#line 501 "C:\Users\Lshi\Documents\Extracurriculars\Gov School\Robotics\GSET_Robotics\Maze\409_Maze_Test.nxc"
23	502	28		release __TextOutMutex
23	501	29	#line 501 "C:\Users\Lshi\Documents\Extracurriculars\Gov School\Robotics\GSET_Robotics\Maze\409_Maze_Test.nxc"
23	501	29	#line 501 "C:\Users\Lshi\Documents\Extracurriculars\Gov School\Robotics\GSET_Robotics\Maze\409_Maze_Test.nxc"
23	502	29		set __Wait_7qG2_ms_7qG2_000_inline_calibration, 3000
23	501	32	#line 501 "C:\Users\Lshi\Documents\Extracurriculars\Gov School\Robotics\GSET_Robotics\Maze\409_Maze_Test.nxc"
23	7921	32	#line 7921 "NXCDefs.h"
23	7922	32		wait2 NA, __Wait_7qG2_ms_7qG2_000_inline_calibration
23	7921	35	#line 7921 "NXCDefs.h"
23	502	35	#line 502 "C:\Users\Lshi\Documents\Extracurriculars\Gov School\Robotics\GSET_Robotics\Maze\409_Maze_Test.nxc"
23	502	35	#line 502 "C:\Users\Lshi\Documents\Extracurriculars\Gov School\Robotics\GSET_Robotics\Maze\409_Maze_Test.nxc"
23	503	35		getin black, __constVal0, 4
23	502	39	#line 502 "C:\Users\Lshi\Documents\Extracurriculars\Gov School\Robotics\GSET_Robotics\Maze\409_Maze_Test.nxc"
23	502	39	#line 502 "C:\Users\Lshi\Documents\Extracurriculars\Gov School\Robotics\GSET_Robotics\Maze\409_Maze_Test.nxc"
23	502	39	#line 502 "C:\Users\Lshi\Documents\Extracurriculars\Gov School\Robotics\GSET_Robotics\Maze\409_Maze_Test.nxc"
23	503	39	#line 503 "C:\Users\Lshi\Documents\Extracurriculars\Gov School\Robotics\GSET_Robotics\Maze\409_Maze_Test.nxc"
23	504	39		mov __displayNum_7qG2_n_7qG2_000, black
23	503	41	#line 503 "C:\Users\Lshi\Documents\Extracurriculars\Gov School\Robotics\GSET_Robotics\Maze\409_Maze_Test.nxc"
23	504	41	#line 504 "C:\Users\Lshi\Documents\Extracurriculars\Gov School\Robotics\GSET_Robotics\Maze\409_Maze_Test.nxc"
23	505	41		subcall displayNum, __displayNum_return
23	504	44	#line 504 "C:\Users\Lshi\Documents\Extracurriculars\Gov School\Robotics\GSET_Robotics\Maze\409_Maze_Test.nxc"
23	504	44	#line 504 "C:\Users\Lshi\Documents\Extracurriculars\Gov School\Robotics\GSET_Robotics\Maze\409_Maze_Test.nxc"
23	505	44		set __signed_stack_001calibration, 0
23	504	47	#line 504 "C:\Users\Lshi\Documents\Extracurriculars\Gov School\Robotics\GSET_Robotics\Maze\409_Maze_Test.nxc"
23	504	47	#line 504 "C:\Users\Lshi\Documents\Extracurriculars\Gov School\Robotics\GSET_Robotics\Maze\409_Maze_Test.nxc"
23	505	47		set __signed_stack_002calibration, 2
23	504	50	#line 504 "C:\Users\Lshi\Documents\Extracurriculars\Gov School\Robotics\GSET_Robotics\Maze\409_Maze_Test.nxc"
23	504	50	#line 504 "C:\Users\Lshi\Documents\Extracurriculars\Gov School\Robotics\GSET_Robotics\Maze\409_Maze_Test.nxc"
23	505	50		strcat __strbufcalibration, __constStr0010
23	505	54	#line 505 "C:\Users\Lshi\Documents\Extracurriculars\Gov School\Robotics\GSET_Robotics\Maze\409_Maze_Test.nxc"
23	506	54		acquire __TextOutMutex
23	505	55	#line 505 "C:\Users\Lshi\Documents\Extracurriculars\Gov School\Robotics\GSET_Robotics\Maze\409_Maze_Test.nxc"
23	506	55		mov __TextOutArgs.Location.X, __signed_stack_001calibration
23	505	58	#line 505 "C:\Users\Lshi\Documents\Extracurriculars\Gov School\Robotics\GSET_Robotics\Maze\409_Maze_Test.nxc"
23	506	58		mov __TextOutArgs.Location.Y, __signed_stack_002calibration
23	505	61	#line 505 "C:\Users\Lshi\Documents\Extracurriculars\Gov School\Robotics\GSET_Robotics\Maze\409_Maze_Test.nxc"
23	506	61		set __TextOutArgs.Options, 0
23	505	64	#line 505 "C:\Users\Lshi\Documents\Extracurriculars\Gov School\Robotics\GSET_Robotics\Maze\409_Maze_Test.nxc"
23	506	64		mov __TextOutArgs.Text, __strbufcalibration
23	505	66	#line 505 "C:\Users\Lshi\Documents\Extracurriculars\Gov School\Robotics\GSET_Robotics\Maze\409_Maze_Test.nxc"
23	506	66		syscall 13, __TextOutArgs
23	505	69	#line 505 "C:\Users\Lshi\Documents\Extracurriculars\Gov School\Robotics\GSET_Robotics\Maze\409_Maze_Test.nxc"
23	506	69		mov __D0calibration, __TextOutArgs.Result
23	505	72	#line 505 "C:\Users\Lshi\Documents\Extracurriculars\Gov School\Robotics\GSET_Robotics\Maze\409_Maze_Test.nxc"
23	506	72		release __TextOutMutex
23	505	73	#line 505 "C:\Users\Lshi\Documents\Extracurriculars\Gov School\Robotics\GSET_Robotics\Maze\409_Maze_Test.nxc"
23	505	73	#line 505 "C:\Users\Lshi\Documents\Extracurriculars\Gov School\Robotics\GSET_Robotics\Maze\409_Maze_Test.nxc"
23	506	73		set __Wait_7qG2_ms_7qG2_000_inline_calibration, 3000
23	505	76	#line 505 "C:\Users\Lshi\Documents\Extracurriculars\Gov School\Robotics\GSET_Robotics\Maze\409_Maze_Test.nxc"
23	7921	76	#line 7921 "NXCDefs.h"
23	7922	76		wait2 NA, __Wait_7qG2_ms_7qG2_000_inline_calibration
23	7921	79	#line 7921 "NXCDefs.h"
23	506	79	#line 506 "C:\Users\Lshi\Documents\Extracurriculars\Gov School\Robotics\GSET_Robotics\Maze\409_Maze_Test.nxc"
23	506	79	#line 506 "C:\Users\Lshi\Documents\Extracurriculars\Gov School\Robotics\GSET_Robotics\Maze\409_Maze_Test.nxc"
23	507	79		getin white, __constVal0, 4
23	506	83	#line 506 "C:\Users\Lshi\Documents\Extracurriculars\Gov School\Robotics\GSET_Robotics\Maze\409_Maze_Test.nxc"
23	506	83	#line 506 "C:\Users\Lshi\Documents\Extracurriculars\Gov School\Robotics\GSET_Robotics\Maze\409_Maze_Test.nxc"
23	506	83	#line 506 "C:\Users\Lshi\Documents\Extracurriculars\Gov School\Robotics\GSET_Robotics\Maze\409_Maze_Test.nxc"
23	507	83	#line 507 "C:\Users\Lshi\Documents\Extracurriculars\Gov School\Robotics\GSET_Robotics\Maze\409_Maze_Test.nxc"
23	508	83		mov __displayNum_7qG2_n_7qG2_000, white
23	507	85	#line 507 "C:\Users\Lshi\Documents\Extracurriculars\Gov School\Robotics\GSET_Robotics\Maze\409_Maze_Test.nxc"
23	509	85	#line 509 "C:\Users\Lshi\Documents\Extracurriculars\Gov School\Robotics\GSET_Robotics\Maze\409_Maze_Test.nxc"
23	510	85		subcall displayNum, __displayNum_return
23	509	88	#line 509 "C:\Users\Lshi\Documents\Extracurriculars\Gov School\Robotics\GSET_Robotics\Maze\409_Maze_Test.nxc"
23	509	88	#line 509 "C:\Users\Lshi\Documents\Extracurriculars\Gov School\Robotics\GSET_Robotics\Maze\409_Maze_Test.nxc"
23	509	88	#line 509 "C:\Users\Lshi\Documents\Extracurriculars\Gov School\Robotics\GSET_Robotics\Maze\409_Maze_Test.nxc"
23	509	88	#line 509 "C:\Users\Lshi\Documents\Extracurriculars\Gov School\Robotics\GSET_Robotics\Maze\409_Maze_Test.nxc"
23	509	88	#line 509 "C:\Users\Lshi\Documents\Extracurriculars\Gov School\Robotics\GSET_Robotics\Maze\409_Maze_Test.nxc"
23	510	88		add __signed_stack_001calibration, black, white
23	509	92	#line 509 "C:\Users\Lshi\Documents\Extracurriculars\Gov School\Robotics\GSET_Robotics\Maze\409_Maze_Test.nxc"
23	510	92	#line 510 "C:\Users\Lshi\Documents\Extracurriculars\Gov School\Robotics\GSET_Robotics\Maze\409_Maze_Test.nxc"
23	510	92	#line 510 "C:\Users\Lshi\Documents\Extracurriculars\Gov School\Robotics\GSET_Robotics\Maze\409_Maze_Test.nxc"
23	511	92		div lightAvg, __signed_stack_001calibration, __constVal2
23	510	96	#line 510 "C:\Users\Lshi\Documents\Extracurriculars\Gov School\Robotics\GSET_Robotics\Maze\409_Maze_Test.nxc"
23	510	96	#line 510 "C:\Users\Lshi\Documents\Extracurriculars\Gov School\Robotics\GSET_Robotics\Maze\409_Maze_Test.nxc"
23	510	96	#line 510 "C:\Users\Lshi\Documents\Extracurriculars\Gov School\Robotics\GSET_Robotics\Maze\409_Maze_Test.nxc"
23	511	96		mov __displayNum_7qG2_n_7qG2_000, lightAvg
23	510	98	#line 510 "C:\Users\Lshi\Documents\Extracurriculars\Gov School\Robotics\GSET_Robotics\Maze\409_Maze_Test.nxc"
23	512	98	#line 512 "C:\Users\Lshi\Documents\Extracurriculars\Gov School\Robotics\GSET_Robotics\Maze\409_Maze_Test.nxc"
23	513	98		subcall displayNum, __displayNum_return
23	512	101	#line 512 "C:\Users\Lshi\Documents\Extracurriculars\Gov School\Robotics\GSET_Robotics\Maze\409_Maze_Test.nxc"
23	512	101	#line 512 "C:\Users\Lshi\Documents\Extracurriculars\Gov School\Robotics\GSET_Robotics\Maze\409_Maze_Test.nxc"
23	513	101		set __signed_stack_001calibration, 0
23	512	104	#line 512 "C:\Users\Lshi\Documents\Extracurriculars\Gov School\Robotics\GSET_Robotics\Maze\409_Maze_Test.nxc"
23	512	104	#line 512 "C:\Users\Lshi\Documents\Extracurriculars\Gov School\Robotics\GSET_Robotics\Maze\409_Maze_Test.nxc"
23	513	104		set __signed_stack_002calibration, 2
23	512	107	#line 512 "C:\Users\Lshi\Documents\Extracurriculars\Gov School\Robotics\GSET_Robotics\Maze\409_Maze_Test.nxc"
23	512	107	#line 512 "C:\Users\Lshi\Documents\Extracurriculars\Gov School\Robotics\GSET_Robotics\Maze\409_Maze_Test.nxc"
23	513	107		strcat __strbufcalibration, __constStr0011
23	513	111	#line 513 "C:\Users\Lshi\Documents\Extracurriculars\Gov School\Robotics\GSET_Robotics\Maze\409_Maze_Test.nxc"
23	514	111		acquire __TextOutMutex
23	513	112	#line 513 "C:\Users\Lshi\Documents\Extracurriculars\Gov School\Robotics\GSET_Robotics\Maze\409_Maze_Test.nxc"
23	514	112		mov __TextOutArgs.Location.X, __signed_stack_001calibration
23	513	115	#line 513 "C:\Users\Lshi\Documents\Extracurriculars\Gov School\Robotics\GSET_Robotics\Maze\409_Maze_Test.nxc"
23	514	115		mov __TextOutArgs.Location.Y, __signed_stack_002calibration
23	513	118	#line 513 "C:\Users\Lshi\Documents\Extracurriculars\Gov School\Robotics\GSET_Robotics\Maze\409_Maze_Test.nxc"
23	514	118		set __TextOutArgs.Options, 0
23	513	121	#line 513 "C:\Users\Lshi\Documents\Extracurriculars\Gov School\Robotics\GSET_Robotics\Maze\409_Maze_Test.nxc"
23	514	121		mov __TextOutArgs.Text, __strbufcalibration
23	513	123	#line 513 "C:\Users\Lshi\Documents\Extracurriculars\Gov School\Robotics\GSET_Robotics\Maze\409_Maze_Test.nxc"
23	514	123		syscall 13, __TextOutArgs
23	513	126	#line 513 "C:\Users\Lshi\Documents\Extracurriculars\Gov School\Robotics\GSET_Robotics\Maze\409_Maze_Test.nxc"
23	514	126		mov __D0calibration, __TextOutArgs.Result
23	513	129	#line 513 "C:\Users\Lshi\Documents\Extracurriculars\Gov School\Robotics\GSET_Robotics\Maze\409_Maze_Test.nxc"
23	514	129		release __TextOutMutex
23	513	130	#line 513 "C:\Users\Lshi\Documents\Extracurriculars\Gov School\Robotics\GSET_Robotics\Maze\409_Maze_Test.nxc"
23	513	130	#line 513 "C:\Users\Lshi\Documents\Extracurriculars\Gov School\Robotics\GSET_Robotics\Maze\409_Maze_Test.nxc"
23	514	130		set __Wait_7qG2_ms_7qG2_000_inline_calibration, 1000
23	513	133	#line 513 "C:\Users\Lshi\Documents\Extracurriculars\Gov School\Robotics\GSET_Robotics\Maze\409_Maze_Test.nxc"
23	7921	133	#line 7921 "NXCDefs.h"
23	7922	133		wait2 NA, __Wait_7qG2_ms_7qG2_000_inline_calibration
23	7921	136	#line 7921 "NXCDefs.h"
23	514	136	#line 514 "C:\Users\Lshi\Documents\Extracurriculars\Gov School\Robotics\GSET_Robotics\Maze\409_Maze_Test.nxc"
23	6069	136	#line 6069 "NXCDefs.h"
23	6070	136	#pragma macro 6
23	6070	136		acquire __PointOutMutex
23	6070	137		mov __PointOutArgs.Location.X, __constVal200
23	6070	140		mov __PointOutArgs.Location.Y, __constVal200
23	6070	143		mov __PointOutArgs.Options, __constVal1
23	6070	145		syscall 14, __PointOutArgs
23	6070	148		release __PointOutMutex
23	8830	149	#line 8830 "NXCDefs.h"
23	6069	149	#line 6069 "NXCDefs.h"
23	515	149	#line 515 "C:\Users\Lshi\Documents\Extracurriculars\Gov School\Robotics\GSET_Robotics\Maze\409_Maze_Test.nxc"
23	515	149	#line 515 "C:\Users\Lshi\Documents\Extracurriculars\Gov School\Robotics\GSET_Robotics\Maze\409_Maze_Test.nxc"
23	516	149		set __signed_stack_001calibration, 0
23	515	152	#line 515 "C:\Users\Lshi\Documents\Extracurriculars\Gov School\Robotics\GSET_Robotics\Maze\409_Maze_Test.nxc"
23	515	152	#line 515 "C:\Users\Lshi\Documents\Extracurriculars\Gov School\Robotics\GSET_Robotics\Maze\409_Maze_Test.nxc"
23	516	152		set __signed_stack_002calibration, 2
23	515	155	#line 515 "C:\Users\Lshi\Documents\Extracurriculars\Gov School\Robotics\GSET_Robotics\Maze\409_Maze_Test.nxc"
23	515	155	#line 515 "C:\Users\Lshi\Documents\Extracurriculars\Gov School\Robotics\GSET_Robotics\Maze\409_Maze_Test.nxc"
23	516	155		strcat __strbufcalibration, __constStr0012
23	516	159	#line 516 "C:\Users\Lshi\Documents\Extracurriculars\Gov School\Robotics\GSET_Robotics\Maze\409_Maze_Test.nxc"
23	517	159		acquire __TextOutMutex
23	516	160	#line 516 "C:\Users\Lshi\Documents\Extracurriculars\Gov School\Robotics\GSET_Robotics\Maze\409_Maze_Test.nxc"
23	517	160		mov __TextOutArgs.Location.X, __signed_stack_001calibration
23	516	163	#line 516 "C:\Users\Lshi\Documents\Extracurriculars\Gov School\Robotics\GSET_Robotics\Maze\409_Maze_Test.nxc"
23	517	163		mov __TextOutArgs.Location.Y, __signed_stack_002calibration
23	516	166	#line 516 "C:\Users\Lshi\Documents\Extracurriculars\Gov School\Robotics\GSET_Robotics\Maze\409_Maze_Test.nxc"
23	517	166		set __TextOutArgs.Options, 0
23	516	169	#line 516 "C:\Users\Lshi\Documents\Extracurriculars\Gov School\Robotics\GSET_Robotics\Maze\409_Maze_Test.nxc"
23	517	169		mov __TextOutArgs.Text, __strbufcalibration
23	516	171	#line 516 "C:\Users\Lshi\Documents\Extracurriculars\Gov School\Robotics\GSET_Robotics\Maze\409_Maze_Test.nxc"
23	517	171		syscall 13, __TextOutArgs
23	516	174	#line 516 "C:\Users\Lshi\Documents\Extracurriculars\Gov School\Robotics\GSET_Robotics\Maze\409_Maze_Test.nxc"
23	517	174		mov __D0calibration, __TextOutArgs.Result
23	516	177	#line 516 "C:\Users\Lshi\Documents\Extracurriculars\Gov School\Robotics\GSET_Robotics\Maze\409_Maze_Test.nxc"
23	517	177		release __TextOutMutex
23	516	178	#line 516 "C:\Users\Lshi\Documents\Extracurriculars\Gov School\Robotics\GSET_Robotics\Maze\409_Maze_Test.nxc"
23	516	178	#line 516 "C:\Users\Lshi\Documents\Extracurriculars\Gov School\Robotics\GSET_Robotics\Maze\409_Maze_Test.nxc"
23	517	178		set __Wait_7qG2_ms_7qG2_000_inline_calibration, 1000
23	516	181	#line 516 "C:\Users\Lshi\Documents\Extracurriculars\Gov School\Robotics\GSET_Robotics\Maze\409_Maze_Test.nxc"
23	7921	181	#line 7921 "NXCDefs.h"
23	7922	181		wait2 NA, __Wait_7qG2_ms_7qG2_000_inline_calibration
23	7921	184	#line 7921 "NXCDefs.h"
23	517	184	#line 517 "C:\Users\Lshi\Documents\Extracurriculars\Gov School\Robotics\GSET_Robotics\Maze\409_Maze_Test.nxc"
23	6069	184	#line 6069 "NXCDefs.h"
23	6070	184	#pragma macro 6
23	6070	184		acquire __PointOutMutex
23	6070	185		mov __PointOutArgs.Location.X, __constVal200
23	6070	188		mov __PointOutArgs.Location.Y, __constVal200
23	6070	191		mov __PointOutArgs.Options, __constVal1
23	6070	193		syscall 14, __PointOutArgs
23	6070	196		release __PointOutMutex
23	8875	197	#line 8875 "NXCDefs.h"
23	6069	197	#line 6069 "NXCDefs.h"
23	518	197	#line 518 "C:\Users\Lshi\Documents\Extracurriculars\Gov School\Robotics\GSET_Robotics\Maze\409_Maze_Test.nxc"
23	518	197	#line 518 "C:\Users\Lshi\Documents\Extracurriculars\Gov School\Robotics\GSET_Robotics\Maze\409_Maze_Test.nxc"
23	519	197		set __signed_stack_001calibration, 0
23	518	200	#line 518 "C:\Users\Lshi\Documents\Extracurriculars\Gov School\Robotics\GSET_Robotics\Maze\409_Maze_Test.nxc"
23	518	200	#line 518 "C:\Users\Lshi\Documents\Extracurriculars\Gov School\Robotics\GSET_Robotics\Maze\409_Maze_Test.nxc"
23	519	200		set __signed_stack_002calibration, 2
23	518	203	#line 518 "C:\Users\Lshi\Documents\Extracurriculars\Gov School\Robotics\GSET_Robotics\Maze\409_Maze_Test.nxc"
23	518	203	#line 518 "C:\Users\Lshi\Documents\Extracurriculars\Gov School\Robotics\GSET_Robotics\Maze\409_Maze_Test.nxc"
23	519	203		strcat __strbufcalibration, __constStr0013
23	519	207	#line 519 "C:\Users\Lshi\Documents\Extracurriculars\Gov School\Robotics\GSET_Robotics\Maze\409_Maze_Test.nxc"
23	520	207		acquire __TextOutMutex
23	519	208	#line 519 "C:\Users\Lshi\Documents\Extracurriculars\Gov School\Robotics\GSET_Robotics\Maze\409_Maze_Test.nxc"
23	520	208		mov __TextOutArgs.Location.X, __signed_stack_001calibration
23	519	211	#line 519 "C:\Users\Lshi\Documents\Extracurriculars\Gov School\Robotics\GSET_Robotics\Maze\409_Maze_Test.nxc"
23	520	211		mov __TextOutArgs.Location.Y, __signed_stack_002calibration
23	519	214	#line 519 "C:\Users\Lshi\Documents\Extracurriculars\Gov School\Robotics\GSET_Robotics\Maze\409_Maze_Test.nxc"
23	520	214		set __TextOutArgs.Options, 0
23	519	217	#line 519 "C:\Users\Lshi\Documents\Extracurriculars\Gov School\Robotics\GSET_Robotics\Maze\409_Maze_Test.nxc"
23	520	217		mov __TextOutArgs.Text, __strbufcalibration
23	519	219	#line 519 "C:\Users\Lshi\Documents\Extracurriculars\Gov School\Robotics\GSET_Robotics\Maze\409_Maze_Test.nxc"
23	520	219		syscall 13, __TextOutArgs
23	519	222	#line 519 "C:\Users\Lshi\Documents\Extracurriculars\Gov School\Robotics\GSET_Robotics\Maze\409_Maze_Test.nxc"
23	520	222		mov __D0calibration, __TextOutArgs.Result
23	519	225	#line 519 "C:\Users\Lshi\Documents\Extracurriculars\Gov School\Robotics\GSET_Robotics\Maze\409_Maze_Test.nxc"
23	520	225		release __TextOutMutex
23	519	226	#line 519 "C:\Users\Lshi\Documents\Extracurriculars\Gov School\Robotics\GSET_Robotics\Maze\409_Maze_Test.nxc"
23	519	226	#line 519 "C:\Users\Lshi\Documents\Extracurriculars\Gov School\Robotics\GSET_Robotics\Maze\409_Maze_Test.nxc"
23	520	226		set __Wait_7qG2_ms_7qG2_000_inline_calibration, 1000
23	519	229	#line 519 "C:\Users\Lshi\Documents\Extracurriculars\Gov School\Robotics\GSET_Robotics\Maze\409_Maze_Test.nxc"
23	7921	229	#line 7921 "NXCDefs.h"
23	7922	229		wait2 NA, __Wait_7qG2_ms_7qG2_000_inline_calibration
23	7921	232	#line 7921 "NXCDefs.h"
23	520	232	#line 520 "C:\Users\Lshi\Documents\Extracurriculars\Gov School\Robotics\GSET_Robotics\Maze\409_Maze_Test.nxc"
23	6069	232	#line 6069 "NXCDefs.h"
23	6070	232	#pragma macro 6
23	6070	232		acquire __PointOutMutex
23	6070	233		mov __PointOutArgs.Location.X, __constVal200
23	6070	236		mov __PointOutArgs.Location.Y, __constVal200
23	6070	239		mov __PointOutArgs.Options, __constVal1
23	6070	241		syscall 14, __PointOutArgs
23	6070	244		release __PointOutMutex
23	8920	245	#line 8920 "NXCDefs.h"
23	6069	245	#line 6069 "NXCDefs.h"
23	521	245	#line 521 "C:\Users\Lshi\Documents\Extracurriculars\Gov School\Robotics\GSET_Robotics\Maze\409_Maze_Test.nxc"
23	521	245	#line 521 "C:\Users\Lshi\Documents\Extracurriculars\Gov School\Robotics\GSET_Robotics\Maze\409_Maze_Test.nxc"
23	522	245		set __signed_stack_001calibration, 0
23	521	248	#line 521 "C:\Users\Lshi\Documents\Extracurriculars\Gov School\Robotics\GSET_Robotics\Maze\409_Maze_Test.nxc"
23	521	248	#line 521 "C:\Users\Lshi\Documents\Extracurriculars\Gov School\Robotics\GSET_Robotics\Maze\409_Maze_Test.nxc"
23	522	248		set __signed_stack_002calibration, 2
23	521	251	#line 521 "C:\Users\Lshi\Documents\Extracurriculars\Gov School\Robotics\GSET_Robotics\Maze\409_Maze_Test.nxc"
23	521	251	#line 521 "C:\Users\Lshi\Documents\Extracurriculars\Gov School\Robotics\GSET_Robotics\Maze\409_Maze_Test.nxc"
23	522	251		strcat __strbufcalibration, __constStr0014
23	522	255	#line 522 "C:\Users\Lshi\Documents\Extracurriculars\Gov School\Robotics\GSET_Robotics\Maze\409_Maze_Test.nxc"
23	523	255		acquire __TextOutMutex
23	522	256	#line 522 "C:\Users\Lshi\Documents\Extracurriculars\Gov School\Robotics\GSET_Robotics\Maze\409_Maze_Test.nxc"
23	523	256		mov __TextOutArgs.Location.X, __signed_stack_001calibration
23	522	259	#line 522 "C:\Users\Lshi\Documents\Extracurriculars\Gov School\Robotics\GSET_Robotics\Maze\409_Maze_Test.nxc"
23	523	259		mov __TextOutArgs.Location.Y, __signed_stack_002calibration
23	522	262	#line 522 "C:\Users\Lshi\Documents\Extracurriculars\Gov School\Robotics\GSET_Robotics\Maze\409_Maze_Test.nxc"
23	523	262		set __TextOutArgs.Options, 0
23	522	265	#line 522 "C:\Users\Lshi\Documents\Extracurriculars\Gov School\Robotics\GSET_Robotics\Maze\409_Maze_Test.nxc"
23	523	265		mov __TextOutArgs.Text, __strbufcalibration
23	522	267	#line 522 "C:\Users\Lshi\Documents\Extracurriculars\Gov School\Robotics\GSET_Robotics\Maze\409_Maze_Test.nxc"
23	523	267		syscall 13, __TextOutArgs
23	522	270	#line 522 "C:\Users\Lshi\Documents\Extracurriculars\Gov School\Robotics\GSET_Robotics\Maze\409_Maze_Test.nxc"
23	523	270		mov __D0calibration, __TextOutArgs.Result
23	522	273	#line 522 "C:\Users\Lshi\Documents\Extracurriculars\Gov School\Robotics\GSET_Robotics\Maze\409_Maze_Test.nxc"
23	523	273		release __TextOutMutex
23	522	274	#line 522 "C:\Users\Lshi\Documents\Extracurriculars\Gov School\Robotics\GSET_Robotics\Maze\409_Maze_Test.nxc"
23	522	274	#line 522 "C:\Users\Lshi\Documents\Extracurriculars\Gov School\Robotics\GSET_Robotics\Maze\409_Maze_Test.nxc"
23	523	274		set __Wait_7qG2_ms_7qG2_000_inline_calibration, 1000
23	522	277	#line 522 "C:\Users\Lshi\Documents\Extracurriculars\Gov School\Robotics\GSET_Robotics\Maze\409_Maze_Test.nxc"
23	7921	277	#line 7921 "NXCDefs.h"
23	7922	277		wait2 NA, __Wait_7qG2_ms_7qG2_000_inline_calibration
23	7921	280	#line 7921 "NXCDefs.h"
23	523	280	#line 523 "C:\Users\Lshi\Documents\Extracurriculars\Gov School\Robotics\GSET_Robotics\Maze\409_Maze_Test.nxc"
23	6069	280	#line 6069 "NXCDefs.h"
23	6070	280	#pragma macro 6
23	6070	280		acquire __PointOutMutex
23	6070	281		mov __PointOutArgs.Location.X, __constVal200
23	6070	284		mov __PointOutArgs.Location.Y, __constVal200
23	6070	287		mov __PointOutArgs.Options, __constVal1
23	6070	289		syscall 14, __PointOutArgs
23	6070	292		release __PointOutMutex
23	8965	293	#line 8965 "NXCDefs.h"
23	6069	293	#line 6069 "NXCDefs.h"
23	524	293	#line 524 "C:\Users\Lshi\Documents\Extracurriculars\Gov School\Robotics\GSET_Robotics\Maze\409_Maze_Test.nxc"
23	526	293	#line 526 "C:\Users\Lshi\Documents\Extracurriculars\Gov School\Robotics\GSET_Robotics\Maze\409_Maze_Test.nxc"
23	527	293		subret __calibration_return
24	527	0	#line 527 "C:\Users\Lshi\Documents\Extracurriculars\Gov School\Robotics\GSET_Robotics\Maze\409_Maze_Test.nxc"
24	528	0		subret ____initialize_global_data_return
#CLUMPS
Clump	Name	Offset	File
0	main	0	C:\Users\Lshi\Documents\Extracurriculars\Gov School\Robotics\GSET_Robotics\Maze\409_Maze_Test.nxc
1	__RotateMotor1	134	NXTDefs.h
2	__RotateMotor4	303	NXTDefs.h
3	__RotateMotor6	472	NXTDefs.h
4	__RotateMotorVar	641	NXTDefs.h
5	__ResetSensorSubroutine	685	NXTDefs.h
6	__ReadLSBytes1	698	NXTDefs.h
7	__ReadLSBytes2	785	NXTDefs.h
8	__ReadLSBytesVar	874	NXTDefs.h
9	lineFollow	976	C:\Users\Lshi\Documents\Extracurriculars\Gov School\Robotics\GSET_Robotics\Maze\409_Maze_Test.nxc
10	color	1384	C:\Users\Lshi\Documents\Extracurriculars\Gov School\Robotics\GSET_Robotics\Maze\409_Maze_Test.nxc
11	mazeNav	1540	C:\Users\Lshi\Documents\Extracurriculars\Gov School\Robotics\GSET_Robotics\Maze\409_Maze_Test.nxc
12	turnHeadTo	2291	C:\Users\Lshi\Documents\Extracurriculars\Gov School\Robotics\GSET_Robotics\Maze\409_Maze_Test.nxc
13	driveUpToNotWall	2334	C:\Users\Lshi\Documents\Extracurriculars\Gov School\Robotics\GSET_Robotics\Maze\409_Maze_Test.nxc
14	driveUpToWall	2414	C:\Users\Lshi\Documents\Extracurriculars\Gov School\Robotics\GSET_Robotics\Maze\409_Maze_Test.nxc
15	doubleWheelTurn	2580	C:\Users\Lshi\Documents\Extracurriculars\Gov School\Robotics\GSET_Robotics\Maze\409_Maze_Test.nxc
16	singleWheelTurn	2718	C:\Users\Lshi\Documents\Extracurriculars\Gov School\Robotics\GSET_Robotics\Maze\409_Maze_Test.nxc
17	turnCheck	2767	C:\Users\Lshi\Documents\Extracurriculars\Gov School\Robotics\GSET_Robotics\Maze\409_Maze_Test.nxc
18	ballFind	2813	C:\Users\Lshi\Documents\Extracurriculars\Gov School\Robotics\GSET_Robotics\Maze\409_Maze_Test.nxc
19	HTEnhancedIRSeekerV2	2855	C:\Users\Lshi\Documents\Extracurriculars\Gov School\Robotics\GSET_Robotics\Maze\409_Maze_Test.nxc
20	ballCatch	3297	C:\Users\Lshi\Documents\Extracurriculars\Gov School\Robotics\GSET_Robotics\Maze\409_Maze_Test.nxc
21	switchDir	3559	C:\Users\Lshi\Documents\Extracurriculars\Gov School\Robotics\GSET_Robotics\Maze\409_Maze_Test.nxc
22	displayNum	3661	C:\Users\Lshi\Documents\Extracurriculars\Gov School\Robotics\GSET_Robotics\Maze\409_Maze_Test.nxc
23	calibration	3729	C:\Users\Lshi\Documents\Extracurriculars\Gov School\Robotics\GSET_Robotics\Maze\409_Maze_Test.nxc
24	__initialize_global_data	4024	C:\Users\Lshi\Documents\Extracurriculars\Gov School\Robotics\GSET_Robotics\Maze\409_Maze_Test.nxc
