#SYMBOLS
Index	Identifier	Type	Flag	Data	Size	RefCount
0	__D0driveUpToWall	6	1	0	4	6
1	__D0driveUpToNotWall	6	1	4	4	6
2	__D0ballFind	6	1	8	4	6
3	__D0turnCheck	6	1	12	4	10
4	__DF0singleWheelTurn	10	1	16	4	2
5	__D0mazeNav	6	1	20	4	12
6	__RLSBmutex1	9	0	24	4	2
7	__ResetSensorMutex	9	0	28	4	2
8	__rotate_theAngle6	5	1	32	4	2
9	__rotate_angle6	6	1	36	4	5
10	__CLSRMutex1	9	0	40	4	2
11	__CLSWMutex1	9	0	44	4	2
12	__CLSCSMutex1	9	0	48	4	2
13	__D0turnHeadTo	6	1	52	4	4
14	__Wait_7qG2_ms_7qG2_000_inline_mazeNav	5	1	56	4	2
15	__signed_stack_001turnHeadTo	6	1	60	4	4
16	__signed_stack_001turnCheck	6	1	64	4	2
17	__Wait_7qG2_ms_7qG2_000_inline_singleWheelTurn	5	1	68	4	2
18	__constValf4P8	10	0	72	4	1
19	__turnHeadTo_7qG2_delta_7qG2_000	6	1	76	4	2
20	__signed_stack_002singleWheelTurn	6	1	80	4	2
21	__signed_stack_001driveUpToNotWall	6	1	84	4	4
22	__DU0SetSensorLowspeed_inline_SetSensorUltrasonic	5	1	88	4	2
23	__D0SetSensorLowspeed_inline_SetSensorUltrasonic	6	1	92	4	3
24	__signed_stack_001singleWheelTurn	6	1	96	4	2
25	__signed_stack_001mazeNav	6	1	100	4	2
26	__signed_stack_001driveUpToWall	6	1	104	4	4
27	__rotateMutex0	9	0	108	4	2
28	__rotate_theAngle1	5	1	112	4	2
29	__rotateMutex1	9	0	116	4	4
30	__rotate_angle1	6	1	120	4	5
31	__rotateMutex2	9	0	124	4	2
32	__rotate_OldRotCount1	4	1	128	2	2
33	__driveUpToNotWall_7qG2_look2_7qG2_000	4	1	130	2	2
34	__rotate_OldRotCount6	4	1	132	2	2
35	__rotate_RotCount6	4	1	134	2	4
36	__driveUpToWall_7qG2_look_7qG2_000	4	1	136	2	6
37	__turnHeadTo_7qG2_degrees_7qG2_000	4	1	138	2	3
38	dir	4	0	140	2	3
39	__singleWheelTurn_7qG2_degrees_7qG2_000	4	1	142	2	9
40	__rotate_RotCount1	4	1	144	2	4
41	__rotate_theUF1	1	1	146	1	6
42	__zfturnCheck	1	1	147	1	3
43	__PFTmp	1	1	148	1	1
44	__constVal2	2	0	149	1	5
45	__rotate_sync1	1	1	150	1	2
46	__zfSetSensorLowspeed_inline_SetSensorUltrasonic	1	1	151	1	2
47	__rotate_turnpct1	2	1	152	1	3
48	__rotate_stop1	1	1	153	1	2
49	__constVal7	2	0	154	1	5
50	__zfdriveUpToWall	1	1	155	1	2
51	__rotate_theRS1	1	1	156	1	3
52	__zfmazeNav	1	1	157	1	5
53	__rotate_theRM1	1	1	158	1	4
54	__rotate_theRVP1	1	1	159	1	2
55	__rotate_theRVI1	1	1	160	1	2
56	__rotate_theOM1	1	1	161	1	7
57	__zfdriveUpToNotWall	1	1	162	1	2
58	__rotate_firstPort1	1	1	163	1	5
59	__SetSensorType_7qG2_type_7qG2_000_inline_SetSensorLowspeed_inline_SetSensorUltrasonic_inline_main	1	1	164	1	2
60	__SetSensorMode_7qG2_port_7qG2_000_inline_SetSensorLowspeed_inline_SetSensorUltrasonic_inline_main	1	1	165	1	2
61	__SetSensorLowspeed_7qG2_bIsPowered_7qG2_000_inline_SetSensorUltrasonic_inline_main	1	1	166	1	2
62	__SetSensorType_7qG2_port_7qG2_000_inline_SetSensorLowspeed_inline_SetSensorUltrasonic_inline_main	1	1	167	1	2
63	__SetSensorMode_7qG2_mode_7qG2_000_inline_SetSensorLowspeed_inline_SetSensorUltrasonic_inline_main	1	1	168	1	2
64	__constVal96	2	0	169	1	7
65	__constVal63	2	0	170	1	5
66	__ResetSensor_7qG2_port_7qG2_000_inline_SetSensorLowspeed_inline_SetSensorUltrasonic_inline_main	1	1	171	1	2
67	__turnCheck_return	1	1	172	1	6
68	__SetSensorLowspeed_7qG2_port_7qG2_000_inline_SetSensorUltrasonic_inline_main	1	1	173	1	4
69	__rotate_power1	1	1	174	1	4
70	__constValNeg90	2	0	175	1	2
71	__turnHeadTo_return	1	1	176	1	4
72	__driveUpToNotWall_return	1	1	177	1	3
73	__ballFind_return	1	1	178	1	8
74	__driveUpToWall_return	1	1	179	1	7
75	____initialize_global_data_return	1	1	180	1	3
76	__singleWheelTurn_return	1	1	181	1	10
77	__singleWheelTurn_7qG2_motor_7qG2_000	1	1	182	1	9
78	__rotate_thePower6	2	1	183	1	4
79	__rotate_theTurnPct6	2	1	184	1	4
80	__rotate_rs6	1	1	185	1	10
81	__rotate_theRVI6	1	1	186	1	2
82	__rotate_theRVD6	1	1	187	1	2
83	__constVal32	2	0	188	1	23
84	____RotateMotor1_return	1	1	189	1	3
85	____RotateMotor1_sign_tmp	2	1	190	1	4
86	__constVal50	2	0	191	1	2
87	__constVal1	2	0	192	1	13
88	__constVal0	2	1	193	1	22
89	__rotate_theRVP6	1	1	194	1	2
90	__rotate_firstPort6	1	1	195	1	5
91	__rotate_sync6	1	1	196	1	2
92	__constVal60	2	0	197	1	2
93	__rotate_power6	1	1	198	1	4
94	__rotate_theTurnPct1	2	1	199	1	4
95	__rotate_stop6	1	1	200	1	2
96	__rotate_theRM6	1	1	201	1	4
97	__rotate_theRS6	1	1	202	1	3
98	__rotate_theOM6	1	1	203	1	7
99	__rotate_turnpct6	2	1	204	1	3
100	__rotate_theUF6	1	1	205	1	6
101	____RotateMotor6_return	1	1	206	1	3
102	__RLSBytesCount1	1	1	207	1	7
103	__RLSBResult1	2	1	208	1	7
104	____ResetSensorSubroutine_return	1	1	209	1	3
105	__RLSBIterations1	1	1	210	1	4
106	__constVal15	2	0	211	1	3
107	____ReadLSBytes1_return	1	1	212	1	3
108	__rotate_rs1	1	1	213	1	2
109	__rotate_theRVD1	1	1	214	1	2
110	__ResetSensorTmp	1	1	215	1	2
111	__constVal3	2	0	216	1	2
112	__constVal6	2	0	217	1	1
113	____RotateMotor6_sign_tmp	2	1	218	1	4
114	____RotateMotorVar_return	1	1	219	1	3
115	__rotate_thePower1	2	1	220	1	4
116	__ResetSensorPort	1	1	221	1	3
117	__constVal4	2	0	222	1	1
118	__constVal5	2	0	223	1	1
119	__CLSWArgs1	8	0	4	12	5
120	__CLSWArgs1.Result	2	1	224	1	5
121	__CLSWArgs1.Port	1	1	225	1	5
122	__CLSWArgs1.Buffer	7	0	226	4	5
123	__CLSWArgs1.Buffer.Buffer_type	1	0	0	1	0
124	__CLSWArgs1.ReturnLen	1	1	228	1	5
125	__CLSCSArgs1	8	0	3	4	4
126	__CLSCSArgs1.Result	2	1	232	1	4
127	__CLSCSArgs1.Port	1	1	233	1	4
128	__CLSCSArgs1.BytesReady	1	1	234	1	4
129	__CLSRArgs1	8	0	4	12	5
130	__CLSRArgs1.Result	2	1	236	1	5
131	__CLSRArgs1.Port	1	1	237	1	5
132	__CLSRArgs1.Buffer	7	0	238	4	5
133	__CLSRArgs1.Buffer.Buffer_type	1	0	0	1	0
134	__CLSRArgs1.BufferLen	1	1	240	1	5
135	__OUT_BC	7	0	242	4	1
136	__OUT_BC.__OUT_BC_type	1	0	0	1	0
137	__OUT_AB	7	0	244	4	1
138	__OUT_AB.__OUT_AB_type	1	0	0	1	0
139	__OUT_AC	7	0	246	4	6
140	__OUT_AC.__OUT_AC_type	1	0	0	1	0
141	__OUT_ABC	7	0	248	4	1
142	__OUT_ABC.__OUT_ABC_type	1	0	0	1	0
143	__RLSBbufLSWrite1	7	0	250	4	1
144	__RLSBbufLSWrite1.__RLSBbufLSWrite1_type	1	0	0	1	0
145	__rotate_ports6	7	0	252	4	12
146	__rotate_ports6.__rotate_ports6_type	1	0	0	1	0
147	__RLSLastGoodRead1	7	0	254	4	2
148	__RLSLastGoodRead1.__RLSLastGoodRead1_type	1	0	0	1	0
149	__rotate_ports1	7	0	256	4	6
150	__rotate_ports1.__rotate_ports1_type	1	0	0	1	0
151	__RLSReadBuf1	7	0	258	4	8
152	__RLSReadBuf1.__RLSReadBuf1_type	1	0	0	1	0
#SOURCES
Clump	Line	PC	Source
0	43	0	#line 43 "C:\Users\Lshi\Documents\Extracurriculars\Gov School\Robotics\GSET_Robotics\Maze\409_Maze_Test.nxc"
0	44	0		subcall __initialize_global_data, ____initialize_global_data_return
0	43	2	#line 43 "C:\Users\Lshi\Documents\Extracurriculars\Gov School\Robotics\GSET_Robotics\Maze\409_Maze_Test.nxc"
0	43	2	#line 43 "C:\Users\Lshi\Documents\Extracurriculars\Gov School\Robotics\GSET_Robotics\Maze\409_Maze_Test.nxc"
0	43	2	#line 43 "C:\Users\Lshi\Documents\Extracurriculars\Gov School\Robotics\GSET_Robotics\Maze\409_Maze_Test.nxc"
0	3768	2	#line 3768 "NXCDefs.h"
0	3769	2		mov __SetSensorLowspeed_7qG2_port_7qG2_000_inline_SetSensorUltrasonic_inline_main, __constVal1
0	3768	4	#line 3768 "NXCDefs.h"
0	3768	4	#line 3768 "NXCDefs.h"
0	3769	4		mov __SetSensorLowspeed_7qG2_bIsPowered_7qG2_000_inline_SetSensorUltrasonic_inline_main, __constVal1
0	3758	6	#line 3758 "NXCDefs.h"
0	3759	6		mov __SetSensorType_7qG2_port_7qG2_000_inline_SetSensorLowspeed_inline_SetSensorUltrasonic_inline_main, __SetSensorLowspeed_7qG2_port_7qG2_000_inline_SetSensorUltrasonic_inline_main
0	3758	8	#line 3758 "NXCDefs.h"
0	3758	8	#line 3758 "NXCDefs.h"
0	3759	8		mov __DU0SetSensorLowspeed_inline_SetSensorUltrasonic, __SetSensorLowspeed_7qG2_bIsPowered_7qG2_000_inline_SetSensorUltrasonic_inline_main
0	3758	10	#line 3758 "NXCDefs.h"
0	3759	10		tst 5, __zfSetSensorLowspeed_inline_SetSensorUltrasonic, __DU0SetSensorLowspeed_inline_SetSensorUltrasonic
0	3758	13	#line 3758 "NXCDefs.h"
0	3759	13		brtst 4, __001__001__NXC_Label_36, __zfSetSensorLowspeed_inline_SetSensorUltrasonic
0	3758	16	#line 3758 "NXCDefs.h"
0	3759	16		set __D0SetSensorLowspeed_inline_SetSensorUltrasonic, 11
0	3758	19	#line 3758 "NXCDefs.h"
0	3759	19		jmp __001__001__NXC_Label_37
0	3758	21	#line 3758 "NXCDefs.h"
0	3759	21		set __D0SetSensorLowspeed_inline_SetSensorUltrasonic, 10
0	3758	24	#line 3758 "NXCDefs.h"
0	3759	24		mov __SetSensorType_7qG2_type_7qG2_000_inline_SetSensorLowspeed_inline_SetSensorUltrasonic_inline_main, __D0SetSensorLowspeed_inline_SetSensorUltrasonic
0	3663	26	#line 3663 "NXCDefs.h"
0	3664	26		setin __SetSensorType_7qG2_type_7qG2_000_inline_SetSensorLowspeed_inline_SetSensorUltrasonic_inline_main, __SetSensorType_7qG2_port_7qG2_000_inline_SetSensorLowspeed_inline_SetSensorUltrasonic_inline_main, 0
0	3663	30	#line 3663 "NXCDefs.h"
0	3759	30	#line 3759 "NXCDefs.h"
0	3759	30	#line 3759 "NXCDefs.h"
0	3760	30		mov __SetSensorMode_7qG2_port_7qG2_000_inline_SetSensorLowspeed_inline_SetSensorUltrasonic_inline_main, __SetSensorLowspeed_7qG2_port_7qG2_000_inline_SetSensorUltrasonic_inline_main
0	3759	32	#line 3759 "NXCDefs.h"
0	3759	32	#line 3759 "NXCDefs.h"
0	3760	32		set __SetSensorMode_7qG2_mode_7qG2_000_inline_SetSensorLowspeed_inline_SetSensorUltrasonic_inline_main, 0
0	3759	35	#line 3759 "NXCDefs.h"
0	3676	35	#line 3676 "NXCDefs.h"
0	3677	35		setin __SetSensorMode_7qG2_mode_7qG2_000_inline_SetSensorLowspeed_inline_SetSensorUltrasonic_inline_main, __SetSensorMode_7qG2_port_7qG2_000_inline_SetSensorLowspeed_inline_SetSensorUltrasonic_inline_main, 1
0	3676	39	#line 3676 "NXCDefs.h"
0	3760	39	#line 3760 "NXCDefs.h"
0	3760	39	#line 3760 "NXCDefs.h"
0	3761	39		mov __ResetSensor_7qG2_port_7qG2_000_inline_SetSensorLowspeed_inline_SetSensorUltrasonic_inline_main, __SetSensorLowspeed_7qG2_port_7qG2_000_inline_SetSensorUltrasonic_inline_main
0	3760	41	#line 3760 "NXCDefs.h"
0	3694	41	#line 3694 "NXCDefs.h"
0	3695	41	#pragma macro 4
0	3695	41		acquire __ResetSensorMutex
0	3695	42		mov __ResetSensorPort, __ResetSensor_7qG2_port_7qG2_000_inline_SetSensorLowspeed_inline_SetSensorUltrasonic_inline_main
0	3695	44		subcall __ResetSensorSubroutine, ____ResetSensorSubroutine_return
0	3695	46		release __ResetSensorMutex
0	4595	47	#line 4595 "NXCDefs.h"
0	3694	47	#line 3694 "NXCDefs.h"
0	3761	47	#line 3761 "NXCDefs.h"
0	3768	47	#line 3768 "NXCDefs.h"
0	44	47	#line 44 "C:\Users\Lshi\Documents\Extracurriculars\Gov School\Robotics\GSET_Robotics\Maze\409_Maze_Test.nxc"
0	45	47	#line 45 "C:\Users\Lshi\Documents\Extracurriculars\Gov School\Robotics\GSET_Robotics\Maze\409_Maze_Test.nxc"
0	45	47	#line 45 "C:\Users\Lshi\Documents\Extracurriculars\Gov School\Robotics\GSET_Robotics\Maze\409_Maze_Test.nxc"
0	46	47		exit 0, 0
1	4529	0		brtst 4, __rotate_Done1, __rotate_angle1
1	4530	3		set ____RotateMotor1_sign_tmp, 0
1	4530	6		brtst EQ, __sign_1, __rotate_angle1
1	4530	9		set ____RotateMotor1_sign_tmp, -1
1	4530	12		brtst LT, __sign_1, __rotate_angle1
1	4530	15		set ____RotateMotor1_sign_tmp, 1
1	4530	18	__sign_1:	mov __rotate_thePower1, ____RotateMotor1_sign_tmp
1	4531	20		abs __rotate_theAngle1, __rotate_angle1
1	4532	23		mul __rotate_thePower1, __rotate_thePower1, __rotate_power1
1	4534	27		set __rotate_theUF1, 23
1	4535	30		brtst 4, __rotate_NoSync1, __rotate_sync1
1	4536	33		set __rotate_theOM1, 7
1	4537	36		set __rotate_theRM1, 2
1	4538	39		mov __rotate_theTurnPct1, __rotate_turnpct1
1	4539	41		brtst 4, __rotate_Start1, __rotate_theTurnPct1
1	4540	44		add __rotate_theUF1, __rotate_theUF1, __constVal32
1	4541	48		jmp __rotate_Start1
1	4543	50		set __rotate_theOM1, 3
1	4544	53		set __rotate_theRM1, 0
1	4545	56		set __rotate_theTurnPct1, 0
1	4547	59		set __rotate_theRS1, 32
1	4548	62		setout __rotate_ports1, 1, __rotate_theOM1, 8, __rotate_theRM1, 5, __rotate_theAngle1, 6, __rotate_theRS1, 10, __rotate_theRVP1, 11, __rotate_theRVI1, 12, __rotate_theRVD1, 2, __rotate_thePower1, 7, __rotate_turnpct1, 0, __rotate_theUF1
1	4551	85		index __rotate_firstPort1, __rotate_ports1, 65535
1	4553	89		getout __rotate_power1, __rotate_firstPort1, 2
1	4554	93		brtst 4, __rotate_doneRunning1, __rotate_power1
1	4555	96		getout __rotate_rs1, __rotate_firstPort1, 6
1	4556	100		brcmp 4, __rotate_Running1, __rotate_rs1, __constVal32
1	4558	104		brtst 4, __rotate_Reset1, __rotate_stop1
1	4560	107		set __rotate_theOM1, 7
1	4561	110		set __rotate_theUF1, 7
1	4562	113		setout __rotate_ports1, 1, __rotate_theOM1, 8, __constVal1, 6, __rotate_theRS1, 2, __constVal0, 5, __constVal0, 0, __rotate_theUF1
1	4564	128		getout __rotate_RotCount1, __rotate_firstPort1, 14
1	4566	132		mov __rotate_OldRotCount1, __rotate_RotCount1
1	4567	134		wait2 NA, __constVal50
1	4569	137		getout __rotate_RotCount1, __rotate_firstPort1, 14
1	4570	141		brcmp 5, __rotate_Stabilize1, __rotate_OldRotCount1, __rotate_RotCount1
1	4571	145		set __rotate_theOM1, 4
1	4572	148		setout __rotate_ports1, 8, __rotate_theRM1, 6, __constVal0, 1, __rotate_theOM1, 0, __constVal1
1	4575	159		brtst 4, __rotate_Done1, __rotate_theTurnPct1
1	4576	162		setout __rotate_ports1, 0, __constVal32
1	4578	167		subret ____RotateMotor1_return
2	4794	0		brtst 4, __rotate_Done6, __rotate_angle6
2	4795	3		set ____RotateMotor6_sign_tmp, 0
2	4795	6		brtst EQ, __sign_6, __rotate_angle6
2	4795	9		set ____RotateMotor6_sign_tmp, -1
2	4795	12		brtst LT, __sign_6, __rotate_angle6
2	4795	15		set ____RotateMotor6_sign_tmp, 1
2	4795	18	__sign_6:	mov __rotate_thePower6, ____RotateMotor6_sign_tmp
2	4796	20		abs __rotate_theAngle6, __rotate_angle6
2	4797	23		mul __rotate_thePower6, __rotate_thePower6, __rotate_power6
2	4799	27		set __rotate_theUF6, 23
2	4800	30		brtst 4, __rotate_NoSync6, __rotate_sync6
2	4801	33		set __rotate_theOM6, 7
2	4802	36		set __rotate_theRM6, 2
2	4803	39		mov __rotate_theTurnPct6, __rotate_turnpct6
2	4804	41		brtst 4, __rotate_Start6, __rotate_theTurnPct6
2	4805	44		add __rotate_theUF6, __rotate_theUF6, __constVal32
2	4806	48		jmp __rotate_Start6
2	4808	50		set __rotate_theOM6, 3
2	4809	53		set __rotate_theRM6, 0
2	4810	56		set __rotate_theTurnPct6, 0
2	4812	59		set __rotate_theRS6, 32
2	4813	62		setout __rotate_ports6, 1, __rotate_theOM6, 8, __rotate_theRM6, 5, __rotate_theAngle6, 6, __rotate_theRS6, 10, __rotate_theRVP6, 11, __rotate_theRVI6, 12, __rotate_theRVD6, 2, __rotate_thePower6, 7, __rotate_turnpct6, 0, __rotate_theUF6
2	4816	85		index __rotate_firstPort6, __rotate_ports6, 65535
2	4818	89		getout __rotate_power6, __rotate_firstPort6, 2
2	4819	93		brtst 4, __rotate_doneRunning6, __rotate_power6
2	4820	96		getout __rotate_rs6, __rotate_firstPort6, 6
2	4821	100		brcmp 4, __rotate_Running6, __rotate_rs6, __constVal32
2	4823	104		brtst 4, __rotate_Reset6, __rotate_stop6
2	4825	107		set __rotate_theOM6, 7
2	4826	110		set __rotate_theUF6, 7
2	4827	113		setout __rotate_ports6, 1, __rotate_theOM6, 8, __constVal1, 6, __rotate_theRS6, 2, __constVal0, 5, __constVal0, 0, __rotate_theUF6
2	4829	128		getout __rotate_RotCount6, __rotate_firstPort6, 14
2	4831	132		mov __rotate_OldRotCount6, __rotate_RotCount6
2	4832	134		wait2 NA, __constVal50
2	4834	137		getout __rotate_RotCount6, __rotate_firstPort6, 14
2	4835	141		brcmp 5, __rotate_Stabilize6, __rotate_OldRotCount6, __rotate_RotCount6
2	4836	145		set __rotate_theOM6, 4
2	4837	148		setout __rotate_ports6, 8, __rotate_theRM6, 6, __constVal0, 1, __rotate_theOM6, 0, __constVal1
2	4840	159		brtst 4, __rotate_Done6, __rotate_theTurnPct6
2	4841	162		setout __rotate_ports6, 0, __constVal32
2	4843	167		subret ____RotateMotor6_return
3	4854	0		arrsize __rotate_rs6, __rotate_ports6
3	4855	3		brcmp 1, __rmvCallSub, __rotate_rs6, __constVal1
3	4857	7		index __rotate_rs6, __rotate_ports6, 65535
3	4858	11		brcmp 0, __rmvCallSub, __rotate_rs6, __constVal3
3	4859	15		brcmp 1, __rmvExit, __rotate_rs6, __constVal6
3	4861	19		mov __rotate_ports6, __OUT_AB
3	4862	21		brcmp 4, __rmvCallSub, __rotate_rs6, __constVal3
3	4863	25		mov __rotate_ports6, __OUT_AC
3	4864	27		brcmp 4, __rmvCallSub, __rotate_rs6, __constVal4
3	4865	31		mov __rotate_ports6, __OUT_BC
3	4866	33		brcmp 4, __rmvCallSub, __rotate_rs6, __constVal5
3	4867	37		mov __rotate_ports6, __OUT_ABC
3	4869	39		subcall __RotateMotor6, ____RotateMotor6_return
3	4871	41		subret ____RotateMotorVar_return
4	4885	0		setin __constVal1, __ResetSensorPort, 5
4	4887	4		getin __ResetSensorTmp, __ResetSensorPort, 5
4	4888	8		brtst 5, __SensorStillInvalid, __ResetSensorTmp
4	4889	11		subret ____ResetSensorSubroutine_return
5	5710	0	#pragma macro 25
5	5710	0		acquire __CLSWMutex1
5	5710	1		set __CLSWArgs1.Port, 1
5	5710	4		mov __CLSWArgs1.ReturnLen, __RLSBytesCount1
5	5710	6		mov __CLSWArgs1.Buffer, __RLSReadBuf1
5	5710	8		syscall 21, __CLSWArgs1
5	5710	11		mov __RLSBResult1, __CLSWArgs1.Result
5	5710	13		release __CLSWMutex1
5	5710	14	#line 5710 "NXTDefs.h"
5	5711	14		brtst 4, __RLSBReturn1, __RLSBytesCount1
5	5712	17		arrinit __RLSReadBuf1, __constVal0, __RLSBytesCount1
5	5713	21		brtst 5, __RLSBError1, __RLSBResult1
5	5714	24		set __RLSBIterations1, 4
5	5716	27	#pragma macro 23
5	5716	27		acquire __CLSCSMutex1
5	5716	28		set __CLSCSArgs1.Port, 1
5	5716	31		syscall 23, __CLSCSArgs1
5	5716	34		mov __RLSBytesCount1, __CLSCSArgs1.BytesReady
5	5716	36		mov __RLSBResult1, __CLSCSArgs1.Result
5	5716	38		release __CLSCSMutex1
5	5716	39	#line 5716 "NXTDefs.h"
5	5717	39		sub __RLSBIterations1, __RLSBIterations1, __constVal1
5	5718	43		brtst 2, __RLSBError1, __RLSBIterations1
5	5719	46		brtst 0, __RLSBError1, __RLSBResult1
5	5720	49		brtst 4, __RLSBReadyToRead1, __RLSBResult1
5	5722	52		wait2 NA, __constVal15
5	5723	55		jmp __RLSBDoCheckStatus1
5	5726	57	#pragma macro 25
5	5726	57		acquire __CLSRMutex1
5	5726	58		set __CLSRArgs1.Port, 1
5	5726	61		mov __CLSRArgs1.BufferLen, __RLSBytesCount1
5	5726	63		syscall 22, __CLSRArgs1
5	5726	66		mov __RLSReadBuf1, __CLSRArgs1.Buffer
5	5726	68		mov __RLSBResult1, __CLSRArgs1.Result
5	5726	70		release __CLSRMutex1
5	5726	71	#line 5726 "NXTDefs.h"
5	5727	71		brtst 5, __RLSBError1, __RLSBResult1
5	5728	74		mov __RLSLastGoodRead1, __RLSReadBuf1
5	5729	76		jmp __RLSBDone1
5	5731	78		mov __RLSReadBuf1, __RLSLastGoodRead1
5	5733	80		arrsize __RLSBytesCount1, __RLSReadBuf1
5	5735	83		subret ____ReadLSBytes1_return
6	69	0	#line 69 "C:\Users\Lshi\Documents\Extracurriculars\Gov School\Robotics\GSET_Robotics\Maze\409_Maze_Test.nxc"
6	70	0		mov __driveUpToWall_7qG2_look_7qG2_000, __constVal0
6	69	2	#line 69 "C:\Users\Lshi\Documents\Extracurriculars\Gov School\Robotics\GSET_Robotics\Maze\409_Maze_Test.nxc"
6	70	2		subcall driveUpToWall, __driveUpToWall_return
6	69	4	#line 69 "C:\Users\Lshi\Documents\Extracurriculars\Gov School\Robotics\GSET_Robotics\Maze\409_Maze_Test.nxc"
6	69	4	#line 69 "C:\Users\Lshi\Documents\Extracurriculars\Gov School\Robotics\GSET_Robotics\Maze\409_Maze_Test.nxc"
6	70	4		set __singleWheelTurn_7qG2_motor_7qG2_000, 0
6	69	7	#line 69 "C:\Users\Lshi\Documents\Extracurriculars\Gov School\Robotics\GSET_Robotics\Maze\409_Maze_Test.nxc"
6	69	7	#line 69 "C:\Users\Lshi\Documents\Extracurriculars\Gov School\Robotics\GSET_Robotics\Maze\409_Maze_Test.nxc"
6	70	7		set __singleWheelTurn_7qG2_degrees_7qG2_000, 90
6	69	10	#line 69 "C:\Users\Lshi\Documents\Extracurriculars\Gov School\Robotics\GSET_Robotics\Maze\409_Maze_Test.nxc"
6	70	10	#line 70 "C:\Users\Lshi\Documents\Extracurriculars\Gov School\Robotics\GSET_Robotics\Maze\409_Maze_Test.nxc"
6	71	10		subcall singleWheelTurn, __singleWheelTurn_return
6	70	12	#line 70 "C:\Users\Lshi\Documents\Extracurriculars\Gov School\Robotics\GSET_Robotics\Maze\409_Maze_Test.nxc"
6	71	12	#line 71 "C:\Users\Lshi\Documents\Extracurriculars\Gov School\Robotics\GSET_Robotics\Maze\409_Maze_Test.nxc"
6	72	12		mov __driveUpToWall_7qG2_look_7qG2_000, __constVal0
6	71	14	#line 71 "C:\Users\Lshi\Documents\Extracurriculars\Gov School\Robotics\GSET_Robotics\Maze\409_Maze_Test.nxc"
6	72	14		subcall driveUpToWall, __driveUpToWall_return
6	71	16	#line 71 "C:\Users\Lshi\Documents\Extracurriculars\Gov School\Robotics\GSET_Robotics\Maze\409_Maze_Test.nxc"
6	71	16	#line 71 "C:\Users\Lshi\Documents\Extracurriculars\Gov School\Robotics\GSET_Robotics\Maze\409_Maze_Test.nxc"
6	72	16		set __singleWheelTurn_7qG2_motor_7qG2_000, 2
6	71	19	#line 71 "C:\Users\Lshi\Documents\Extracurriculars\Gov School\Robotics\GSET_Robotics\Maze\409_Maze_Test.nxc"
6	71	19	#line 71 "C:\Users\Lshi\Documents\Extracurriculars\Gov School\Robotics\GSET_Robotics\Maze\409_Maze_Test.nxc"
6	72	19		set __singleWheelTurn_7qG2_degrees_7qG2_000, 90
6	71	22	#line 71 "C:\Users\Lshi\Documents\Extracurriculars\Gov School\Robotics\GSET_Robotics\Maze\409_Maze_Test.nxc"
6	72	22	#line 72 "C:\Users\Lshi\Documents\Extracurriculars\Gov School\Robotics\GSET_Robotics\Maze\409_Maze_Test.nxc"
6	73	22		subcall singleWheelTurn, __singleWheelTurn_return
6	72	24	#line 72 "C:\Users\Lshi\Documents\Extracurriculars\Gov School\Robotics\GSET_Robotics\Maze\409_Maze_Test.nxc"
6	72	24	#line 72 "C:\Users\Lshi\Documents\Extracurriculars\Gov School\Robotics\GSET_Robotics\Maze\409_Maze_Test.nxc"
6	73	24		subcall ballFind, __ballFind_return
6	72	26	#line 72 "C:\Users\Lshi\Documents\Extracurriculars\Gov School\Robotics\GSET_Robotics\Maze\409_Maze_Test.nxc"
6	73	26		mov __D0mazeNav, __D0ballFind
6	74	28	#line 74 "C:\Users\Lshi\Documents\Extracurriculars\Gov School\Robotics\GSET_Robotics\Maze\409_Maze_Test.nxc"
6	75	28		tst 5, __zfmazeNav, __D0mazeNav
6	74	31	#line 74 "C:\Users\Lshi\Documents\Extracurriculars\Gov School\Robotics\GSET_Robotics\Maze\409_Maze_Test.nxc"
6	75	31	#line 75 "C:\Users\Lshi\Documents\Extracurriculars\Gov School\Robotics\GSET_Robotics\Maze\409_Maze_Test.nxc"
6	75	31	#line 75 "C:\Users\Lshi\Documents\Extracurriculars\Gov School\Robotics\GSET_Robotics\Maze\409_Maze_Test.nxc"
6	76	31		set __singleWheelTurn_7qG2_motor_7qG2_000, 2
6	75	34	#line 75 "C:\Users\Lshi\Documents\Extracurriculars\Gov School\Robotics\GSET_Robotics\Maze\409_Maze_Test.nxc"
6	75	34	#line 75 "C:\Users\Lshi\Documents\Extracurriculars\Gov School\Robotics\GSET_Robotics\Maze\409_Maze_Test.nxc"
6	76	34		set __singleWheelTurn_7qG2_degrees_7qG2_000, 90
6	75	37	#line 75 "C:\Users\Lshi\Documents\Extracurriculars\Gov School\Robotics\GSET_Robotics\Maze\409_Maze_Test.nxc"
6	76	37	#line 76 "C:\Users\Lshi\Documents\Extracurriculars\Gov School\Robotics\GSET_Robotics\Maze\409_Maze_Test.nxc"
6	77	37		subcall singleWheelTurn, __singleWheelTurn_return
6	76	39	#line 76 "C:\Users\Lshi\Documents\Extracurriculars\Gov School\Robotics\GSET_Robotics\Maze\409_Maze_Test.nxc"
6	77	39	#line 77 "C:\Users\Lshi\Documents\Extracurriculars\Gov School\Robotics\GSET_Robotics\Maze\409_Maze_Test.nxc"
6	78	39		mov __driveUpToWall_7qG2_look_7qG2_000, __constVal0
6	77	41	#line 77 "C:\Users\Lshi\Documents\Extracurriculars\Gov School\Robotics\GSET_Robotics\Maze\409_Maze_Test.nxc"
6	78	41		subcall driveUpToWall, __driveUpToWall_return
6	77	43	#line 77 "C:\Users\Lshi\Documents\Extracurriculars\Gov School\Robotics\GSET_Robotics\Maze\409_Maze_Test.nxc"
6	77	43	#line 77 "C:\Users\Lshi\Documents\Extracurriculars\Gov School\Robotics\GSET_Robotics\Maze\409_Maze_Test.nxc"
6	78	43		set __singleWheelTurn_7qG2_motor_7qG2_000, 0
6	77	46	#line 77 "C:\Users\Lshi\Documents\Extracurriculars\Gov School\Robotics\GSET_Robotics\Maze\409_Maze_Test.nxc"
6	77	46	#line 77 "C:\Users\Lshi\Documents\Extracurriculars\Gov School\Robotics\GSET_Robotics\Maze\409_Maze_Test.nxc"
6	78	46		set __singleWheelTurn_7qG2_degrees_7qG2_000, 90
6	77	49	#line 77 "C:\Users\Lshi\Documents\Extracurriculars\Gov School\Robotics\GSET_Robotics\Maze\409_Maze_Test.nxc"
6	78	49	#line 78 "C:\Users\Lshi\Documents\Extracurriculars\Gov School\Robotics\GSET_Robotics\Maze\409_Maze_Test.nxc"
6	79	49		subcall singleWheelTurn, __singleWheelTurn_return
6	78	51	#line 78 "C:\Users\Lshi\Documents\Extracurriculars\Gov School\Robotics\GSET_Robotics\Maze\409_Maze_Test.nxc"
6	78	51	#line 78 "C:\Users\Lshi\Documents\Extracurriculars\Gov School\Robotics\GSET_Robotics\Maze\409_Maze_Test.nxc"
6	79	51		subcall ballFind, __ballFind_return
6	78	53	#line 78 "C:\Users\Lshi\Documents\Extracurriculars\Gov School\Robotics\GSET_Robotics\Maze\409_Maze_Test.nxc"
6	79	53		mov __D0mazeNav, __D0ballFind
6	80	55	#line 80 "C:\Users\Lshi\Documents\Extracurriculars\Gov School\Robotics\GSET_Robotics\Maze\409_Maze_Test.nxc"
6	81	55		tst 5, __zfmazeNav, __D0mazeNav
6	80	58	#line 80 "C:\Users\Lshi\Documents\Extracurriculars\Gov School\Robotics\GSET_Robotics\Maze\409_Maze_Test.nxc"
6	81	58	#line 81 "C:\Users\Lshi\Documents\Extracurriculars\Gov School\Robotics\GSET_Robotics\Maze\409_Maze_Test.nxc"
6	81	58	#line 81 "C:\Users\Lshi\Documents\Extracurriculars\Gov School\Robotics\GSET_Robotics\Maze\409_Maze_Test.nxc"
6	82	58		set __singleWheelTurn_7qG2_motor_7qG2_000, 0
6	81	61	#line 81 "C:\Users\Lshi\Documents\Extracurriculars\Gov School\Robotics\GSET_Robotics\Maze\409_Maze_Test.nxc"
6	81	61	#line 81 "C:\Users\Lshi\Documents\Extracurriculars\Gov School\Robotics\GSET_Robotics\Maze\409_Maze_Test.nxc"
6	82	61		set __singleWheelTurn_7qG2_degrees_7qG2_000, 90
6	81	64	#line 81 "C:\Users\Lshi\Documents\Extracurriculars\Gov School\Robotics\GSET_Robotics\Maze\409_Maze_Test.nxc"
6	82	64	#line 82 "C:\Users\Lshi\Documents\Extracurriculars\Gov School\Robotics\GSET_Robotics\Maze\409_Maze_Test.nxc"
6	83	64		subcall singleWheelTurn, __singleWheelTurn_return
6	82	66	#line 82 "C:\Users\Lshi\Documents\Extracurriculars\Gov School\Robotics\GSET_Robotics\Maze\409_Maze_Test.nxc"
6	82	66	#line 82 "C:\Users\Lshi\Documents\Extracurriculars\Gov School\Robotics\GSET_Robotics\Maze\409_Maze_Test.nxc"
6	83	66		mov __driveUpToWall_7qG2_look_7qG2_000, __constValNeg90
6	82	68	#line 82 "C:\Users\Lshi\Documents\Extracurriculars\Gov School\Robotics\GSET_Robotics\Maze\409_Maze_Test.nxc"
6	83	68	#line 83 "C:\Users\Lshi\Documents\Extracurriculars\Gov School\Robotics\GSET_Robotics\Maze\409_Maze_Test.nxc"
6	84	68		subcall driveUpToWall, __driveUpToWall_return
6	83	70	#line 83 "C:\Users\Lshi\Documents\Extracurriculars\Gov School\Robotics\GSET_Robotics\Maze\409_Maze_Test.nxc"
6	83	70	#line 83 "C:\Users\Lshi\Documents\Extracurriculars\Gov School\Robotics\GSET_Robotics\Maze\409_Maze_Test.nxc"
6	84	70		mov __driveUpToNotWall_7qG2_look2_7qG2_000, __constValNeg90
6	83	72	#line 83 "C:\Users\Lshi\Documents\Extracurriculars\Gov School\Robotics\GSET_Robotics\Maze\409_Maze_Test.nxc"
6	84	72	#line 84 "C:\Users\Lshi\Documents\Extracurriculars\Gov School\Robotics\GSET_Robotics\Maze\409_Maze_Test.nxc"
6	85	72		subcall driveUpToNotWall, __driveUpToNotWall_return
6	84	74	#line 84 "C:\Users\Lshi\Documents\Extracurriculars\Gov School\Robotics\GSET_Robotics\Maze\409_Maze_Test.nxc"
6	84	74	#line 84 "C:\Users\Lshi\Documents\Extracurriculars\Gov School\Robotics\GSET_Robotics\Maze\409_Maze_Test.nxc"
6	85	74		set __singleWheelTurn_7qG2_motor_7qG2_000, 2
6	84	77	#line 84 "C:\Users\Lshi\Documents\Extracurriculars\Gov School\Robotics\GSET_Robotics\Maze\409_Maze_Test.nxc"
6	84	77	#line 84 "C:\Users\Lshi\Documents\Extracurriculars\Gov School\Robotics\GSET_Robotics\Maze\409_Maze_Test.nxc"
6	85	77		set __singleWheelTurn_7qG2_degrees_7qG2_000, 90
6	84	80	#line 84 "C:\Users\Lshi\Documents\Extracurriculars\Gov School\Robotics\GSET_Robotics\Maze\409_Maze_Test.nxc"
6	85	80	#line 85 "C:\Users\Lshi\Documents\Extracurriculars\Gov School\Robotics\GSET_Robotics\Maze\409_Maze_Test.nxc"
6	86	80		subcall singleWheelTurn, __singleWheelTurn_return
6	85	82	#line 85 "C:\Users\Lshi\Documents\Extracurriculars\Gov School\Robotics\GSET_Robotics\Maze\409_Maze_Test.nxc"
6	85	82	#line 85 "C:\Users\Lshi\Documents\Extracurriculars\Gov School\Robotics\GSET_Robotics\Maze\409_Maze_Test.nxc"
6	86	82		set __signed_stack_001mazeNav, 30
6	85	85	#line 85 "C:\Users\Lshi\Documents\Extracurriculars\Gov School\Robotics\GSET_Robotics\Maze\409_Maze_Test.nxc"
6	85	85	#line 85 "C:\Users\Lshi\Documents\Extracurriculars\Gov School\Robotics\GSET_Robotics\Maze\409_Maze_Test.nxc"
6	86	85		set __D0mazeNav, 0
6	86	88	#line 86 "C:\Users\Lshi\Documents\Extracurriculars\Gov School\Robotics\GSET_Robotics\Maze\409_Maze_Test.nxc"
6	87	88	#pragma macro 7
6	87	88		setout __OUT_AC, 2, __signed_stack_001mazeNav, 1, __constVal7, 8, __constVal2, 7, __D0mazeNav, 6, __constVal32, 5, __constVal0, 10, __constVal96, 11, __constVal32, 12, __constVal32, 0, __constVal63
6	4976	111	#line 4976 "C:\Users\Lshi\Documents\Extracurriculars\Gov School\Robotics\GSET_Robotics\Maze\409_Maze_Test.nxc"
6	86	111	#line 86 "C:\Users\Lshi\Documents\Extracurriculars\Gov School\Robotics\GSET_Robotics\Maze\409_Maze_Test.nxc"
6	86	111	#line 86 "C:\Users\Lshi\Documents\Extracurriculars\Gov School\Robotics\GSET_Robotics\Maze\409_Maze_Test.nxc"
6	87	111		set __Wait_7qG2_ms_7qG2_000_inline_mazeNav, 1500
6	86	114	#line 86 "C:\Users\Lshi\Documents\Extracurriculars\Gov School\Robotics\GSET_Robotics\Maze\409_Maze_Test.nxc"
6	7921	114	#line 7921 "NXCDefs.h"
6	7922	114		wait2 NA, __Wait_7qG2_ms_7qG2_000_inline_mazeNav
6	7921	117	#line 7921 "NXCDefs.h"
6	88	117	#line 88 "C:\Users\Lshi\Documents\Extracurriculars\Gov School\Robotics\GSET_Robotics\Maze\409_Maze_Test.nxc"
6	88	117	#line 88 "C:\Users\Lshi\Documents\Extracurriculars\Gov School\Robotics\GSET_Robotics\Maze\409_Maze_Test.nxc"
6	89	117		subcall ballFind, __ballFind_return
6	88	119	#line 88 "C:\Users\Lshi\Documents\Extracurriculars\Gov School\Robotics\GSET_Robotics\Maze\409_Maze_Test.nxc"
6	89	119		mov __D0mazeNav, __D0ballFind
6	90	121	#line 90 "C:\Users\Lshi\Documents\Extracurriculars\Gov School\Robotics\GSET_Robotics\Maze\409_Maze_Test.nxc"
6	91	121		tst 5, __zfmazeNav, __D0mazeNav
6	90	124	#line 90 "C:\Users\Lshi\Documents\Extracurriculars\Gov School\Robotics\GSET_Robotics\Maze\409_Maze_Test.nxc"
6	91	124	#line 91 "C:\Users\Lshi\Documents\Extracurriculars\Gov School\Robotics\GSET_Robotics\Maze\409_Maze_Test.nxc"
6	92	124	#line 92 "C:\Users\Lshi\Documents\Extracurriculars\Gov School\Robotics\GSET_Robotics\Maze\409_Maze_Test.nxc"
6	93	124		mov __driveUpToWall_7qG2_look_7qG2_000, __constVal0
6	92	126	#line 92 "C:\Users\Lshi\Documents\Extracurriculars\Gov School\Robotics\GSET_Robotics\Maze\409_Maze_Test.nxc"
6	93	126		subcall driveUpToWall, __driveUpToWall_return
6	92	128	#line 92 "C:\Users\Lshi\Documents\Extracurriculars\Gov School\Robotics\GSET_Robotics\Maze\409_Maze_Test.nxc"
6	92	128	#line 92 "C:\Users\Lshi\Documents\Extracurriculars\Gov School\Robotics\GSET_Robotics\Maze\409_Maze_Test.nxc"
6	93	128		set __singleWheelTurn_7qG2_motor_7qG2_000, 2
6	92	131	#line 92 "C:\Users\Lshi\Documents\Extracurriculars\Gov School\Robotics\GSET_Robotics\Maze\409_Maze_Test.nxc"
6	92	131	#line 92 "C:\Users\Lshi\Documents\Extracurriculars\Gov School\Robotics\GSET_Robotics\Maze\409_Maze_Test.nxc"
6	93	131		set __singleWheelTurn_7qG2_degrees_7qG2_000, 90
6	92	134	#line 92 "C:\Users\Lshi\Documents\Extracurriculars\Gov School\Robotics\GSET_Robotics\Maze\409_Maze_Test.nxc"
6	93	134	#line 93 "C:\Users\Lshi\Documents\Extracurriculars\Gov School\Robotics\GSET_Robotics\Maze\409_Maze_Test.nxc"
6	94	134		subcall singleWheelTurn, __singleWheelTurn_return
6	93	136	#line 93 "C:\Users\Lshi\Documents\Extracurriculars\Gov School\Robotics\GSET_Robotics\Maze\409_Maze_Test.nxc"
6	93	136	#line 93 "C:\Users\Lshi\Documents\Extracurriculars\Gov School\Robotics\GSET_Robotics\Maze\409_Maze_Test.nxc"
6	94	136		subcall ballFind, __ballFind_return
6	93	138	#line 93 "C:\Users\Lshi\Documents\Extracurriculars\Gov School\Robotics\GSET_Robotics\Maze\409_Maze_Test.nxc"
6	94	138		mov __D0mazeNav, __D0ballFind
6	95	140	#line 95 "C:\Users\Lshi\Documents\Extracurriculars\Gov School\Robotics\GSET_Robotics\Maze\409_Maze_Test.nxc"
6	96	140		tst 5, __zfmazeNav, __D0mazeNav
6	95	143	#line 95 "C:\Users\Lshi\Documents\Extracurriculars\Gov School\Robotics\GSET_Robotics\Maze\409_Maze_Test.nxc"
6	97	143	#line 97 "C:\Users\Lshi\Documents\Extracurriculars\Gov School\Robotics\GSET_Robotics\Maze\409_Maze_Test.nxc"
6	97	143	#line 97 "C:\Users\Lshi\Documents\Extracurriculars\Gov School\Robotics\GSET_Robotics\Maze\409_Maze_Test.nxc"
6	98	143		set __singleWheelTurn_7qG2_motor_7qG2_000, 2
6	97	146	#line 97 "C:\Users\Lshi\Documents\Extracurriculars\Gov School\Robotics\GSET_Robotics\Maze\409_Maze_Test.nxc"
6	97	146	#line 97 "C:\Users\Lshi\Documents\Extracurriculars\Gov School\Robotics\GSET_Robotics\Maze\409_Maze_Test.nxc"
6	98	146		set __singleWheelTurn_7qG2_degrees_7qG2_000, 90
6	97	149	#line 97 "C:\Users\Lshi\Documents\Extracurriculars\Gov School\Robotics\GSET_Robotics\Maze\409_Maze_Test.nxc"
6	98	149	#line 98 "C:\Users\Lshi\Documents\Extracurriculars\Gov School\Robotics\GSET_Robotics\Maze\409_Maze_Test.nxc"
6	99	149		subcall singleWheelTurn, __singleWheelTurn_return
6	98	151	#line 98 "C:\Users\Lshi\Documents\Extracurriculars\Gov School\Robotics\GSET_Robotics\Maze\409_Maze_Test.nxc"
6	98	151	#line 98 "C:\Users\Lshi\Documents\Extracurriculars\Gov School\Robotics\GSET_Robotics\Maze\409_Maze_Test.nxc"
6	99	151		subcall ballFind, __ballFind_return
6	98	153	#line 98 "C:\Users\Lshi\Documents\Extracurriculars\Gov School\Robotics\GSET_Robotics\Maze\409_Maze_Test.nxc"
6	99	153		mov __D0mazeNav, __D0ballFind
6	100	155	#line 100 "C:\Users\Lshi\Documents\Extracurriculars\Gov School\Robotics\GSET_Robotics\Maze\409_Maze_Test.nxc"
6	101	155		tst 5, __zfmazeNav, __D0mazeNav
6	100	158	#line 100 "C:\Users\Lshi\Documents\Extracurriculars\Gov School\Robotics\GSET_Robotics\Maze\409_Maze_Test.nxc"
6	102	158	#line 102 "C:\Users\Lshi\Documents\Extracurriculars\Gov School\Robotics\GSET_Robotics\Maze\409_Maze_Test.nxc"
6	103	158	#line 103 "C:\Users\Lshi\Documents\Extracurriculars\Gov School\Robotics\GSET_Robotics\Maze\409_Maze_Test.nxc"
6	103	158	#line 103 "C:\Users\Lshi\Documents\Extracurriculars\Gov School\Robotics\GSET_Robotics\Maze\409_Maze_Test.nxc"
6	104	158		exit 0, 0
7	107	0	#line 107 "C:\Users\Lshi\Documents\Extracurriculars\Gov School\Robotics\GSET_Robotics\Maze\409_Maze_Test.nxc"
7	108	0		mov __signed_stack_001turnHeadTo, __turnHeadTo_7qG2_degrees_7qG2_000
7	107	2	#line 107 "C:\Users\Lshi\Documents\Extracurriculars\Gov School\Robotics\GSET_Robotics\Maze\409_Maze_Test.nxc"
7	108	2	#line 108 "C:\Users\Lshi\Documents\Extracurriculars\Gov School\Robotics\GSET_Robotics\Maze\409_Maze_Test.nxc"
7	109	2		getout __D0turnHeadTo, __constVal1, 14
7	108	6	#line 108 "C:\Users\Lshi\Documents\Extracurriculars\Gov School\Robotics\GSET_Robotics\Maze\409_Maze_Test.nxc"
7	109	6		sub __turnHeadTo_7qG2_delta_7qG2_000, __signed_stack_001turnHeadTo, __D0turnHeadTo
7	108	10	#line 108 "C:\Users\Lshi\Documents\Extracurriculars\Gov School\Robotics\GSET_Robotics\Maze\409_Maze_Test.nxc"
7	108	10	#line 108 "C:\Users\Lshi\Documents\Extracurriculars\Gov School\Robotics\GSET_Robotics\Maze\409_Maze_Test.nxc"
7	109	10		set __signed_stack_001turnHeadTo, 60
7	108	13	#line 108 "C:\Users\Lshi\Documents\Extracurriculars\Gov School\Robotics\GSET_Robotics\Maze\409_Maze_Test.nxc"
7	108	13	#line 108 "C:\Users\Lshi\Documents\Extracurriculars\Gov School\Robotics\GSET_Robotics\Maze\409_Maze_Test.nxc"
7	109	13		mov __D0turnHeadTo, __turnHeadTo_7qG2_delta_7qG2_000
7	109	15	#line 109 "C:\Users\Lshi\Documents\Extracurriculars\Gov School\Robotics\GSET_Robotics\Maze\409_Maze_Test.nxc"
7	110	15	#pragma macro 33
7	110	15		acquire __rotateMutex1
7	110	16		arrbuild __rotate_ports1, __constVal1
7	110	20		mov __rotate_power1, __signed_stack_001turnHeadTo
7	110	22		mov __rotate_angle1, __D0turnHeadTo
7	110	24		mov __rotate_turnpct1, __constVal0
7	110	26		mov __rotate_sync1, __constVal0
7	110	28		mov __rotate_stop1, __constVal1
7	110	30		mov __rotate_theRVP1, __constVal32
7	110	32		mov __rotate_theRVI1, __constVal0
7	110	34		mov __rotate_theRVD1, __constVal96
7	110	36		subcall __RotateMotor1, ____RotateMotor1_return
7	110	38		release __rotateMutex1
7	5096	39	#line 5096 "C:\Users\Lshi\Documents\Extracurriculars\Gov School\Robotics\GSET_Robotics\Maze\409_Maze_Test.nxc"
7	109	39	#line 109 "C:\Users\Lshi\Documents\Extracurriculars\Gov School\Robotics\GSET_Robotics\Maze\409_Maze_Test.nxc"
7	111	39	#line 111 "C:\Users\Lshi\Documents\Extracurriculars\Gov School\Robotics\GSET_Robotics\Maze\409_Maze_Test.nxc"
7	112	39		subret __turnHeadTo_return
8	112	0	#line 112 "C:\Users\Lshi\Documents\Extracurriculars\Gov School\Robotics\GSET_Robotics\Maze\409_Maze_Test.nxc"
8	113	0		mov __turnHeadTo_7qG2_degrees_7qG2_000, __driveUpToNotWall_7qG2_look2_7qG2_000
8	112	2	#line 112 "C:\Users\Lshi\Documents\Extracurriculars\Gov School\Robotics\GSET_Robotics\Maze\409_Maze_Test.nxc"
8	113	2	#line 113 "C:\Users\Lshi\Documents\Extracurriculars\Gov School\Robotics\GSET_Robotics\Maze\409_Maze_Test.nxc"
8	114	2		subcall turnHeadTo, __turnHeadTo_return
8	113	4	#line 113 "C:\Users\Lshi\Documents\Extracurriculars\Gov School\Robotics\GSET_Robotics\Maze\409_Maze_Test.nxc"
8	113	4	#line 113 "C:\Users\Lshi\Documents\Extracurriculars\Gov School\Robotics\GSET_Robotics\Maze\409_Maze_Test.nxc"
8	113	4	#line 113 "C:\Users\Lshi\Documents\Extracurriculars\Gov School\Robotics\GSET_Robotics\Maze\409_Maze_Test.nxc"
8	113	4	#line 113 "C:\Users\Lshi\Documents\Extracurriculars\Gov School\Robotics\GSET_Robotics\Maze\409_Maze_Test.nxc"
8	113	4	#line 113 "C:\Users\Lshi\Documents\Extracurriculars\Gov School\Robotics\GSET_Robotics\Maze\409_Maze_Test.nxc"
8	114	4		mul __signed_stack_001driveUpToNotWall, dir, __constVal60
8	113	8	#line 113 "C:\Users\Lshi\Documents\Extracurriculars\Gov School\Robotics\GSET_Robotics\Maze\409_Maze_Test.nxc"
8	113	8	#line 113 "C:\Users\Lshi\Documents\Extracurriculars\Gov School\Robotics\GSET_Robotics\Maze\409_Maze_Test.nxc"
8	114	8		set __D0driveUpToNotWall, 0
8	114	11	#line 114 "C:\Users\Lshi\Documents\Extracurriculars\Gov School\Robotics\GSET_Robotics\Maze\409_Maze_Test.nxc"
8	115	11	#pragma macro 7
8	115	11		setout __OUT_AC, 2, __signed_stack_001driveUpToNotWall, 1, __constVal7, 8, __constVal2, 7, __D0driveUpToNotWall, 6, __constVal32, 5, __constVal0, 10, __constVal96, 11, __constVal32, 12, __constVal32, 0, __constVal63
8	5129	34	#line 5129 "C:\Users\Lshi\Documents\Extracurriculars\Gov School\Robotics\GSET_Robotics\Maze\409_Maze_Test.nxc"
8	114	34	#line 114 "C:\Users\Lshi\Documents\Extracurriculars\Gov School\Robotics\GSET_Robotics\Maze\409_Maze_Test.nxc"
8	114	34	#line 114 "C:\Users\Lshi\Documents\Extracurriculars\Gov School\Robotics\GSET_Robotics\Maze\409_Maze_Test.nxc"
8	115	34		subcall turnCheck, __turnCheck_return
8	114	36	#line 114 "C:\Users\Lshi\Documents\Extracurriculars\Gov School\Robotics\GSET_Robotics\Maze\409_Maze_Test.nxc"
8	114	36	#line 114 "C:\Users\Lshi\Documents\Extracurriculars\Gov School\Robotics\GSET_Robotics\Maze\409_Maze_Test.nxc"
8	115	36		not __D0driveUpToNotWall, __D0turnCheck
8	115	39	#line 115 "C:\Users\Lshi\Documents\Extracurriculars\Gov School\Robotics\GSET_Robotics\Maze\409_Maze_Test.nxc"
8	116	39		tst 5, __zfdriveUpToNotWall, __D0driveUpToNotWall
8	115	42	#line 115 "C:\Users\Lshi\Documents\Extracurriculars\Gov School\Robotics\GSET_Robotics\Maze\409_Maze_Test.nxc"
8	116	42		brtst 4, __NXC_Label_590, __zfdriveUpToNotWall
8	115	45	#line 115 "C:\Users\Lshi\Documents\Extracurriculars\Gov School\Robotics\GSET_Robotics\Maze\409_Maze_Test.nxc"
8	115	45	#line 115 "C:\Users\Lshi\Documents\Extracurriculars\Gov School\Robotics\GSET_Robotics\Maze\409_Maze_Test.nxc"
8	116	45		jmp __NXC_Label_589
8	115	47	#line 115 "C:\Users\Lshi\Documents\Extracurriculars\Gov School\Robotics\GSET_Robotics\Maze\409_Maze_Test.nxc"
8	115	47	#line 115 "C:\Users\Lshi\Documents\Extracurriculars\Gov School\Robotics\GSET_Robotics\Maze\409_Maze_Test.nxc"
8	116	47		set __signed_stack_001driveUpToNotWall, 0
8	115	50	#line 115 "C:\Users\Lshi\Documents\Extracurriculars\Gov School\Robotics\GSET_Robotics\Maze\409_Maze_Test.nxc"
8	115	50	#line 115 "C:\Users\Lshi\Documents\Extracurriculars\Gov School\Robotics\GSET_Robotics\Maze\409_Maze_Test.nxc"
8	116	50		set __D0driveUpToNotWall, 0
8	116	53	#line 116 "C:\Users\Lshi\Documents\Extracurriculars\Gov School\Robotics\GSET_Robotics\Maze\409_Maze_Test.nxc"
8	117	53	#pragma macro 7
8	117	53		setout __OUT_AC, 2, __signed_stack_001driveUpToNotWall, 1, __constVal7, 8, __constVal2, 7, __D0driveUpToNotWall, 6, __constVal32, 5, __constVal0, 10, __constVal96, 11, __constVal32, 12, __constVal32, 0, __constVal63
8	5160	76	#line 5160 "C:\Users\Lshi\Documents\Extracurriculars\Gov School\Robotics\GSET_Robotics\Maze\409_Maze_Test.nxc"
8	116	76	#line 116 "C:\Users\Lshi\Documents\Extracurriculars\Gov School\Robotics\GSET_Robotics\Maze\409_Maze_Test.nxc"
8	118	76	#line 118 "C:\Users\Lshi\Documents\Extracurriculars\Gov School\Robotics\GSET_Robotics\Maze\409_Maze_Test.nxc"
8	119	76		subret __driveUpToNotWall_return
9	120	0	#line 120 "C:\Users\Lshi\Documents\Extracurriculars\Gov School\Robotics\GSET_Robotics\Maze\409_Maze_Test.nxc"
9	121	0		mov __turnHeadTo_7qG2_degrees_7qG2_000, __driveUpToWall_7qG2_look_7qG2_000
9	120	2	#line 120 "C:\Users\Lshi\Documents\Extracurriculars\Gov School\Robotics\GSET_Robotics\Maze\409_Maze_Test.nxc"
9	121	2	#line 121 "C:\Users\Lshi\Documents\Extracurriculars\Gov School\Robotics\GSET_Robotics\Maze\409_Maze_Test.nxc"
9	122	2		subcall turnHeadTo, __turnHeadTo_return
9	121	4	#line 121 "C:\Users\Lshi\Documents\Extracurriculars\Gov School\Robotics\GSET_Robotics\Maze\409_Maze_Test.nxc"
9	121	4	#line 121 "C:\Users\Lshi\Documents\Extracurriculars\Gov School\Robotics\GSET_Robotics\Maze\409_Maze_Test.nxc"
9	121	4	#line 121 "C:\Users\Lshi\Documents\Extracurriculars\Gov School\Robotics\GSET_Robotics\Maze\409_Maze_Test.nxc"
9	121	4	#line 121 "C:\Users\Lshi\Documents\Extracurriculars\Gov School\Robotics\GSET_Robotics\Maze\409_Maze_Test.nxc"
9	121	4	#line 121 "C:\Users\Lshi\Documents\Extracurriculars\Gov School\Robotics\GSET_Robotics\Maze\409_Maze_Test.nxc"
9	122	4		mul __signed_stack_001driveUpToWall, dir, __constVal60
9	121	8	#line 121 "C:\Users\Lshi\Documents\Extracurriculars\Gov School\Robotics\GSET_Robotics\Maze\409_Maze_Test.nxc"
9	121	8	#line 121 "C:\Users\Lshi\Documents\Extracurriculars\Gov School\Robotics\GSET_Robotics\Maze\409_Maze_Test.nxc"
9	122	8		set __D0driveUpToWall, 0
9	122	11	#line 122 "C:\Users\Lshi\Documents\Extracurriculars\Gov School\Robotics\GSET_Robotics\Maze\409_Maze_Test.nxc"
9	123	11	#pragma macro 7
9	123	11		setout __OUT_AC, 2, __signed_stack_001driveUpToWall, 1, __constVal7, 8, __constVal2, 7, __D0driveUpToWall, 6, __constVal32, 5, __constVal0, 10, __constVal96, 11, __constVal32, 12, __constVal32, 0, __constVal63
9	5193	34	#line 5193 "C:\Users\Lshi\Documents\Extracurriculars\Gov School\Robotics\GSET_Robotics\Maze\409_Maze_Test.nxc"
9	122	34	#line 122 "C:\Users\Lshi\Documents\Extracurriculars\Gov School\Robotics\GSET_Robotics\Maze\409_Maze_Test.nxc"
9	122	34	#line 122 "C:\Users\Lshi\Documents\Extracurriculars\Gov School\Robotics\GSET_Robotics\Maze\409_Maze_Test.nxc"
9	123	34		subcall turnCheck, __turnCheck_return
9	122	36	#line 122 "C:\Users\Lshi\Documents\Extracurriculars\Gov School\Robotics\GSET_Robotics\Maze\409_Maze_Test.nxc"
9	123	36		mov __D0driveUpToWall, __D0turnCheck
9	123	38	#line 123 "C:\Users\Lshi\Documents\Extracurriculars\Gov School\Robotics\GSET_Robotics\Maze\409_Maze_Test.nxc"
9	124	38		tst 5, __zfdriveUpToWall, __D0driveUpToWall
9	123	41	#line 123 "C:\Users\Lshi\Documents\Extracurriculars\Gov School\Robotics\GSET_Robotics\Maze\409_Maze_Test.nxc"
9	124	41		brtst 4, __NXC_Label_604, __zfdriveUpToWall
9	123	44	#line 123 "C:\Users\Lshi\Documents\Extracurriculars\Gov School\Robotics\GSET_Robotics\Maze\409_Maze_Test.nxc"
9	123	44	#line 123 "C:\Users\Lshi\Documents\Extracurriculars\Gov School\Robotics\GSET_Robotics\Maze\409_Maze_Test.nxc"
9	124	44		jmp __NXC_Label_603
9	123	46	#line 123 "C:\Users\Lshi\Documents\Extracurriculars\Gov School\Robotics\GSET_Robotics\Maze\409_Maze_Test.nxc"
9	123	46	#line 123 "C:\Users\Lshi\Documents\Extracurriculars\Gov School\Robotics\GSET_Robotics\Maze\409_Maze_Test.nxc"
9	124	46		set __signed_stack_001driveUpToWall, 0
9	123	49	#line 123 "C:\Users\Lshi\Documents\Extracurriculars\Gov School\Robotics\GSET_Robotics\Maze\409_Maze_Test.nxc"
9	123	49	#line 123 "C:\Users\Lshi\Documents\Extracurriculars\Gov School\Robotics\GSET_Robotics\Maze\409_Maze_Test.nxc"
9	124	49		set __D0driveUpToWall, 0
9	124	52	#line 124 "C:\Users\Lshi\Documents\Extracurriculars\Gov School\Robotics\GSET_Robotics\Maze\409_Maze_Test.nxc"
9	125	52	#pragma macro 7
9	125	52		setout __OUT_AC, 2, __signed_stack_001driveUpToWall, 1, __constVal7, 8, __constVal2, 7, __D0driveUpToWall, 6, __constVal32, 5, __constVal0, 10, __constVal96, 11, __constVal32, 12, __constVal32, 0, __constVal63
9	5222	75	#line 5222 "C:\Users\Lshi\Documents\Extracurriculars\Gov School\Robotics\GSET_Robotics\Maze\409_Maze_Test.nxc"
9	124	75	#line 124 "C:\Users\Lshi\Documents\Extracurriculars\Gov School\Robotics\GSET_Robotics\Maze\409_Maze_Test.nxc"
9	126	75	#line 126 "C:\Users\Lshi\Documents\Extracurriculars\Gov School\Robotics\GSET_Robotics\Maze\409_Maze_Test.nxc"
9	127	75		subret __driveUpToWall_return
10	128	0	#line 128 "C:\Users\Lshi\Documents\Extracurriculars\Gov School\Robotics\GSET_Robotics\Maze\409_Maze_Test.nxc"
10	129	0		set __signed_stack_001singleWheelTurn, 60
10	128	3	#line 128 "C:\Users\Lshi\Documents\Extracurriculars\Gov School\Robotics\GSET_Robotics\Maze\409_Maze_Test.nxc"
10	128	3	#line 128 "C:\Users\Lshi\Documents\Extracurriculars\Gov School\Robotics\GSET_Robotics\Maze\409_Maze_Test.nxc"
10	128	3	#line 128 "C:\Users\Lshi\Documents\Extracurriculars\Gov School\Robotics\GSET_Robotics\Maze\409_Maze_Test.nxc"
10	128	3	#line 128 "C:\Users\Lshi\Documents\Extracurriculars\Gov School\Robotics\GSET_Robotics\Maze\409_Maze_Test.nxc"
10	128	3	#line 128 "C:\Users\Lshi\Documents\Extracurriculars\Gov School\Robotics\GSET_Robotics\Maze\409_Maze_Test.nxc"
10	129	3		mul __signed_stack_002singleWheelTurn, dir, __singleWheelTurn_7qG2_degrees_7qG2_000
10	128	7	#line 128 "C:\Users\Lshi\Documents\Extracurriculars\Gov School\Robotics\GSET_Robotics\Maze\409_Maze_Test.nxc"
10	128	7	#line 128 "C:\Users\Lshi\Documents\Extracurriculars\Gov School\Robotics\GSET_Robotics\Maze\409_Maze_Test.nxc"
10	128	7	#line 128 "C:\Users\Lshi\Documents\Extracurriculars\Gov School\Robotics\GSET_Robotics\Maze\409_Maze_Test.nxc"
10	129	7		mul __DF0singleWheelTurn, __signed_stack_002singleWheelTurn, __constValf4P8
10	129	11	#line 129 "C:\Users\Lshi\Documents\Extracurriculars\Gov School\Robotics\GSET_Robotics\Maze\409_Maze_Test.nxc"
10	130	11	#pragma macro 22
10	130	11		acquire __rotateMutex0
10	130	12		acquire __rotateMutex1
10	130	13		acquire __rotateMutex2
10	130	14		arrbuild __rotate_ports6, __singleWheelTurn_7qG2_motor_7qG2_000
10	130	18		mov __rotate_power6, __signed_stack_001singleWheelTurn
10	130	20		mov __rotate_angle6, __DF0singleWheelTurn
10	130	22		mov __rotate_turnpct6, __constVal0
10	130	24		mov __rotate_sync6, __constVal0
10	130	26		mov __rotate_stop6, __constVal1
10	130	28		mov __rotate_theRVP6, __constVal32
10	130	30		mov __rotate_theRVI6, __constVal0
10	130	32		mov __rotate_theRVD6, __constVal96
10	130	34		subcall __RotateMotorVar, ____RotateMotorVar_return
10	130	36		release __rotateMutex2
10	130	37		release __rotateMutex1
10	130	38		release __rotateMutex0
10	5252	39	#line 5252 "C:\Users\Lshi\Documents\Extracurriculars\Gov School\Robotics\GSET_Robotics\Maze\409_Maze_Test.nxc"
10	129	39	#line 129 "C:\Users\Lshi\Documents\Extracurriculars\Gov School\Robotics\GSET_Robotics\Maze\409_Maze_Test.nxc"
10	129	39	#line 129 "C:\Users\Lshi\Documents\Extracurriculars\Gov School\Robotics\GSET_Robotics\Maze\409_Maze_Test.nxc"
10	130	39		set __Wait_7qG2_ms_7qG2_000_inline_singleWheelTurn, 100
10	129	42	#line 129 "C:\Users\Lshi\Documents\Extracurriculars\Gov School\Robotics\GSET_Robotics\Maze\409_Maze_Test.nxc"
10	7921	42	#line 7921 "NXCDefs.h"
10	7922	42		wait2 NA, __Wait_7qG2_ms_7qG2_000_inline_singleWheelTurn
10	7921	45	#line 7921 "NXCDefs.h"
10	130	45	#line 130 "C:\Users\Lshi\Documents\Extracurriculars\Gov School\Robotics\GSET_Robotics\Maze\409_Maze_Test.nxc"
10	132	45	#line 132 "C:\Users\Lshi\Documents\Extracurriculars\Gov School\Robotics\GSET_Robotics\Maze\409_Maze_Test.nxc"
10	133	45		subret __singleWheelTurn_return
11	155	0	#line 155 "C:\Users\Lshi\Documents\Extracurriculars\Gov School\Robotics\GSET_Robotics\Maze\409_Maze_Test.nxc"
11	156	0	#pragma macro 26
11	156	0		acquire __RLSBmutex1
11	156	1		mov __RLSReadBuf1, __RLSBbufLSWrite1
11	156	3		set __RLSBytesCount1, 1
11	156	6		wait2 NA, __constVal15
11	156	9		subcall __ReadLSBytes1, ____ReadLSBytes1_return
11	156	11		index __D0turnCheck, __RLSReadBuf1, 65535
11	156	15		release __RLSBmutex1
11	5500	16	#line 5500 "C:\Users\Lshi\Documents\Extracurriculars\Gov School\Robotics\GSET_Robotics\Maze\409_Maze_Test.nxc"
11	155	16	#line 155 "C:\Users\Lshi\Documents\Extracurriculars\Gov School\Robotics\GSET_Robotics\Maze\409_Maze_Test.nxc"
11	156	16		mov __signed_stack_001turnCheck, __D0turnCheck
11	155	18	#line 155 "C:\Users\Lshi\Documents\Extracurriculars\Gov School\Robotics\GSET_Robotics\Maze\409_Maze_Test.nxc"
11	156	18		set __D0turnCheck, 25
11	155	21	#line 155 "C:\Users\Lshi\Documents\Extracurriculars\Gov School\Robotics\GSET_Robotics\Maze\409_Maze_Test.nxc"
11	156	21		cmp 1, __zfturnCheck, __signed_stack_001turnCheck, __D0turnCheck
11	155	25	#line 155 "C:\Users\Lshi\Documents\Extracurriculars\Gov School\Robotics\GSET_Robotics\Maze\409_Maze_Test.nxc"
11	156	25		mov __D0turnCheck, __zfturnCheck
11	156	27	#line 156 "C:\Users\Lshi\Documents\Extracurriculars\Gov School\Robotics\GSET_Robotics\Maze\409_Maze_Test.nxc"
11	157	27		brtst 4, __NXC_Label_661, __zfturnCheck
11	157	30	#line 157 "C:\Users\Lshi\Documents\Extracurriculars\Gov School\Robotics\GSET_Robotics\Maze\409_Maze_Test.nxc"
11	158	30		set __D0turnCheck, 1
11	157	33	#line 157 "C:\Users\Lshi\Documents\Extracurriculars\Gov School\Robotics\GSET_Robotics\Maze\409_Maze_Test.nxc"
11	158	33		subret __turnCheck_return
11	157	35	#line 157 "C:\Users\Lshi\Documents\Extracurriculars\Gov School\Robotics\GSET_Robotics\Maze\409_Maze_Test.nxc"
11	159	35	#line 159 "C:\Users\Lshi\Documents\Extracurriculars\Gov School\Robotics\GSET_Robotics\Maze\409_Maze_Test.nxc"
11	160	35		jmp __NXC_Label_664
11	160	37	#line 160 "C:\Users\Lshi\Documents\Extracurriculars\Gov School\Robotics\GSET_Robotics\Maze\409_Maze_Test.nxc"
11	161	37		set __D0turnCheck, 0
11	160	40	#line 160 "C:\Users\Lshi\Documents\Extracurriculars\Gov School\Robotics\GSET_Robotics\Maze\409_Maze_Test.nxc"
11	161	40		subret __turnCheck_return
11	160	42	#line 160 "C:\Users\Lshi\Documents\Extracurriculars\Gov School\Robotics\GSET_Robotics\Maze\409_Maze_Test.nxc"
11	163	42	#line 163 "C:\Users\Lshi\Documents\Extracurriculars\Gov School\Robotics\GSET_Robotics\Maze\409_Maze_Test.nxc"
11	163	42	#line 163 "C:\Users\Lshi\Documents\Extracurriculars\Gov School\Robotics\GSET_Robotics\Maze\409_Maze_Test.nxc"
11	164	42		subret __turnCheck_return
12	165	0	#line 165 "C:\Users\Lshi\Documents\Extracurriculars\Gov School\Robotics\GSET_Robotics\Maze\409_Maze_Test.nxc"
12	166	0		set __D0ballFind, 0
12	165	3	#line 165 "C:\Users\Lshi\Documents\Extracurriculars\Gov School\Robotics\GSET_Robotics\Maze\409_Maze_Test.nxc"
12	166	3		subret __ballFind_return
12	165	5	#line 165 "C:\Users\Lshi\Documents\Extracurriculars\Gov School\Robotics\GSET_Robotics\Maze\409_Maze_Test.nxc"
12	167	5	#line 167 "C:\Users\Lshi\Documents\Extracurriculars\Gov School\Robotics\GSET_Robotics\Maze\409_Maze_Test.nxc"
12	168	5		subret __ballFind_return
13	172	0		exit -1, -1
14	219	0	#line 219 "C:\Users\Lshi\Documents\Extracurriculars\Gov School\Robotics\GSET_Robotics\Maze\409_Maze_Test.nxc"
14	220	0		subret ____initialize_global_data_return
#CLUMPS
Clump	Name	Offset	File
0	main	0	C:\Users\Lshi\Documents\Extracurriculars\Gov School\Robotics\GSET_Robotics\Maze\409_Maze_Test.nxc
1	__RotateMotor1	50	NXTDefs.h
2	__RotateMotor6	219	NXTDefs.h
3	__RotateMotorVar	388	NXTDefs.h
4	__ResetSensorSubroutine	431	NXTDefs.h
5	__ReadLSBytes1	444	NXTDefs.h
6	mazeNav	529	C:\Users\Lshi\Documents\Extracurriculars\Gov School\Robotics\GSET_Robotics\Maze\409_Maze_Test.nxc
7	turnHeadTo	690	C:\Users\Lshi\Documents\Extracurriculars\Gov School\Robotics\GSET_Robotics\Maze\409_Maze_Test.nxc
8	driveUpToNotWall	731	C:\Users\Lshi\Documents\Extracurriculars\Gov School\Robotics\GSET_Robotics\Maze\409_Maze_Test.nxc
9	driveUpToWall	809	C:\Users\Lshi\Documents\Extracurriculars\Gov School\Robotics\GSET_Robotics\Maze\409_Maze_Test.nxc
10	singleWheelTurn	886	C:\Users\Lshi\Documents\Extracurriculars\Gov School\Robotics\GSET_Robotics\Maze\409_Maze_Test.nxc
11	turnCheck	933	C:\Users\Lshi\Documents\Extracurriculars\Gov School\Robotics\GSET_Robotics\Maze\409_Maze_Test.nxc
12	ballFind	977	C:\Users\Lshi\Documents\Extracurriculars\Gov School\Robotics\GSET_Robotics\Maze\409_Maze_Test.nxc
13	ballCatch	984	C:\Users\Lshi\Documents\Extracurriculars\Gov School\Robotics\GSET_Robotics\Maze\409_Maze_Test.nxc
14	__initialize_global_data	987	C:\Users\Lshi\Documents\Extracurriculars\Gov School\Robotics\GSET_Robotics\Maze\409_Maze_Test.nxc
