#SYMBOLS
Index	Identifier	Type	Flag	Data	Size	RefCount
0	__signed_stack_003color	6	1	0	4	2
1	__signed_stack_002color	6	1	4	4	4
2	__signed_stack_001color	6	1	8	4	10
3	__signed_stack_001doubleWheelTurn	6	1	12	4	8
4	__float_stack_003doubleWheelTurn	10	1	16	4	4
5	__float_stack_002doubleWheelTurn	10	1	20	4	4
6	__float_stack_001doubleWheelTurn	10	1	24	4	4
7	__CLSCSMutex1	9	0	28	4	2
8	__signed_stack_002ballCatch	6	1	32	4	2
9	__CLSCSMutex2	9	0	36	4	2
10	__signed_stack_001ballCatch	6	1	40	4	18
11	__CLSRMutex1	9	0	44	4	2
12	__float_stack_001ballCatch	10	1	48	4	2
13	__CLSWMutex1	9	0	52	4	2
14	__signed_stack_003ballCatch	6	1	56	4	2
15	__signed_stack_002singleWheelTurn	6	1	60	4	2
16	__signed_stack_001singleWheelTurn	6	1	64	4	2
17	__signed_stack_001mazeNav	6	1	68	4	28
18	__signed_stack_001switchDir	6	1	72	4	8
19	__signed_stack_001turnHeadTo	6	1	76	4	4
20	__rotate_theAngle6	5	1	80	4	2
21	__signed_stack_001turnCheck	6	1	84	4	2
22	__signed_stack_001main	6	1	88	4	2
23	__signed_stack_001driveUpToWall	6	1	92	4	12
24	__signed_stack_001driveUpToNotWall	6	1	96	4	4
25	__float_stack_004doubleWheelTurn	10	1	100	4	4
26	__signed_stack_002driveUpToWall	6	1	104	4	4
27	__signed_stack_003lineFollow	6	1	108	4	4
28	__signed_stack_002lineFollow	6	1	112	4	14
29	__signed_stack_001lineFollow	6	1	116	4	16
30	__CLSWMutex2	9	0	120	4	2
31	__RLSBmutex3	9	0	124	4	10
32	__turnHeadTo_7qG2_delta_7qG2_000	6	1	128	4	2
33	__D0driveUpToWall	6	1	132	4	22
34	__D0lineFollow	6	1	136	4	41
35	__D0switchDir	6	1	140	4	10
36	__DF0singleWheelTurn	10	1	144	4	2
37	__D0mazeNav	6	1	148	4	38
38	__D0driveUpToNotWall	6	1	152	4	6
39	__SPTArgsMutex	9	0	156	4	4
40	__D0ballCatch	6	1	160	4	34
41	__DF0ballCatch	10	1	164	4	2
42	__D0ballFind	6	1	168	4	7
43	__DF0doubleWheelTurn	10	1	172	4	4
44	__D0doubleWheelTurn	6	1	176	4	6
45	__D0color	6	1	180	4	23
46	__CLSWMutex3	9	0	184	4	2
47	__CLSRMutex3	9	0	188	4	2
48	__constValf2P65	10	0	192	4	1
49	__D0SetSensorLowspeed_inline_SetSensorUltrasonic	6	1	196	4	3
50	__CLSRMutex2	9	0	200	4	2
51	__DU0SetSensorLowspeed_inline_SetSensorUltrasonic	5	1	204	4	2
52	__CLSCSMutex3	9	0	208	4	2
53	__DU0SetSensorLight_inline_main	5	1	212	4	2
54	__D0turnCheck	6	1	216	4	10
55	__constValf0P5	10	0	220	4	2
56	__RLSBmutex2	9	0	224	4	6
57	__D0turnHeadTo	6	1	228	4	4
58	__D0SetSensorLight_inline_main	6	1	232	4	3
59	__RLSBmutex1	9	0	236	4	4
60	__constValf3P2	10	0	240	4	1
61	__Wait_7qG2_ms_7qG2_000_inline_color	5	1	244	4	2
62	__Wait_7qG2_ms_7qG2_000_inline_lineFollow	5	1	248	4	2
63	__constVal100000	6	0	252	4	1
64	__Wait_7qG2_ms_7qG2_000_inline_mazeNav	5	1	256	4	26
65	__constValf4P8	10	0	260	4	1
66	__rotate_theAngle4	5	1	264	4	2
67	__rotate_theAngle1	5	1	268	4	2
68	__rotate_angle4	6	1	272	4	6
69	__rotateMutex1	9	0	276	4	8
70	__rotateMutex2	9	0	280	4	6
71	__constVal42424242	6	0	284	4	1
72	__rotateMutex0	9	0	288	4	6
73	__Wait_7qG2_ms_7qG2_000_inline_singleWheelTurn	5	1	292	4	2
74	__constVal999999	6	0	296	4	1
75	__constVal203940234	6	0	300	4	3
76	__rotate_angle1	6	1	304	4	7
77	__rotate_angle6	6	1	308	4	5
78	__Wait_7qG2_ms_7qG2_000_inline_doubleWheelTurn	5	1	312	4	2
79	__singleWheelTurn_7qG2_degrees_7qG2_000	4	1	316	2	2
80	__rotate_OldRotCount1	4	1	318	2	2
81	mode	4	0	320	2	6
82	__turnHeadTo_7qG2_degrees_7qG2_000	4	1	322	2	6
83	__driveUpToWall_7qG2_look_7qG2_000	4	1	324	2	16
84	__driveUpToNotWall_7qG2_look2_7qG2_000	4	1	326	2	7
85	__rotate_RotCount1	4	1	328	2	4
86	__doubleWheelTurn_7qG2_degrees_7qG2_000	4	1	330	2	27
87	__ballCatch_7qG2_i_7qG2_002	4	1	332	2	10
88	__rotate_OldRotCount6	4	1	334	2	2
89	black	4	1	336	2	3
90	__constValNeg180	4	0	338	2	1
91	__rotate_RotCount6	4	1	340	2	4
92	dir	4	0	342	2	25
93	ballAngle	4	1	344	2	3
94	white	4	1	346	2	2
95	lightAvg	4	1	348	2	7
96	__rotate_RotCount4	4	1	350	2	4
97	__rotate_OldRotCount4	4	1	352	2	2
98	__constValNeg30	2	0	354	1	1
99	__zfmazeNav	1	1	355	1	14
100	__SetSensorMode_7qG2_port_7qG2_000_inline_SetSensorLight_inline_main	1	1	356	1	2
101	__SetSensorMode_7qG2_mode_7qG2_000_inline_SetSensorLight_inline_main	1	1	357	1	2
102	__singleWheelTurn_return	1	1	358	1	3
103	__zflineFollow	1	1	359	1	16
104	__zfdriveUpToWall	1	1	360	1	16
105	__SetSensorLowspeed_7qG2_port_7qG2_000_inline_SetSensorUltrasonic_inline_main	1	1	361	1	4
106	__zfdriveUpToNotWall	1	1	362	1	2
107	__SetSensorLight_7qG2_port_7qG2_000_inline_main	1	1	363	1	4
108	__SetSensorLight_7qG2_bActive_7qG2_000_inline_main	1	1	364	1	2
109	____initialize_global_data_return	1	1	365	1	3
110	__switchDir_return	1	1	366	1	3
111	__SetSensorType_7qG2_port_7qG2_000_inline_SetSensorLight_inline_main	1	1	367	1	2
112	__SetSensorType_7qG2_type_7qG2_000_inline_SetSensorLight_inline_main	1	1	368	1	2
113	__zfcolor	1	1	369	1	13
114	__zfdoubleWheelTurn	1	1	370	1	6
115	__SetSensorLowspeed_7qG2_bIsPowered_7qG2_000_inline_SetSensorUltrasonic_inline_main	1	1	371	1	2
116	__SetSensorMode_7qG2_mode_7qG2_000_inline_SetSensorLowspeed_inline_SetSensorUltrasonic_inline_main	1	1	372	1	2
117	__zfSetSensorLight_inline_main	1	1	373	1	2
118	__SetSensorType_7qG2_type_7qG2_000_inline_SetSensorLowspeed_inline_SetSensorUltrasonic_inline_main	1	1	374	1	2
119	__SetSensorMode_7qG2_port_7qG2_000_inline_SetSensorLowspeed_inline_SetSensorUltrasonic_inline_main	1	1	375	1	2
120	__SetSensorType_7qG2_port_7qG2_000_inline_main	1	1	376	1	4
121	__SetSensorType_7qG2_type_7qG2_000_inline_main	1	1	377	1	4
122	__zfSetSensorLowspeed_inline_SetSensorUltrasonic	1	1	378	1	2
123	__constVal63	2	0	379	1	23
124	__constVal96	2	0	380	1	29
125	__SetSensorType_7qG2_port_7qG2_000_inline_SetSensorLowspeed_inline_SetSensorUltrasonic_inline_main	1	1	381	1	2
126	__zfswitchDir	1	1	382	1	6
127	__ballCatch_return	1	1	383	1	7
128	__singleWheelTurn_7qG2_motor_7qG2_000	1	1	384	1	2
129	__driveUpToNotWall_return	1	1	385	1	8
130	__ballFind_return	1	1	386	1	9
131	__constValNeg90	2	0	387	1	14
132	__driveUpToWall_return	1	1	388	1	15
133	__zfturnCheck	1	1	389	1	3
134	__doubleWheelTurn_return	1	1	390	1	25
135	__rotate_power6	1	1	391	1	4
136	__rotate_theTurnPct4	2	1	392	1	4
137	__rotate_thePower4	2	1	393	1	4
138	__rotate_stop6	1	1	394	1	2
139	__rotate_sync6	1	1	395	1	2
140	__rotate_firstPort6	1	1	396	1	5
141	__rotate_theRVP4	1	1	397	1	3
142	__rotate_theRS4	1	1	398	1	3
143	__rotate_theRM4	1	1	399	1	4
144	__rotate_rs4	1	1	400	1	2
145	__rotate_theRVD4	1	1	401	1	3
146	__rotate_theRVI4	1	1	402	1	3
147	__rotate_rs6	1	1	403	1	10
148	__rotate_theRVD6	1	1	404	1	2
149	__rotate_theRVI6	1	1	405	1	2
150	__constVal32	2	0	406	1	84
151	__rotate_theTurnPct6	2	1	407	1	4
152	__rotate_thePower6	2	1	408	1	4
153	__rotate_theOM6	1	1	409	1	7
154	__rotate_theUF6	1	1	410	1	6
155	__rotate_turnpct6	2	1	411	1	3
156	__rotate_theRVP6	1	1	412	1	2
157	__rotate_theRS6	1	1	413	1	3
158	__rotate_theRM6	1	1	414	1	4
159	__rotate_theOM1	1	1	415	1	7
160	__rotate_theUF1	1	1	416	1	6
161	__rotate_turnpct1	2	1	417	1	5
162	__rotate_theRVP1	1	1	418	1	4
163	__rotate_theRS1	1	1	419	1	3
164	__rotate_theRM1	1	1	420	1	4
165	__rotate_power1	1	1	421	1	6
166	__constVal45	2	0	422	1	1
167	__constVal60	2	0	423	1	17
168	__rotate_stop1	1	1	424	1	4
169	__rotate_sync1	1	1	425	1	4
170	__rotate_firstPort1	1	1	426	1	5
171	__rotate_stop4	1	1	427	1	3
172	__rotate_sync4	1	1	428	1	3
173	__rotate_firstPort4	1	1	429	1	5
174	__rotate_theOM4	1	1	430	1	7
175	__rotate_theUF4	1	1	431	1	6
176	__rotate_turnpct4	2	1	432	1	4
177	__rotate_rs1	1	1	433	1	2
178	__rotate_theRVD1	1	1	434	1	4
179	__rotate_theRVI1	1	1	435	1	4
180	__rotate_power4	1	1	436	1	5
181	__rotate_theTurnPct1	2	1	437	1	4
182	__rotate_thePower1	2	1	438	1	4
183	__constVal1	2	0	439	1	27
184	____ReadLSBytes1_return	1	1	440	1	4
185	__constVal15	2	0	441	1	7
186	__RLSBytesCount1	1	1	442	1	8
187	__RLSBResult1	2	1	443	1	7
188	__RLSBytesCount3	1	1	444	1	11
189	__constVal100	2	0	445	1	1
190	__constValNeg100	2	0	446	1	1
191	__RLSBIterations3	1	1	447	1	4
192	__turnHeadTo_return	1	1	448	1	7
193	__RLSBIterations1	1	1	449	1	4
194	__constVal2	2	0	450	1	24
195	__turnCheck_return	1	1	451	1	6
196	__RLSBResult3	2	1	452	1	7
197	____ReadLSBytes3_return	1	1	453	1	7
198	__RLSBIterations2	1	1	454	1	4
199	__constValNeg1	2	0	455	1	4
200	____ReadLSBytes2_return	1	1	456	1	5
201	__RLSBytesCount2	1	1	457	1	9
202	__RLSBResult2	2	1	458	1	7
203	__PFTmp	1	1	459	1	1
204	____RotateMotor6_return	1	1	460	1	3
205	____RotateMotor4_sign_tmp	2	1	461	1	4
206	____RotateMotorVar_return	1	1	462	1	3
207	____RotateMotor6_sign_tmp	2	1	463	1	4
208	____RotateMotor4_return	1	1	464	1	4
209	__constVal50	2	0	465	1	3
210	__constVal0	2	1	466	1	79
211	____RotateMotor1_sign_tmp	2	1	467	1	4
212	____RotateMotor1_return	1	1	468	1	5
213	__constVal3	2	0	469	1	7
214	____ResetSensorSubroutine_return	1	1	470	1	4
215	__ResetSensorTmp	1	1	471	1	2
216	__constVal7	2	0	472	1	18
217	__zfballCatch	1	1	473	1	21
218	__constVal4	2	0	474	1	1
219	__constVal6	2	0	475	1	1
220	__ResetSensorPort	1	1	476	1	4
221	__constVal5	2	0	477	1	1
222	__SPTArgs	8	0	5	8	12
223	__SPTArgs.Result	2	1	480	1	12
224	__SPTArgs.Frequency	3	1	482	2	12
225	__SPTArgs.Duration	3	1	484	2	12
226	__SPTArgs.Loop	1	1	486	1	12
227	__SPTArgs.Volume	1	1	487	1	12
228	__CLSRArgs1	8	0	4	12	5
229	__CLSRArgs1.Result	2	1	488	1	5
230	__CLSRArgs1.Port	1	1	489	1	5
231	__CLSRArgs1.Buffer	7	0	490	4	5
232	__CLSRArgs1.Buffer.Buffer_type	1	0	0	1	0
233	__CLSRArgs1.BufferLen	1	1	492	1	5
234	__CLSCSArgs2	8	0	3	4	4
235	__CLSCSArgs2.Result	2	1	496	1	4
236	__CLSCSArgs2.Port	1	1	497	1	4
237	__CLSCSArgs2.BytesReady	1	1	498	1	4
238	__CLSCSArgs1	8	0	3	4	4
239	__CLSCSArgs1.Result	2	1	500	1	4
240	__CLSCSArgs1.Port	1	1	501	1	4
241	__CLSCSArgs1.BytesReady	1	1	502	1	4
242	__CLSWArgs1	8	0	4	12	5
243	__CLSWArgs1.Result	2	1	504	1	5
244	__CLSWArgs1.Port	1	1	505	1	5
245	__CLSWArgs1.Buffer	7	0	506	4	5
246	__CLSWArgs1.Buffer.Buffer_type	1	0	0	1	0
247	__CLSWArgs1.ReturnLen	1	1	508	1	5
248	__CLSWArgs2	8	0	4	12	5
249	__CLSWArgs2.Result	2	1	512	1	5
250	__CLSWArgs2.Port	1	1	513	1	5
251	__CLSWArgs2.Buffer	7	0	514	4	5
252	__CLSWArgs2.Buffer.Buffer_type	1	0	0	1	0
253	__CLSWArgs2.ReturnLen	1	1	516	1	5
254	__CLSWArgs3	8	0	4	12	5
255	__CLSWArgs3.Result	2	1	520	1	5
256	__CLSWArgs3.Port	1	1	521	1	5
257	__CLSWArgs3.Buffer	7	0	522	4	5
258	__CLSWArgs3.Buffer.Buffer_type	1	0	0	1	0
259	__CLSWArgs3.ReturnLen	1	1	524	1	5
260	__CLSRArgs3	8	0	4	12	5
261	__CLSRArgs3.Result	2	1	528	1	5
262	__CLSRArgs3.Port	1	1	529	1	5
263	__CLSRArgs3.Buffer	7	0	530	4	5
264	__CLSRArgs3.Buffer.Buffer_type	1	0	0	1	0
265	__CLSRArgs3.BufferLen	1	1	532	1	5
266	__CLSRArgs2	8	0	4	12	5
267	__CLSRArgs2.Result	2	1	536	1	5
268	__CLSRArgs2.Port	1	1	537	1	5
269	__CLSRArgs2.Buffer	7	0	538	4	5
270	__CLSRArgs2.Buffer.Buffer_type	1	0	0	1	0
271	__CLSRArgs2.BufferLen	1	1	540	1	5
272	__CLSCSArgs3	8	0	3	4	4
273	__CLSCSArgs3.Result	2	1	544	1	4
274	__CLSCSArgs3.Port	1	1	545	1	4
275	__CLSCSArgs3.BytesReady	1	1	546	1	4
276	__rotate_ports1	7	0	548	4	8
277	__rotate_ports1.__rotate_ports1_type	1	0	0	1	0
278	__rotate_ports4	7	0	550	4	7
279	__rotate_ports4.__rotate_ports4_type	1	0	0	1	0
280	__rotate_ports6	7	0	552	4	12
281	__rotate_ports6.__rotate_ports6_type	1	0	0	1	0
282	__OUT_ABC	7	0	554	4	1
283	__OUT_ABC.__OUT_ABC_type	1	0	0	1	0
284	__OUT_AB	7	0	556	4	1
285	__OUT_AB.__OUT_AB_type	1	0	0	1	0
286	__OUT_AC	7	0	558	4	22
287	__OUT_AC.__OUT_AC_type	1	0	0	1	0
288	__OUT_BC	7	0	560	4	1
289	__OUT_BC.__OUT_BC_type	1	0	0	1	0
290	__RLSReadBuf2	7	0	562	4	12
291	__RLSReadBuf2.__RLSReadBuf2_type	1	0	0	1	0
292	__RLSLastGoodRead3	7	0	564	4	2
293	__RLSLastGoodRead3.__RLSLastGoodRead3_type	1	0	0	1	0
294	__RLSReadBuf3	7	0	566	4	16
295	__RLSReadBuf3.__RLSReadBuf3_type	1	0	0	1	0
296	__RLSLastGoodRead2	7	0	568	4	2
297	__RLSLastGoodRead2.__RLSLastGoodRead2_type	1	0	0	1	0
298	__RLSBbufLSWrite1	7	0	570	4	10
299	__RLSBbufLSWrite1.__RLSBbufLSWrite1_type	1	0	0	1	0
300	__RLSLastGoodRead1	7	0	572	4	2
301	__RLSLastGoodRead1.__RLSLastGoodRead1_type	1	0	0	1	0
302	__RLSReadBuf1	7	0	574	4	10
303	__RLSReadBuf1.__RLSReadBuf1_type	1	0	0	1	0
#SOURCES
Clump	Line	PC	Source
0	45	0	#line 45 "C:\Users\Lshi\Documents\Extracurriculars\Gov School\Robotics\GSET_Robotics\Maze\409_Maze_Test.nxc"
0	46	0		subcall __initialize_global_data, ____initialize_global_data_return
0	45	2	#line 45 "C:\Users\Lshi\Documents\Extracurriculars\Gov School\Robotics\GSET_Robotics\Maze\409_Maze_Test.nxc"
0	45	2	#line 45 "C:\Users\Lshi\Documents\Extracurriculars\Gov School\Robotics\GSET_Robotics\Maze\409_Maze_Test.nxc"
0	46	2		set __SetSensorLight_7qG2_port_7qG2_000_inline_main, 0
0	45	5	#line 45 "C:\Users\Lshi\Documents\Extracurriculars\Gov School\Robotics\GSET_Robotics\Maze\409_Maze_Test.nxc"
0	45	5	#line 45 "C:\Users\Lshi\Documents\Extracurriculars\Gov School\Robotics\GSET_Robotics\Maze\409_Maze_Test.nxc"
0	46	5		set __SetSensorLight_7qG2_bActive_7qG2_000_inline_main, 1
0	45	8	#line 45 "C:\Users\Lshi\Documents\Extracurriculars\Gov School\Robotics\GSET_Robotics\Maze\409_Maze_Test.nxc"
0	3729	8	#line 3729 "NXCDefs.h"
0	3730	8		mov __SetSensorType_7qG2_port_7qG2_000_inline_SetSensorLight_inline_main, __SetSensorLight_7qG2_port_7qG2_000_inline_main
0	3729	10	#line 3729 "NXCDefs.h"
0	3729	10	#line 3729 "NXCDefs.h"
0	3730	10		mov __DU0SetSensorLight_inline_main, __SetSensorLight_7qG2_bActive_7qG2_000_inline_main
0	3729	12	#line 3729 "NXCDefs.h"
0	3730	12		tst 5, __zfSetSensorLight_inline_main, __DU0SetSensorLight_inline_main
0	3729	15	#line 3729 "NXCDefs.h"
0	3730	15		brtst 4, __001__NXC_Label_4, __zfSetSensorLight_inline_main
0	3729	18	#line 3729 "NXCDefs.h"
0	3730	18		set __D0SetSensorLight_inline_main, 5
0	3729	21	#line 3729 "NXCDefs.h"
0	3730	21		jmp __001__NXC_Label_5
0	3729	23	#line 3729 "NXCDefs.h"
0	3730	23		set __D0SetSensorLight_inline_main, 6
0	3729	26	#line 3729 "NXCDefs.h"
0	3730	26		mov __SetSensorType_7qG2_type_7qG2_000_inline_SetSensorLight_inline_main, __D0SetSensorLight_inline_main
0	3663	28	#line 3663 "NXCDefs.h"
0	3664	28		setin __SetSensorType_7qG2_type_7qG2_000_inline_SetSensorLight_inline_main, __SetSensorType_7qG2_port_7qG2_000_inline_SetSensorLight_inline_main, 0
0	3663	32	#line 3663 "NXCDefs.h"
0	3730	32	#line 3730 "NXCDefs.h"
0	3730	32	#line 3730 "NXCDefs.h"
0	3731	32		mov __SetSensorMode_7qG2_port_7qG2_000_inline_SetSensorLight_inline_main, __SetSensorLight_7qG2_port_7qG2_000_inline_main
0	3730	34	#line 3730 "NXCDefs.h"
0	3730	34	#line 3730 "NXCDefs.h"
0	3731	34		set __SetSensorMode_7qG2_mode_7qG2_000_inline_SetSensorLight_inline_main, 128
0	3730	37	#line 3730 "NXCDefs.h"
0	3676	37	#line 3676 "NXCDefs.h"
0	3677	37		setin __SetSensorMode_7qG2_mode_7qG2_000_inline_SetSensorLight_inline_main, __SetSensorMode_7qG2_port_7qG2_000_inline_SetSensorLight_inline_main, 1
0	3676	41	#line 3676 "NXCDefs.h"
0	3731	41	#line 3731 "NXCDefs.h"
0	3731	41	#line 3731 "NXCDefs.h"
0	3731	41	#line 3731 "NXCDefs.h"
0	3694	41	#line 3694 "NXCDefs.h"
0	3695	41	#pragma macro 4
0	3695	41		mov __ResetSensorPort, __SetSensorLight_7qG2_port_7qG2_000_inline_main
0	3695	43		subcall __ResetSensorSubroutine, ____ResetSensorSubroutine_return
0	5261	46	#line 5261 "NXCDefs.h"
0	3694	46	#line 3694 "NXCDefs.h"
0	3732	46	#line 3732 "NXCDefs.h"
0	46	46	#line 46 "C:\Users\Lshi\Documents\Extracurriculars\Gov School\Robotics\GSET_Robotics\Maze\409_Maze_Test.nxc"
0	46	46	#line 46 "C:\Users\Lshi\Documents\Extracurriculars\Gov School\Robotics\GSET_Robotics\Maze\409_Maze_Test.nxc"
0	46	46	#line 46 "C:\Users\Lshi\Documents\Extracurriculars\Gov School\Robotics\GSET_Robotics\Maze\409_Maze_Test.nxc"
0	3768	46	#line 3768 "NXCDefs.h"
0	3769	46		mov __SetSensorLowspeed_7qG2_port_7qG2_000_inline_SetSensorUltrasonic_inline_main, __constVal1
0	3768	48	#line 3768 "NXCDefs.h"
0	3768	48	#line 3768 "NXCDefs.h"
0	3769	48		mov __SetSensorLowspeed_7qG2_bIsPowered_7qG2_000_inline_SetSensorUltrasonic_inline_main, __constVal1
0	3758	50	#line 3758 "NXCDefs.h"
0	3759	50		mov __SetSensorType_7qG2_port_7qG2_000_inline_SetSensorLowspeed_inline_SetSensorUltrasonic_inline_main, __SetSensorLowspeed_7qG2_port_7qG2_000_inline_SetSensorUltrasonic_inline_main
0	3758	52	#line 3758 "NXCDefs.h"
0	3758	52	#line 3758 "NXCDefs.h"
0	3759	52		mov __DU0SetSensorLowspeed_inline_SetSensorUltrasonic, __SetSensorLowspeed_7qG2_bIsPowered_7qG2_000_inline_SetSensorUltrasonic_inline_main
0	3758	54	#line 3758 "NXCDefs.h"
0	3759	54		tst 5, __zfSetSensorLowspeed_inline_SetSensorUltrasonic, __DU0SetSensorLowspeed_inline_SetSensorUltrasonic
0	3758	57	#line 3758 "NXCDefs.h"
0	3759	57		brtst 4, __001__001__NXC_Label_36, __zfSetSensorLowspeed_inline_SetSensorUltrasonic
0	3758	60	#line 3758 "NXCDefs.h"
0	3759	60		set __D0SetSensorLowspeed_inline_SetSensorUltrasonic, 11
0	3758	63	#line 3758 "NXCDefs.h"
0	3759	63		jmp __001__001__NXC_Label_37
0	3758	65	#line 3758 "NXCDefs.h"
0	3759	65		set __D0SetSensorLowspeed_inline_SetSensorUltrasonic, 10
0	3758	68	#line 3758 "NXCDefs.h"
0	3759	68		mov __SetSensorType_7qG2_type_7qG2_000_inline_SetSensorLowspeed_inline_SetSensorUltrasonic_inline_main, __D0SetSensorLowspeed_inline_SetSensorUltrasonic
0	3663	70	#line 3663 "NXCDefs.h"
0	3664	70		setin __SetSensorType_7qG2_type_7qG2_000_inline_SetSensorLowspeed_inline_SetSensorUltrasonic_inline_main, __SetSensorType_7qG2_port_7qG2_000_inline_SetSensorLowspeed_inline_SetSensorUltrasonic_inline_main, 0
0	3663	74	#line 3663 "NXCDefs.h"
0	3759	74	#line 3759 "NXCDefs.h"
0	3759	74	#line 3759 "NXCDefs.h"
0	3760	74		mov __SetSensorMode_7qG2_port_7qG2_000_inline_SetSensorLowspeed_inline_SetSensorUltrasonic_inline_main, __SetSensorLowspeed_7qG2_port_7qG2_000_inline_SetSensorUltrasonic_inline_main
0	3759	76	#line 3759 "NXCDefs.h"
0	3759	76	#line 3759 "NXCDefs.h"
0	3760	76		set __SetSensorMode_7qG2_mode_7qG2_000_inline_SetSensorLowspeed_inline_SetSensorUltrasonic_inline_main, 0
0	3759	79	#line 3759 "NXCDefs.h"
0	3676	79	#line 3676 "NXCDefs.h"
0	3677	79		setin __SetSensorMode_7qG2_mode_7qG2_000_inline_SetSensorLowspeed_inline_SetSensorUltrasonic_inline_main, __SetSensorMode_7qG2_port_7qG2_000_inline_SetSensorLowspeed_inline_SetSensorUltrasonic_inline_main, 1
0	3676	83	#line 3676 "NXCDefs.h"
0	3760	83	#line 3760 "NXCDefs.h"
0	3760	83	#line 3760 "NXCDefs.h"
0	3760	83	#line 3760 "NXCDefs.h"
0	3694	83	#line 3694 "NXCDefs.h"
0	3695	83	#pragma macro 4
0	3695	83		mov __ResetSensorPort, __SetSensorLowspeed_7qG2_port_7qG2_000_inline_SetSensorUltrasonic_inline_main
0	3695	85		subcall __ResetSensorSubroutine, ____ResetSensorSubroutine_return
0	5366	88	#line 5366 "NXCDefs.h"
0	3694	88	#line 3694 "NXCDefs.h"
0	3761	88	#line 3761 "NXCDefs.h"
0	3768	88	#line 3768 "NXCDefs.h"
0	47	88	#line 47 "C:\Users\Lshi\Documents\Extracurriculars\Gov School\Robotics\GSET_Robotics\Maze\409_Maze_Test.nxc"
0	47	88	#line 47 "C:\Users\Lshi\Documents\Extracurriculars\Gov School\Robotics\GSET_Robotics\Maze\409_Maze_Test.nxc"
0	48	88		set __SetSensorType_7qG2_port_7qG2_000_inline_main, 2
0	47	91	#line 47 "C:\Users\Lshi\Documents\Extracurriculars\Gov School\Robotics\GSET_Robotics\Maze\409_Maze_Test.nxc"
0	47	91	#line 47 "C:\Users\Lshi\Documents\Extracurriculars\Gov School\Robotics\GSET_Robotics\Maze\409_Maze_Test.nxc"
0	48	91		set __SetSensorType_7qG2_type_7qG2_000_inline_main, 10
0	47	94	#line 47 "C:\Users\Lshi\Documents\Extracurriculars\Gov School\Robotics\GSET_Robotics\Maze\409_Maze_Test.nxc"
0	3663	94	#line 3663 "NXCDefs.h"
0	3664	94		setin __SetSensorType_7qG2_type_7qG2_000_inline_main, __SetSensorType_7qG2_port_7qG2_000_inline_main, 0
0	3663	98	#line 3663 "NXCDefs.h"
0	48	98	#line 48 "C:\Users\Lshi\Documents\Extracurriculars\Gov School\Robotics\GSET_Robotics\Maze\409_Maze_Test.nxc"
0	48	98	#line 48 "C:\Users\Lshi\Documents\Extracurriculars\Gov School\Robotics\GSET_Robotics\Maze\409_Maze_Test.nxc"
0	49	98		set __SetSensorType_7qG2_port_7qG2_000_inline_main, 3
0	48	101	#line 48 "C:\Users\Lshi\Documents\Extracurriculars\Gov School\Robotics\GSET_Robotics\Maze\409_Maze_Test.nxc"
0	48	101	#line 48 "C:\Users\Lshi\Documents\Extracurriculars\Gov School\Robotics\GSET_Robotics\Maze\409_Maze_Test.nxc"
0	49	101		set __SetSensorType_7qG2_type_7qG2_000_inline_main, 10
0	48	104	#line 48 "C:\Users\Lshi\Documents\Extracurriculars\Gov School\Robotics\GSET_Robotics\Maze\409_Maze_Test.nxc"
0	3663	104	#line 3663 "NXCDefs.h"
0	3664	104		setin __SetSensorType_7qG2_type_7qG2_000_inline_main, __SetSensorType_7qG2_port_7qG2_000_inline_main, 0
0	3663	108	#line 3663 "NXCDefs.h"
0	54	108	#line 54 "C:\Users\Lshi\Documents\Extracurriculars\Gov School\Robotics\GSET_Robotics\Maze\409_Maze_Test.nxc"
0	55	108	#line 55 "C:\Users\Lshi\Documents\Extracurriculars\Gov School\Robotics\GSET_Robotics\Maze\409_Maze_Test.nxc"
0	56	108		set black, 19
0	55	111	#line 55 "C:\Users\Lshi\Documents\Extracurriculars\Gov School\Robotics\GSET_Robotics\Maze\409_Maze_Test.nxc"
0	55	111	#line 55 "C:\Users\Lshi\Documents\Extracurriculars\Gov School\Robotics\GSET_Robotics\Maze\409_Maze_Test.nxc"
0	56	111	#line 56 "C:\Users\Lshi\Documents\Extracurriculars\Gov School\Robotics\GSET_Robotics\Maze\409_Maze_Test.nxc"
0	57	111		set white, 45
0	56	114	#line 56 "C:\Users\Lshi\Documents\Extracurriculars\Gov School\Robotics\GSET_Robotics\Maze\409_Maze_Test.nxc"
0	56	114	#line 56 "C:\Users\Lshi\Documents\Extracurriculars\Gov School\Robotics\GSET_Robotics\Maze\409_Maze_Test.nxc"
0	56	114	#line 56 "C:\Users\Lshi\Documents\Extracurriculars\Gov School\Robotics\GSET_Robotics\Maze\409_Maze_Test.nxc"
0	56	114	#line 56 "C:\Users\Lshi\Documents\Extracurriculars\Gov School\Robotics\GSET_Robotics\Maze\409_Maze_Test.nxc"
0	56	114	#line 56 "C:\Users\Lshi\Documents\Extracurriculars\Gov School\Robotics\GSET_Robotics\Maze\409_Maze_Test.nxc"
0	56	114	#line 56 "C:\Users\Lshi\Documents\Extracurriculars\Gov School\Robotics\GSET_Robotics\Maze\409_Maze_Test.nxc"
0	57	114		add __signed_stack_001main, black, __constVal45
0	56	118	#line 56 "C:\Users\Lshi\Documents\Extracurriculars\Gov School\Robotics\GSET_Robotics\Maze\409_Maze_Test.nxc"
0	63	118	#line 63 "C:\Users\Lshi\Documents\Extracurriculars\Gov School\Robotics\GSET_Robotics\Maze\409_Maze_Test.nxc"
0	63	118	#line 63 "C:\Users\Lshi\Documents\Extracurriculars\Gov School\Robotics\GSET_Robotics\Maze\409_Maze_Test.nxc"
0	64	118		div lightAvg, __signed_stack_001main, __constVal2
0	63	122	#line 63 "C:\Users\Lshi\Documents\Extracurriculars\Gov School\Robotics\GSET_Robotics\Maze\409_Maze_Test.nxc"
0	63	122	#line 63 "C:\Users\Lshi\Documents\Extracurriculars\Gov School\Robotics\GSET_Robotics\Maze\409_Maze_Test.nxc"
0	64	122	#line 64 "C:\Users\Lshi\Documents\Extracurriculars\Gov School\Robotics\GSET_Robotics\Maze\409_Maze_Test.nxc"
0	65	122		set mode, 1
0	64	125	#line 64 "C:\Users\Lshi\Documents\Extracurriculars\Gov School\Robotics\GSET_Robotics\Maze\409_Maze_Test.nxc"
0	64	125	#line 64 "C:\Users\Lshi\Documents\Extracurriculars\Gov School\Robotics\GSET_Robotics\Maze\409_Maze_Test.nxc"
0	65	125	#line 65 "C:\Users\Lshi\Documents\Extracurriculars\Gov School\Robotics\GSET_Robotics\Maze\409_Maze_Test.nxc"
0	65	125	#line 65 "C:\Users\Lshi\Documents\Extracurriculars\Gov School\Robotics\GSET_Robotics\Maze\409_Maze_Test.nxc"
0	66	125		exit 0, 1
1	4529	0		brtst 4, __rotate_Done1, __rotate_angle1
1	4530	3		set ____RotateMotor1_sign_tmp, 0
1	4530	6		brtst EQ, __sign_1, __rotate_angle1
1	4530	9		set ____RotateMotor1_sign_tmp, -1
1	4530	12		brtst LT, __sign_1, __rotate_angle1
1	4530	15		set ____RotateMotor1_sign_tmp, 1
1	4530	18	__sign_1:	mov __rotate_thePower1, ____RotateMotor1_sign_tmp
1	4531	20		abs __rotate_theAngle1, __rotate_angle1
1	4532	23		mul __rotate_thePower1, __rotate_thePower1, __rotate_power1
1	4534	27		set __rotate_theUF1, 23
1	4535	30		brtst 4, __rotate_NoSync1, __rotate_sync1
1	4536	33		set __rotate_theOM1, 7
1	4537	36		set __rotate_theRM1, 2
1	4538	39		mov __rotate_theTurnPct1, __rotate_turnpct1
1	4539	41		brtst 4, __rotate_Start1, __rotate_theTurnPct1
1	4540	44		add __rotate_theUF1, __rotate_theUF1, __constVal32
1	4541	48		jmp __rotate_Start1
1	4543	50		set __rotate_theOM1, 3
1	4544	53		set __rotate_theRM1, 0
1	4545	56		set __rotate_theTurnPct1, 0
1	4547	59		set __rotate_theRS1, 32
1	4548	62		setout __rotate_ports1, 1, __rotate_theOM1, 8, __rotate_theRM1, 5, __rotate_theAngle1, 6, __rotate_theRS1, 10, __rotate_theRVP1, 11, __rotate_theRVI1, 12, __rotate_theRVD1, 2, __rotate_thePower1, 7, __rotate_turnpct1, 0, __rotate_theUF1
1	4551	85		index __rotate_firstPort1, __rotate_ports1, 65535
1	4553	89		getout __rotate_power1, __rotate_firstPort1, 2
1	4554	93		brtst 4, __rotate_doneRunning1, __rotate_power1
1	4555	96		getout __rotate_rs1, __rotate_firstPort1, 6
1	4556	100		brcmp 4, __rotate_Running1, __rotate_rs1, __constVal32
1	4558	104		brtst 4, __rotate_Reset1, __rotate_stop1
1	4560	107		set __rotate_theOM1, 7
1	4561	110		set __rotate_theUF1, 7
1	4562	113		setout __rotate_ports1, 1, __rotate_theOM1, 8, __constVal1, 6, __rotate_theRS1, 2, __constVal0, 5, __constVal0, 0, __rotate_theUF1
1	4564	128		getout __rotate_RotCount1, __rotate_firstPort1, 14
1	4566	132		mov __rotate_OldRotCount1, __rotate_RotCount1
1	4567	134		wait2 NA, __constVal50
1	4569	137		getout __rotate_RotCount1, __rotate_firstPort1, 14
1	4570	141		brcmp 5, __rotate_Stabilize1, __rotate_OldRotCount1, __rotate_RotCount1
1	4571	145		set __rotate_theOM1, 4
1	4572	148		setout __rotate_ports1, 8, __rotate_theRM1, 6, __constVal0, 1, __rotate_theOM1, 0, __constVal1
1	4575	159		brtst 4, __rotate_Done1, __rotate_theTurnPct1
1	4576	162		setout __rotate_ports1, 0, __constVal32
1	4578	167		subret ____RotateMotor1_return
2	4688	0		brtst 4, __rotate_Done4, __rotate_angle4
2	4689	3		set ____RotateMotor4_sign_tmp, 0
2	4689	6		brtst EQ, __sign_4, __rotate_angle4
2	4689	9		set ____RotateMotor4_sign_tmp, -1
2	4689	12		brtst LT, __sign_4, __rotate_angle4
2	4689	15		set ____RotateMotor4_sign_tmp, 1
2	4689	18	__sign_4:	mov __rotate_thePower4, ____RotateMotor4_sign_tmp
2	4690	20		abs __rotate_theAngle4, __rotate_angle4
2	4691	23		mul __rotate_thePower4, __rotate_thePower4, __rotate_power4
2	4693	27		set __rotate_theUF4, 23
2	4694	30		brtst 4, __rotate_NoSync4, __rotate_sync4
2	4695	33		set __rotate_theOM4, 7
2	4696	36		set __rotate_theRM4, 2
2	4697	39		mov __rotate_theTurnPct4, __rotate_turnpct4
2	4698	41		brtst 4, __rotate_Start4, __rotate_theTurnPct4
2	4699	44		add __rotate_theUF4, __rotate_theUF4, __constVal32
2	4700	48		jmp __rotate_Start4
2	4702	50		set __rotate_theOM4, 3
2	4703	53		set __rotate_theRM4, 0
2	4704	56		set __rotate_theTurnPct4, 0
2	4706	59		set __rotate_theRS4, 32
2	4707	62		setout __rotate_ports4, 1, __rotate_theOM4, 8, __rotate_theRM4, 5, __rotate_theAngle4, 6, __rotate_theRS4, 10, __rotate_theRVP4, 11, __rotate_theRVI4, 12, __rotate_theRVD4, 2, __rotate_thePower4, 7, __rotate_turnpct4, 0, __rotate_theUF4
2	4710	85		index __rotate_firstPort4, __rotate_ports4, 65535
2	4712	89		getout __rotate_power4, __rotate_firstPort4, 2
2	4713	93		brtst 4, __rotate_doneRunning4, __rotate_power4
2	4714	96		getout __rotate_rs4, __rotate_firstPort4, 6
2	4715	100		brcmp 4, __rotate_Running4, __rotate_rs4, __constVal32
2	4717	104		brtst 4, __rotate_Reset4, __rotate_stop4
2	4719	107		set __rotate_theOM4, 7
2	4720	110		set __rotate_theUF4, 7
2	4721	113		setout __rotate_ports4, 1, __rotate_theOM4, 8, __constVal1, 6, __rotate_theRS4, 2, __constVal0, 5, __constVal0, 0, __rotate_theUF4
2	4723	128		getout __rotate_RotCount4, __rotate_firstPort4, 14
2	4725	132		mov __rotate_OldRotCount4, __rotate_RotCount4
2	4726	134		wait2 NA, __constVal50
2	4728	137		getout __rotate_RotCount4, __rotate_firstPort4, 14
2	4729	141		brcmp 5, __rotate_Stabilize4, __rotate_OldRotCount4, __rotate_RotCount4
2	4730	145		set __rotate_theOM4, 4
2	4731	148		setout __rotate_ports4, 8, __rotate_theRM4, 6, __constVal0, 1, __rotate_theOM4, 0, __constVal1
2	4734	159		brtst 4, __rotate_Done4, __rotate_theTurnPct4
2	4735	162		setout __rotate_ports4, 0, __constVal32
2	4737	167		subret ____RotateMotor4_return
3	4794	0		brtst 4, __rotate_Done6, __rotate_angle6
3	4795	3		set ____RotateMotor6_sign_tmp, 0
3	4795	6		brtst EQ, __sign_6, __rotate_angle6
3	4795	9		set ____RotateMotor6_sign_tmp, -1
3	4795	12		brtst LT, __sign_6, __rotate_angle6
3	4795	15		set ____RotateMotor6_sign_tmp, 1
3	4795	18	__sign_6:	mov __rotate_thePower6, ____RotateMotor6_sign_tmp
3	4796	20		abs __rotate_theAngle6, __rotate_angle6
3	4797	23		mul __rotate_thePower6, __rotate_thePower6, __rotate_power6
3	4799	27		set __rotate_theUF6, 23
3	4800	30		brtst 4, __rotate_NoSync6, __rotate_sync6
3	4801	33		set __rotate_theOM6, 7
3	4802	36		set __rotate_theRM6, 2
3	4803	39		mov __rotate_theTurnPct6, __rotate_turnpct6
3	4804	41		brtst 4, __rotate_Start6, __rotate_theTurnPct6
3	4805	44		add __rotate_theUF6, __rotate_theUF6, __constVal32
3	4806	48		jmp __rotate_Start6
3	4808	50		set __rotate_theOM6, 3
3	4809	53		set __rotate_theRM6, 0
3	4810	56		set __rotate_theTurnPct6, 0
3	4812	59		set __rotate_theRS6, 32
3	4813	62		setout __rotate_ports6, 1, __rotate_theOM6, 8, __rotate_theRM6, 5, __rotate_theAngle6, 6, __rotate_theRS6, 10, __rotate_theRVP6, 11, __rotate_theRVI6, 12, __rotate_theRVD6, 2, __rotate_thePower6, 7, __rotate_turnpct6, 0, __rotate_theUF6
3	4816	85		index __rotate_firstPort6, __rotate_ports6, 65535
3	4818	89		getout __rotate_power6, __rotate_firstPort6, 2
3	4819	93		brtst 4, __rotate_doneRunning6, __rotate_power6
3	4820	96		getout __rotate_rs6, __rotate_firstPort6, 6
3	4821	100		brcmp 4, __rotate_Running6, __rotate_rs6, __constVal32
3	4823	104		brtst 4, __rotate_Reset6, __rotate_stop6
3	4825	107		set __rotate_theOM6, 7
3	4826	110		set __rotate_theUF6, 7
3	4827	113		setout __rotate_ports6, 1, __rotate_theOM6, 8, __constVal1, 6, __rotate_theRS6, 2, __constVal0, 5, __constVal0, 0, __rotate_theUF6
3	4829	128		getout __rotate_RotCount6, __rotate_firstPort6, 14
3	4831	132		mov __rotate_OldRotCount6, __rotate_RotCount6
3	4832	134		wait2 NA, __constVal50
3	4834	137		getout __rotate_RotCount6, __rotate_firstPort6, 14
3	4835	141		brcmp 5, __rotate_Stabilize6, __rotate_OldRotCount6, __rotate_RotCount6
3	4836	145		set __rotate_theOM6, 4
3	4837	148		setout __rotate_ports6, 8, __rotate_theRM6, 6, __constVal0, 1, __rotate_theOM6, 0, __constVal1
3	4840	159		brtst 4, __rotate_Done6, __rotate_theTurnPct6
3	4841	162		setout __rotate_ports6, 0, __constVal32
3	4843	167		subret ____RotateMotor6_return
4	4854	0		arrsize __rotate_rs6, __rotate_ports6
4	4855	3		brcmp 1, __rmvCallSub, __rotate_rs6, __constVal1
4	4857	7		index __rotate_rs6, __rotate_ports6, 65535
4	4858	11		brcmp 0, __rmvCallSub, __rotate_rs6, __constVal3
4	4859	15		brcmp 1, __rmvExit, __rotate_rs6, __constVal6
4	4861	19		mov __rotate_ports6, __OUT_AB
4	4862	21		brcmp 4, __rmvCallSub, __rotate_rs6, __constVal3
4	4863	25		mov __rotate_ports6, __OUT_AC
4	4864	27		brcmp 4, __rmvCallSub, __rotate_rs6, __constVal4
4	4865	31		mov __rotate_ports6, __OUT_BC
4	4866	33		brcmp 4, __rmvCallSub, __rotate_rs6, __constVal5
4	4867	37		mov __rotate_ports6, __OUT_ABC
4	4869	39		subcall __RotateMotor6, ____RotateMotor6_return
4	4871	42		subret ____RotateMotorVar_return
5	4885	0		setin __constVal1, __ResetSensorPort, 5
5	4887	4		getin __ResetSensorTmp, __ResetSensorPort, 5
5	4888	8		brtst 5, __SensorStillInvalid, __ResetSensorTmp
5	4889	11		subret ____ResetSensorSubroutine_return
6	5710	0	#pragma macro 25
6	5710	0		acquire __CLSWMutex1
6	5710	1		set __CLSWArgs1.Port, 1
6	5710	4		mov __CLSWArgs1.ReturnLen, __RLSBytesCount1
6	5710	6		mov __CLSWArgs1.Buffer, __RLSReadBuf1
6	5710	8		syscall 21, __CLSWArgs1
6	5710	11		mov __RLSBResult1, __CLSWArgs1.Result
6	5710	13		release __CLSWMutex1
6	5710	14	#line 5710 "NXTDefs.h"
6	5711	14		brtst 4, __RLSBReturn1, __RLSBytesCount1
6	5712	17		arrinit __RLSReadBuf1, __constVal0, __RLSBytesCount1
6	5713	21		brtst 5, __RLSBError1, __RLSBResult1
6	5714	24		set __RLSBIterations1, 4
6	5716	27	#pragma macro 23
6	5716	27		acquire __CLSCSMutex1
6	5716	28		set __CLSCSArgs1.Port, 1
6	5716	31		syscall 23, __CLSCSArgs1
6	5716	34		mov __RLSBytesCount1, __CLSCSArgs1.BytesReady
6	5716	36		mov __RLSBResult1, __CLSCSArgs1.Result
6	5716	38		release __CLSCSMutex1
6	5716	39	#line 5716 "NXTDefs.h"
6	5717	39		sub __RLSBIterations1, __RLSBIterations1, __constVal1
6	5718	43		brtst 2, __RLSBError1, __RLSBIterations1
6	5719	46		brtst 0, __RLSBError1, __RLSBResult1
6	5720	49		brtst 4, __RLSBReadyToRead1, __RLSBResult1
6	5722	52		wait2 NA, __constVal15
6	5723	55		jmp __RLSBDoCheckStatus1
6	5726	57	#pragma macro 25
6	5726	57		acquire __CLSRMutex1
6	5726	58		set __CLSRArgs1.Port, 1
6	5726	61		mov __CLSRArgs1.BufferLen, __RLSBytesCount1
6	5726	63		syscall 22, __CLSRArgs1
6	5726	66		mov __RLSReadBuf1, __CLSRArgs1.Buffer
6	5726	68		mov __RLSBResult1, __CLSRArgs1.Result
6	5726	70		release __CLSRMutex1
6	5726	71	#line 5726 "NXTDefs.h"
6	5727	71		brtst 5, __RLSBError1, __RLSBResult1
6	5728	74		mov __RLSLastGoodRead1, __RLSReadBuf1
6	5729	76		jmp __RLSBDone1
6	5731	78		mov __RLSReadBuf1, __RLSLastGoodRead1
6	5733	80		arrsize __RLSBytesCount1, __RLSReadBuf1
6	5735	83		subret ____ReadLSBytes1_return
7	5747	0	#pragma macro 25
7	5747	0		acquire __CLSWMutex2
7	5747	1		set __CLSWArgs2.Port, 2
7	5747	4		mov __CLSWArgs2.ReturnLen, __RLSBytesCount2
7	5747	6		mov __CLSWArgs2.Buffer, __RLSReadBuf2
7	5747	8		syscall 21, __CLSWArgs2
7	5747	11		mov __RLSBResult2, __CLSWArgs2.Result
7	5747	13		release __CLSWMutex2
7	5747	14	#line 5747 "NXTDefs.h"
7	5748	14		brtst 4, __RLSBReturn2, __RLSBytesCount2
7	5749	17		arrinit __RLSReadBuf2, __constVal0, __RLSBytesCount2
7	5750	21		brtst 5, __RLSBError2, __RLSBResult2
7	5751	24		set __RLSBIterations2, 4
7	5753	27	#pragma macro 23
7	5753	27		acquire __CLSCSMutex2
7	5753	28		set __CLSCSArgs2.Port, 2
7	5753	31		syscall 23, __CLSCSArgs2
7	5753	34		mov __RLSBytesCount2, __CLSCSArgs2.BytesReady
7	5753	36		mov __RLSBResult2, __CLSCSArgs2.Result
7	5753	38		release __CLSCSMutex2
7	5753	39	#line 5753 "NXTDefs.h"
7	5754	39		sub __RLSBIterations2, __RLSBIterations2, __constVal1
7	5755	43		brtst 2, __RLSBError2, __RLSBIterations2
7	5756	46		brtst 0, __RLSBError2, __RLSBResult2
7	5757	49		brtst 4, __RLSBReadyToRead2, __RLSBResult2
7	5759	52		wait2 NA, __constVal15
7	5760	55		jmp __RLSBDoCheckStatus2
7	5763	57	#pragma macro 25
7	5763	57		acquire __CLSRMutex2
7	5763	58		set __CLSRArgs2.Port, 2
7	5763	61		mov __CLSRArgs2.BufferLen, __RLSBytesCount2
7	5763	63		syscall 22, __CLSRArgs2
7	5763	66		mov __RLSReadBuf2, __CLSRArgs2.Buffer
7	5763	68		mov __RLSBResult2, __CLSRArgs2.Result
7	5763	70		release __CLSRMutex2
7	5763	71	#line 5763 "NXTDefs.h"
7	5764	71		brtst 5, __RLSBError2, __RLSBResult2
7	5765	74		mov __RLSLastGoodRead2, __RLSReadBuf2
7	5766	76		jmp __RLSBDone2
7	5768	78		mov __RLSReadBuf2, __RLSLastGoodRead2
7	5770	80		arrsize __RLSBytesCount2, __RLSReadBuf2
7	5772	83		subret ____ReadLSBytes2_return
8	5784	0	#pragma macro 25
8	5784	0		acquire __CLSWMutex3
8	5784	1		set __CLSWArgs3.Port, 3
8	5784	4		mov __CLSWArgs3.ReturnLen, __RLSBytesCount3
8	5784	6		mov __CLSWArgs3.Buffer, __RLSReadBuf3
8	5784	8		syscall 21, __CLSWArgs3
8	5784	11		mov __RLSBResult3, __CLSWArgs3.Result
8	5784	13		release __CLSWMutex3
8	5784	14	#line 5784 "NXTDefs.h"
8	5785	14		brtst 4, __RLSBReturn3, __RLSBytesCount3
8	5786	17		arrinit __RLSReadBuf3, __constVal0, __RLSBytesCount3
8	5787	21		brtst 5, __RLSBError3, __RLSBResult3
8	5788	24		set __RLSBIterations3, 4
8	5790	27	#pragma macro 23
8	5790	27		acquire __CLSCSMutex3
8	5790	28		set __CLSCSArgs3.Port, 3
8	5790	31		syscall 23, __CLSCSArgs3
8	5790	34		mov __RLSBytesCount3, __CLSCSArgs3.BytesReady
8	5790	36		mov __RLSBResult3, __CLSCSArgs3.Result
8	5790	38		release __CLSCSMutex3
8	5790	39	#line 5790 "NXTDefs.h"
8	5791	39		sub __RLSBIterations3, __RLSBIterations3, __constVal1
8	5792	43		brtst 2, __RLSBError3, __RLSBIterations3
8	5793	46		brtst 0, __RLSBError3, __RLSBResult3
8	5794	49		brtst 4, __RLSBReadyToRead3, __RLSBResult3
8	5796	52		wait2 NA, __constVal15
8	5797	55		jmp __RLSBDoCheckStatus3
8	5800	57	#pragma macro 25
8	5800	57		acquire __CLSRMutex3
8	5800	58		set __CLSRArgs3.Port, 3
8	5800	61		mov __CLSRArgs3.BufferLen, __RLSBytesCount3
8	5800	63		syscall 22, __CLSRArgs3
8	5800	66		mov __RLSReadBuf3, __CLSRArgs3.Buffer
8	5800	68		mov __RLSBResult3, __CLSRArgs3.Result
8	5800	70		release __CLSRMutex3
8	5800	71	#line 5800 "NXTDefs.h"
8	5801	71		brtst 5, __RLSBError3, __RLSBResult3
8	5802	74		mov __RLSLastGoodRead3, __RLSReadBuf3
8	5803	76		jmp __RLSBDone3
8	5805	78		mov __RLSReadBuf3, __RLSLastGoodRead3
8	5807	80		arrsize __RLSBytesCount3, __RLSReadBuf3
8	5809	83		subret ____ReadLSBytes3_return
9	68	0	#line 68 "C:\Users\Lshi\Documents\Extracurriculars\Gov School\Robotics\GSET_Robotics\Maze\409_Maze_Test.nxc"
9	69	0		mov __signed_stack_001lineFollow, mode
9	68	2	#line 68 "C:\Users\Lshi\Documents\Extracurriculars\Gov School\Robotics\GSET_Robotics\Maze\409_Maze_Test.nxc"
9	68	2	#line 68 "C:\Users\Lshi\Documents\Extracurriculars\Gov School\Robotics\GSET_Robotics\Maze\409_Maze_Test.nxc"
9	69	2		set __D0lineFollow, 1
9	68	5	#line 68 "C:\Users\Lshi\Documents\Extracurriculars\Gov School\Robotics\GSET_Robotics\Maze\409_Maze_Test.nxc"
9	69	5		cmp 4, __zflineFollow, __signed_stack_001lineFollow, __D0lineFollow
9	68	9	#line 68 "C:\Users\Lshi\Documents\Extracurriculars\Gov School\Robotics\GSET_Robotics\Maze\409_Maze_Test.nxc"
9	69	9		mov __D0lineFollow, __zflineFollow
9	68	11	#line 68 "C:\Users\Lshi\Documents\Extracurriculars\Gov School\Robotics\GSET_Robotics\Maze\409_Maze_Test.nxc"
9	69	11		brtst 5, __NXC_Label_515, __zflineFollow
9	68	14	#line 68 "C:\Users\Lshi\Documents\Extracurriculars\Gov School\Robotics\GSET_Robotics\Maze\409_Maze_Test.nxc"
9	69	14		mov __signed_stack_001lineFollow, __D0lineFollow
9	68	16	#line 68 "C:\Users\Lshi\Documents\Extracurriculars\Gov School\Robotics\GSET_Robotics\Maze\409_Maze_Test.nxc"
9	69	16		mov __signed_stack_002lineFollow, mode
9	68	18	#line 68 "C:\Users\Lshi\Documents\Extracurriculars\Gov School\Robotics\GSET_Robotics\Maze\409_Maze_Test.nxc"
9	68	18	#line 68 "C:\Users\Lshi\Documents\Extracurriculars\Gov School\Robotics\GSET_Robotics\Maze\409_Maze_Test.nxc"
9	69	18		set __D0lineFollow, 0
9	68	21	#line 68 "C:\Users\Lshi\Documents\Extracurriculars\Gov School\Robotics\GSET_Robotics\Maze\409_Maze_Test.nxc"
9	69	21		cmp 4, __zflineFollow, __signed_stack_002lineFollow, __D0lineFollow
9	68	25	#line 68 "C:\Users\Lshi\Documents\Extracurriculars\Gov School\Robotics\GSET_Robotics\Maze\409_Maze_Test.nxc"
9	68	25	#line 68 "C:\Users\Lshi\Documents\Extracurriculars\Gov School\Robotics\GSET_Robotics\Maze\409_Maze_Test.nxc"
9	69	25		or __D0lineFollow, __signed_stack_001lineFollow, __zflineFollow
9	69	29	#line 69 "C:\Users\Lshi\Documents\Extracurriculars\Gov School\Robotics\GSET_Robotics\Maze\409_Maze_Test.nxc"
9	70	29		tst 5, __zflineFollow, __D0lineFollow
9	69	32	#line 69 "C:\Users\Lshi\Documents\Extracurriculars\Gov School\Robotics\GSET_Robotics\Maze\409_Maze_Test.nxc"
9	70	32		brtst 4, __NXC_Label_514, __zflineFollow
9	69	35	#line 69 "C:\Users\Lshi\Documents\Extracurriculars\Gov School\Robotics\GSET_Robotics\Maze\409_Maze_Test.nxc"
9	70	35		mov __signed_stack_001lineFollow, mode
9	69	37	#line 69 "C:\Users\Lshi\Documents\Extracurriculars\Gov School\Robotics\GSET_Robotics\Maze\409_Maze_Test.nxc"
9	69	37	#line 69 "C:\Users\Lshi\Documents\Extracurriculars\Gov School\Robotics\GSET_Robotics\Maze\409_Maze_Test.nxc"
9	70	37		set __D0lineFollow, 0
9	69	40	#line 69 "C:\Users\Lshi\Documents\Extracurriculars\Gov School\Robotics\GSET_Robotics\Maze\409_Maze_Test.nxc"
9	70	40		cmp 4, __zflineFollow, __signed_stack_001lineFollow, __D0lineFollow
9	69	44	#line 69 "C:\Users\Lshi\Documents\Extracurriculars\Gov School\Robotics\GSET_Robotics\Maze\409_Maze_Test.nxc"
9	70	44		mov __D0lineFollow, __zflineFollow
9	70	46	#line 70 "C:\Users\Lshi\Documents\Extracurriculars\Gov School\Robotics\GSET_Robotics\Maze\409_Maze_Test.nxc"
9	71	46		brtst 4, __NXC_Label_520, __zflineFollow
9	70	49	#line 70 "C:\Users\Lshi\Documents\Extracurriculars\Gov School\Robotics\GSET_Robotics\Maze\409_Maze_Test.nxc"
9	71	49		set __signed_stack_001lineFollow, 0
9	70	52	#line 70 "C:\Users\Lshi\Documents\Extracurriculars\Gov School\Robotics\GSET_Robotics\Maze\409_Maze_Test.nxc"
9	70	52	#line 70 "C:\Users\Lshi\Documents\Extracurriculars\Gov School\Robotics\GSET_Robotics\Maze\409_Maze_Test.nxc"
9	71	52		set __D0lineFollow, 0
9	71	55	#line 71 "C:\Users\Lshi\Documents\Extracurriculars\Gov School\Robotics\GSET_Robotics\Maze\409_Maze_Test.nxc"
9	72	55	#pragma macro 7
9	72	55		setout __OUT_AC, 2, __signed_stack_001lineFollow, 1, __constVal7, 8, __constVal2, 7, __D0lineFollow, 6, __constVal32, 5, __constVal0, 10, __constVal96, 11, __constVal32, 12, __constVal32, 0, __constVal63
9	5518	78	#line 5518 "C:\Users\Lshi\Documents\Extracurriculars\Gov School\Robotics\GSET_Robotics\Maze\409_Maze_Test.nxc"
9	71	78	#line 71 "C:\Users\Lshi\Documents\Extracurriculars\Gov School\Robotics\GSET_Robotics\Maze\409_Maze_Test.nxc"
9	72	78	#line 72 "C:\Users\Lshi\Documents\Extracurriculars\Gov School\Robotics\GSET_Robotics\Maze\409_Maze_Test.nxc"
9	73	78		jmp __NXC_Label_513
9	72	80	#line 72 "C:\Users\Lshi\Documents\Extracurriculars\Gov School\Robotics\GSET_Robotics\Maze\409_Maze_Test.nxc"
9	80	80	#line 80 "C:\Users\Lshi\Documents\Extracurriculars\Gov School\Robotics\GSET_Robotics\Maze\409_Maze_Test.nxc"
9	80	80	#line 80 "C:\Users\Lshi\Documents\Extracurriculars\Gov School\Robotics\GSET_Robotics\Maze\409_Maze_Test.nxc"
9	81	80		getin __signed_stack_001lineFollow, __constVal0, 4
9	80	84	#line 80 "C:\Users\Lshi\Documents\Extracurriculars\Gov School\Robotics\GSET_Robotics\Maze\409_Maze_Test.nxc"
9	80	84	#line 80 "C:\Users\Lshi\Documents\Extracurriculars\Gov School\Robotics\GSET_Robotics\Maze\409_Maze_Test.nxc"
9	81	84		mov __D0lineFollow, lightAvg
9	80	86	#line 80 "C:\Users\Lshi\Documents\Extracurriculars\Gov School\Robotics\GSET_Robotics\Maze\409_Maze_Test.nxc"
9	81	86		cmp 1, __zflineFollow, __signed_stack_001lineFollow, __D0lineFollow
9	80	90	#line 80 "C:\Users\Lshi\Documents\Extracurriculars\Gov School\Robotics\GSET_Robotics\Maze\409_Maze_Test.nxc"
9	81	90		mov __D0lineFollow, __zflineFollow
9	81	92	#line 81 "C:\Users\Lshi\Documents\Extracurriculars\Gov School\Robotics\GSET_Robotics\Maze\409_Maze_Test.nxc"
9	82	92		brtst 4, __NXC_Label_527, __zflineFollow
9	81	95	#line 81 "C:\Users\Lshi\Documents\Extracurriculars\Gov School\Robotics\GSET_Robotics\Maze\409_Maze_Test.nxc"
9	81	95	#line 81 "C:\Users\Lshi\Documents\Extracurriculars\Gov School\Robotics\GSET_Robotics\Maze\409_Maze_Test.nxc"
9	81	95	#line 81 "C:\Users\Lshi\Documents\Extracurriculars\Gov School\Robotics\GSET_Robotics\Maze\409_Maze_Test.nxc"
9	81	95	#line 81 "C:\Users\Lshi\Documents\Extracurriculars\Gov School\Robotics\GSET_Robotics\Maze\409_Maze_Test.nxc"
9	82	95		mul __signed_stack_001lineFollow, dir, __constVal60
9	81	99	#line 81 "C:\Users\Lshi\Documents\Extracurriculars\Gov School\Robotics\GSET_Robotics\Maze\409_Maze_Test.nxc"
9	81	99	#line 81 "C:\Users\Lshi\Documents\Extracurriculars\Gov School\Robotics\GSET_Robotics\Maze\409_Maze_Test.nxc"
9	81	99	#line 81 "C:\Users\Lshi\Documents\Extracurriculars\Gov School\Robotics\GSET_Robotics\Maze\409_Maze_Test.nxc"
9	81	99	#line 81 "C:\Users\Lshi\Documents\Extracurriculars\Gov School\Robotics\GSET_Robotics\Maze\409_Maze_Test.nxc"
9	81	99	#line 81 "C:\Users\Lshi\Documents\Extracurriculars\Gov School\Robotics\GSET_Robotics\Maze\409_Maze_Test.nxc"
9	82	99		mul __signed_stack_002lineFollow, dir, __constVal60
9	81	103	#line 81 "C:\Users\Lshi\Documents\Extracurriculars\Gov School\Robotics\GSET_Robotics\Maze\409_Maze_Test.nxc"
9	81	103	#line 81 "C:\Users\Lshi\Documents\Extracurriculars\Gov School\Robotics\GSET_Robotics\Maze\409_Maze_Test.nxc"
9	81	103	#line 81 "C:\Users\Lshi\Documents\Extracurriculars\Gov School\Robotics\GSET_Robotics\Maze\409_Maze_Test.nxc"
9	82	103		mul __signed_stack_002lineFollow, __signed_stack_002lineFollow, __constVal2
9	81	107	#line 81 "C:\Users\Lshi\Documents\Extracurriculars\Gov School\Robotics\GSET_Robotics\Maze\409_Maze_Test.nxc"
9	81	107	#line 81 "C:\Users\Lshi\Documents\Extracurriculars\Gov School\Robotics\GSET_Robotics\Maze\409_Maze_Test.nxc"
9	82	107		getin __signed_stack_003lineFollow, __constVal0, 4
9	81	111	#line 81 "C:\Users\Lshi\Documents\Extracurriculars\Gov School\Robotics\GSET_Robotics\Maze\409_Maze_Test.nxc"
9	81	111	#line 81 "C:\Users\Lshi\Documents\Extracurriculars\Gov School\Robotics\GSET_Robotics\Maze\409_Maze_Test.nxc"
9	81	111	#line 81 "C:\Users\Lshi\Documents\Extracurriculars\Gov School\Robotics\GSET_Robotics\Maze\409_Maze_Test.nxc"
9	82	111		sub __D0lineFollow, __signed_stack_003lineFollow, lightAvg
9	81	115	#line 81 "C:\Users\Lshi\Documents\Extracurriculars\Gov School\Robotics\GSET_Robotics\Maze\409_Maze_Test.nxc"
9	82	115		mul __signed_stack_002lineFollow, __signed_stack_002lineFollow, __D0lineFollow
9	81	119	#line 81 "C:\Users\Lshi\Documents\Extracurriculars\Gov School\Robotics\GSET_Robotics\Maze\409_Maze_Test.nxc"
9	81	119	#line 81 "C:\Users\Lshi\Documents\Extracurriculars\Gov School\Robotics\GSET_Robotics\Maze\409_Maze_Test.nxc"
9	81	119	#line 81 "C:\Users\Lshi\Documents\Extracurriculars\Gov School\Robotics\GSET_Robotics\Maze\409_Maze_Test.nxc"
9	81	119	#line 81 "C:\Users\Lshi\Documents\Extracurriculars\Gov School\Robotics\GSET_Robotics\Maze\409_Maze_Test.nxc"
9	81	119	#line 81 "C:\Users\Lshi\Documents\Extracurriculars\Gov School\Robotics\GSET_Robotics\Maze\409_Maze_Test.nxc"
9	82	119		sub __D0lineFollow, white, lightAvg
9	81	123	#line 81 "C:\Users\Lshi\Documents\Extracurriculars\Gov School\Robotics\GSET_Robotics\Maze\409_Maze_Test.nxc"
9	82	123		div __D0lineFollow, __signed_stack_002lineFollow, __D0lineFollow
9	81	127	#line 81 "C:\Users\Lshi\Documents\Extracurriculars\Gov School\Robotics\GSET_Robotics\Maze\409_Maze_Test.nxc"
9	82	127		sub __D0lineFollow, __signed_stack_001lineFollow, __D0lineFollow
9	82	131	#line 82 "C:\Users\Lshi\Documents\Extracurriculars\Gov School\Robotics\GSET_Robotics\Maze\409_Maze_Test.nxc"
9	83	131	#pragma macro 7
9	83	131		setout __constVal2, 2, __D0lineFollow, 1, __constVal3, 8, __constVal0, 6, __constVal32, 7, __constVal0, 5, __constVal0, 10, __constVal96, 11, __constVal32, 12, __constVal32, 0, __constVal63
9	5596	154	#line 5596 "C:\Users\Lshi\Documents\Extracurriculars\Gov School\Robotics\GSET_Robotics\Maze\409_Maze_Test.nxc"
9	82	154	#line 82 "C:\Users\Lshi\Documents\Extracurriculars\Gov School\Robotics\GSET_Robotics\Maze\409_Maze_Test.nxc"
9	82	154	#line 82 "C:\Users\Lshi\Documents\Extracurriculars\Gov School\Robotics\GSET_Robotics\Maze\409_Maze_Test.nxc"
9	82	154	#line 82 "C:\Users\Lshi\Documents\Extracurriculars\Gov School\Robotics\GSET_Robotics\Maze\409_Maze_Test.nxc"
9	82	154	#line 82 "C:\Users\Lshi\Documents\Extracurriculars\Gov School\Robotics\GSET_Robotics\Maze\409_Maze_Test.nxc"
9	82	154	#line 82 "C:\Users\Lshi\Documents\Extracurriculars\Gov School\Robotics\GSET_Robotics\Maze\409_Maze_Test.nxc"
9	82	154	#line 82 "C:\Users\Lshi\Documents\Extracurriculars\Gov School\Robotics\GSET_Robotics\Maze\409_Maze_Test.nxc"
9	83	154		mul __D0lineFollow, dir, __constVal60
9	83	158	#line 83 "C:\Users\Lshi\Documents\Extracurriculars\Gov School\Robotics\GSET_Robotics\Maze\409_Maze_Test.nxc"
9	84	158	#pragma macro 7
9	84	158		setout __constVal0, 2, __D0lineFollow, 1, __constVal3, 8, __constVal0, 6, __constVal32, 7, __constVal0, 5, __constVal0, 10, __constVal96, 11, __constVal32, 12, __constVal32, 0, __constVal63
9	5610	181	#line 5610 "C:\Users\Lshi\Documents\Extracurriculars\Gov School\Robotics\GSET_Robotics\Maze\409_Maze_Test.nxc"
9	83	181	#line 83 "C:\Users\Lshi\Documents\Extracurriculars\Gov School\Robotics\GSET_Robotics\Maze\409_Maze_Test.nxc"
9	84	181	#line 84 "C:\Users\Lshi\Documents\Extracurriculars\Gov School\Robotics\GSET_Robotics\Maze\409_Maze_Test.nxc"
9	85	181		jmp __NXC_Label_536
9	84	183	#line 84 "C:\Users\Lshi\Documents\Extracurriculars\Gov School\Robotics\GSET_Robotics\Maze\409_Maze_Test.nxc"
9	85	183		getin __signed_stack_001lineFollow, __constVal0, 4
9	84	187	#line 84 "C:\Users\Lshi\Documents\Extracurriculars\Gov School\Robotics\GSET_Robotics\Maze\409_Maze_Test.nxc"
9	84	187	#line 84 "C:\Users\Lshi\Documents\Extracurriculars\Gov School\Robotics\GSET_Robotics\Maze\409_Maze_Test.nxc"
9	85	187		mov __D0lineFollow, lightAvg
9	84	189	#line 84 "C:\Users\Lshi\Documents\Extracurriculars\Gov School\Robotics\GSET_Robotics\Maze\409_Maze_Test.nxc"
9	85	189		cmp 2, __zflineFollow, __signed_stack_001lineFollow, __D0lineFollow
9	84	193	#line 84 "C:\Users\Lshi\Documents\Extracurriculars\Gov School\Robotics\GSET_Robotics\Maze\409_Maze_Test.nxc"
9	85	193		mov __D0lineFollow, __zflineFollow
9	85	195	#line 85 "C:\Users\Lshi\Documents\Extracurriculars\Gov School\Robotics\GSET_Robotics\Maze\409_Maze_Test.nxc"
9	86	195		brtst 4, __NXC_Label_539, __zflineFollow
9	85	198	#line 85 "C:\Users\Lshi\Documents\Extracurriculars\Gov School\Robotics\GSET_Robotics\Maze\409_Maze_Test.nxc"
9	85	198	#line 85 "C:\Users\Lshi\Documents\Extracurriculars\Gov School\Robotics\GSET_Robotics\Maze\409_Maze_Test.nxc"
9	85	198	#line 85 "C:\Users\Lshi\Documents\Extracurriculars\Gov School\Robotics\GSET_Robotics\Maze\409_Maze_Test.nxc"
9	85	198	#line 85 "C:\Users\Lshi\Documents\Extracurriculars\Gov School\Robotics\GSET_Robotics\Maze\409_Maze_Test.nxc"
9	86	198		mul __signed_stack_001lineFollow, dir, __constVal60
9	85	202	#line 85 "C:\Users\Lshi\Documents\Extracurriculars\Gov School\Robotics\GSET_Robotics\Maze\409_Maze_Test.nxc"
9	85	202	#line 85 "C:\Users\Lshi\Documents\Extracurriculars\Gov School\Robotics\GSET_Robotics\Maze\409_Maze_Test.nxc"
9	85	202	#line 85 "C:\Users\Lshi\Documents\Extracurriculars\Gov School\Robotics\GSET_Robotics\Maze\409_Maze_Test.nxc"
9	85	202	#line 85 "C:\Users\Lshi\Documents\Extracurriculars\Gov School\Robotics\GSET_Robotics\Maze\409_Maze_Test.nxc"
9	85	202	#line 85 "C:\Users\Lshi\Documents\Extracurriculars\Gov School\Robotics\GSET_Robotics\Maze\409_Maze_Test.nxc"
9	86	202		mul __signed_stack_002lineFollow, dir, __constVal60
9	85	206	#line 85 "C:\Users\Lshi\Documents\Extracurriculars\Gov School\Robotics\GSET_Robotics\Maze\409_Maze_Test.nxc"
9	85	206	#line 85 "C:\Users\Lshi\Documents\Extracurriculars\Gov School\Robotics\GSET_Robotics\Maze\409_Maze_Test.nxc"
9	85	206	#line 85 "C:\Users\Lshi\Documents\Extracurriculars\Gov School\Robotics\GSET_Robotics\Maze\409_Maze_Test.nxc"
9	86	206		mul __signed_stack_002lineFollow, __signed_stack_002lineFollow, __constVal2
9	85	210	#line 85 "C:\Users\Lshi\Documents\Extracurriculars\Gov School\Robotics\GSET_Robotics\Maze\409_Maze_Test.nxc"
9	85	210	#line 85 "C:\Users\Lshi\Documents\Extracurriculars\Gov School\Robotics\GSET_Robotics\Maze\409_Maze_Test.nxc"
9	86	210		getin __signed_stack_003lineFollow, __constVal0, 4
9	85	214	#line 85 "C:\Users\Lshi\Documents\Extracurriculars\Gov School\Robotics\GSET_Robotics\Maze\409_Maze_Test.nxc"
9	85	214	#line 85 "C:\Users\Lshi\Documents\Extracurriculars\Gov School\Robotics\GSET_Robotics\Maze\409_Maze_Test.nxc"
9	85	214	#line 85 "C:\Users\Lshi\Documents\Extracurriculars\Gov School\Robotics\GSET_Robotics\Maze\409_Maze_Test.nxc"
9	86	214		sub __D0lineFollow, __signed_stack_003lineFollow, lightAvg
9	85	218	#line 85 "C:\Users\Lshi\Documents\Extracurriculars\Gov School\Robotics\GSET_Robotics\Maze\409_Maze_Test.nxc"
9	86	218		mul __signed_stack_002lineFollow, __signed_stack_002lineFollow, __D0lineFollow
9	85	222	#line 85 "C:\Users\Lshi\Documents\Extracurriculars\Gov School\Robotics\GSET_Robotics\Maze\409_Maze_Test.nxc"
9	85	222	#line 85 "C:\Users\Lshi\Documents\Extracurriculars\Gov School\Robotics\GSET_Robotics\Maze\409_Maze_Test.nxc"
9	85	222	#line 85 "C:\Users\Lshi\Documents\Extracurriculars\Gov School\Robotics\GSET_Robotics\Maze\409_Maze_Test.nxc"
9	85	222	#line 85 "C:\Users\Lshi\Documents\Extracurriculars\Gov School\Robotics\GSET_Robotics\Maze\409_Maze_Test.nxc"
9	85	222	#line 85 "C:\Users\Lshi\Documents\Extracurriculars\Gov School\Robotics\GSET_Robotics\Maze\409_Maze_Test.nxc"
9	86	222		sub __D0lineFollow, black, lightAvg
9	85	226	#line 85 "C:\Users\Lshi\Documents\Extracurriculars\Gov School\Robotics\GSET_Robotics\Maze\409_Maze_Test.nxc"
9	86	226		div __D0lineFollow, __signed_stack_002lineFollow, __D0lineFollow
9	85	230	#line 85 "C:\Users\Lshi\Documents\Extracurriculars\Gov School\Robotics\GSET_Robotics\Maze\409_Maze_Test.nxc"
9	86	230		sub __D0lineFollow, __signed_stack_001lineFollow, __D0lineFollow
9	86	234	#line 86 "C:\Users\Lshi\Documents\Extracurriculars\Gov School\Robotics\GSET_Robotics\Maze\409_Maze_Test.nxc"
9	87	234	#pragma macro 7
9	87	234		setout __constVal0, 2, __D0lineFollow, 1, __constVal3, 8, __constVal0, 6, __constVal32, 7, __constVal0, 5, __constVal0, 10, __constVal96, 11, __constVal32, 12, __constVal32, 0, __constVal63
9	5686	257	#line 5686 "C:\Users\Lshi\Documents\Extracurriculars\Gov School\Robotics\GSET_Robotics\Maze\409_Maze_Test.nxc"
9	86	257	#line 86 "C:\Users\Lshi\Documents\Extracurriculars\Gov School\Robotics\GSET_Robotics\Maze\409_Maze_Test.nxc"
9	86	257	#line 86 "C:\Users\Lshi\Documents\Extracurriculars\Gov School\Robotics\GSET_Robotics\Maze\409_Maze_Test.nxc"
9	86	257	#line 86 "C:\Users\Lshi\Documents\Extracurriculars\Gov School\Robotics\GSET_Robotics\Maze\409_Maze_Test.nxc"
9	86	257	#line 86 "C:\Users\Lshi\Documents\Extracurriculars\Gov School\Robotics\GSET_Robotics\Maze\409_Maze_Test.nxc"
9	86	257	#line 86 "C:\Users\Lshi\Documents\Extracurriculars\Gov School\Robotics\GSET_Robotics\Maze\409_Maze_Test.nxc"
9	86	257	#line 86 "C:\Users\Lshi\Documents\Extracurriculars\Gov School\Robotics\GSET_Robotics\Maze\409_Maze_Test.nxc"
9	87	257		mul __D0lineFollow, dir, __constVal60
9	87	261	#line 87 "C:\Users\Lshi\Documents\Extracurriculars\Gov School\Robotics\GSET_Robotics\Maze\409_Maze_Test.nxc"
9	88	261	#pragma macro 7
9	88	261		setout __constVal2, 2, __D0lineFollow, 1, __constVal3, 8, __constVal0, 6, __constVal32, 7, __constVal0, 5, __constVal0, 10, __constVal96, 11, __constVal32, 12, __constVal32, 0, __constVal63
9	5700	284	#line 5700 "C:\Users\Lshi\Documents\Extracurriculars\Gov School\Robotics\GSET_Robotics\Maze\409_Maze_Test.nxc"
9	87	284	#line 87 "C:\Users\Lshi\Documents\Extracurriculars\Gov School\Robotics\GSET_Robotics\Maze\409_Maze_Test.nxc"
9	90	284	#line 90 "C:\Users\Lshi\Documents\Extracurriculars\Gov School\Robotics\GSET_Robotics\Maze\409_Maze_Test.nxc"
9	90	284	#line 90 "C:\Users\Lshi\Documents\Extracurriculars\Gov School\Robotics\GSET_Robotics\Maze\409_Maze_Test.nxc"
9	90	284	#line 90 "C:\Users\Lshi\Documents\Extracurriculars\Gov School\Robotics\GSET_Robotics\Maze\409_Maze_Test.nxc"
9	91	284		jmp __NXC_Label_513
9	90	286	#line 90 "C:\Users\Lshi\Documents\Extracurriculars\Gov School\Robotics\GSET_Robotics\Maze\409_Maze_Test.nxc"
9	90	286	#line 90 "C:\Users\Lshi\Documents\Extracurriculars\Gov School\Robotics\GSET_Robotics\Maze\409_Maze_Test.nxc"
9	91	286		set __D0lineFollow, 0
9	92	289	#line 92 "C:\Users\Lshi\Documents\Extracurriculars\Gov School\Robotics\GSET_Robotics\Maze\409_Maze_Test.nxc"
9	93	289	#pragma macro 7
9	93	289		setout __OUT_AC, 2, __D0lineFollow, 1, __constVal3, 8, __constVal0, 6, __constVal32, 7, __constVal0, 5, __constVal0, 10, __constVal96, 11, __constVal32, 12, __constVal32, 0, __constVal63
9	5715	312	#line 5715 "C:\Users\Lshi\Documents\Extracurriculars\Gov School\Robotics\GSET_Robotics\Maze\409_Maze_Test.nxc"
9	92	312	#line 92 "C:\Users\Lshi\Documents\Extracurriculars\Gov School\Robotics\GSET_Robotics\Maze\409_Maze_Test.nxc"
9	92	312	#line 92 "C:\Users\Lshi\Documents\Extracurriculars\Gov School\Robotics\GSET_Robotics\Maze\409_Maze_Test.nxc"
9	93	312		set __Wait_7qG2_ms_7qG2_000_inline_lineFollow, 1000
9	92	315	#line 92 "C:\Users\Lshi\Documents\Extracurriculars\Gov School\Robotics\GSET_Robotics\Maze\409_Maze_Test.nxc"
9	7921	315	#line 7921 "NXCDefs.h"
9	7922	315		wait2 NA, __Wait_7qG2_ms_7qG2_000_inline_lineFollow
9	7921	318	#line 7921 "NXCDefs.h"
9	93	318	#line 93 "C:\Users\Lshi\Documents\Extracurriculars\Gov School\Robotics\GSET_Robotics\Maze\409_Maze_Test.nxc"
9	94	318	#line 94 "C:\Users\Lshi\Documents\Extracurriculars\Gov School\Robotics\GSET_Robotics\Maze\409_Maze_Test.nxc"
9	94	318	#line 94 "C:\Users\Lshi\Documents\Extracurriculars\Gov School\Robotics\GSET_Robotics\Maze\409_Maze_Test.nxc"
9	95	318		exit 0, 0
10	98	0	#line 98 "C:\Users\Lshi\Documents\Extracurriculars\Gov School\Robotics\GSET_Robotics\Maze\409_Maze_Test.nxc"
10	99	0		mov __signed_stack_001color, mode
10	98	2	#line 98 "C:\Users\Lshi\Documents\Extracurriculars\Gov School\Robotics\GSET_Robotics\Maze\409_Maze_Test.nxc"
10	98	2	#line 98 "C:\Users\Lshi\Documents\Extracurriculars\Gov School\Robotics\GSET_Robotics\Maze\409_Maze_Test.nxc"
10	99	2		set __D0color, 1
10	98	5	#line 98 "C:\Users\Lshi\Documents\Extracurriculars\Gov School\Robotics\GSET_Robotics\Maze\409_Maze_Test.nxc"
10	99	5		cmp 4, __zfcolor, __signed_stack_001color, __D0color
10	98	9	#line 98 "C:\Users\Lshi\Documents\Extracurriculars\Gov School\Robotics\GSET_Robotics\Maze\409_Maze_Test.nxc"
10	99	9		mov __D0color, __zfcolor
10	99	11	#line 99 "C:\Users\Lshi\Documents\Extracurriculars\Gov School\Robotics\GSET_Robotics\Maze\409_Maze_Test.nxc"
10	100	11		brtst 4, __NXC_Label_553, __zfcolor
10	99	14	#line 99 "C:\Users\Lshi\Documents\Extracurriculars\Gov School\Robotics\GSET_Robotics\Maze\409_Maze_Test.nxc"
10	100	14	#pragma macro 24
10	100	14		acquire __RLSBmutex2
10	100	15		mov __RLSReadBuf2, __RLSBbufLSWrite1
10	100	17		set __RLSBytesCount2, 1
10	100	20		subcall __ReadLSBytes2, ____ReadLSBytes2_return
10	100	23		index __D0color, __RLSReadBuf2, 65535
10	100	27		release __RLSBmutex2
10	5753	28	#line 5753 "C:\Users\Lshi\Documents\Extracurriculars\Gov School\Robotics\GSET_Robotics\Maze\409_Maze_Test.nxc"
10	99	28	#line 99 "C:\Users\Lshi\Documents\Extracurriculars\Gov School\Robotics\GSET_Robotics\Maze\409_Maze_Test.nxc"
10	100	28		mov __signed_stack_001color, __D0color
10	99	30	#line 99 "C:\Users\Lshi\Documents\Extracurriculars\Gov School\Robotics\GSET_Robotics\Maze\409_Maze_Test.nxc"
10	100	30		set __D0color, 2
10	99	33	#line 99 "C:\Users\Lshi\Documents\Extracurriculars\Gov School\Robotics\GSET_Robotics\Maze\409_Maze_Test.nxc"
10	100	33		cmp 4, __zfcolor, __signed_stack_001color, __D0color
10	99	37	#line 99 "C:\Users\Lshi\Documents\Extracurriculars\Gov School\Robotics\GSET_Robotics\Maze\409_Maze_Test.nxc"
10	100	37		mov __D0color, __zfcolor
10	99	39	#line 99 "C:\Users\Lshi\Documents\Extracurriculars\Gov School\Robotics\GSET_Robotics\Maze\409_Maze_Test.nxc"
10	100	39		brtst 5, __NXC_Label_556, __zfcolor
10	99	42	#line 99 "C:\Users\Lshi\Documents\Extracurriculars\Gov School\Robotics\GSET_Robotics\Maze\409_Maze_Test.nxc"
10	100	42		mov __signed_stack_001color, __D0color
10	99	44	#line 99 "C:\Users\Lshi\Documents\Extracurriculars\Gov School\Robotics\GSET_Robotics\Maze\409_Maze_Test.nxc"
10	100	44	#pragma macro 24
10	100	44		acquire __RLSBmutex2
10	100	45		mov __RLSReadBuf2, __RLSBbufLSWrite1
10	100	47		set __RLSBytesCount2, 1
10	100	50		subcall __ReadLSBytes2, ____ReadLSBytes2_return
10	100	53		index __D0color, __RLSReadBuf2, 65535
10	100	57		release __RLSBmutex2
10	5768	58	#line 5768 "C:\Users\Lshi\Documents\Extracurriculars\Gov School\Robotics\GSET_Robotics\Maze\409_Maze_Test.nxc"
10	99	58	#line 99 "C:\Users\Lshi\Documents\Extracurriculars\Gov School\Robotics\GSET_Robotics\Maze\409_Maze_Test.nxc"
10	100	58		mov __signed_stack_002color, __D0color
10	100	60	#line 100 "C:\Users\Lshi\Documents\Extracurriculars\Gov School\Robotics\GSET_Robotics\Maze\409_Maze_Test.nxc"
10	101	60		set __D0color, 3
10	100	63	#line 100 "C:\Users\Lshi\Documents\Extracurriculars\Gov School\Robotics\GSET_Robotics\Maze\409_Maze_Test.nxc"
10	101	63		cmp 4, __zfcolor, __signed_stack_002color, __D0color
10	100	67	#line 100 "C:\Users\Lshi\Documents\Extracurriculars\Gov School\Robotics\GSET_Robotics\Maze\409_Maze_Test.nxc"
10	100	67	#line 100 "C:\Users\Lshi\Documents\Extracurriculars\Gov School\Robotics\GSET_Robotics\Maze\409_Maze_Test.nxc"
10	101	67		or __D0color, __signed_stack_001color, __zfcolor
10	101	71	#line 101 "C:\Users\Lshi\Documents\Extracurriculars\Gov School\Robotics\GSET_Robotics\Maze\409_Maze_Test.nxc"
10	102	71		tst 5, __zfcolor, __D0color
10	101	74	#line 101 "C:\Users\Lshi\Documents\Extracurriculars\Gov School\Robotics\GSET_Robotics\Maze\409_Maze_Test.nxc"
10	102	74		brtst 4, __NXC_Label_559, __zfcolor
10	101	77	#line 101 "C:\Users\Lshi\Documents\Extracurriculars\Gov School\Robotics\GSET_Robotics\Maze\409_Maze_Test.nxc"
10	102	77		set __signed_stack_001color, 440
10	101	80	#line 101 "C:\Users\Lshi\Documents\Extracurriculars\Gov School\Robotics\GSET_Robotics\Maze\409_Maze_Test.nxc"
10	101	80	#line 101 "C:\Users\Lshi\Documents\Extracurriculars\Gov School\Robotics\GSET_Robotics\Maze\409_Maze_Test.nxc"
10	102	80		set __signed_stack_002color, 250
10	101	83	#line 101 "C:\Users\Lshi\Documents\Extracurriculars\Gov School\Robotics\GSET_Robotics\Maze\409_Maze_Test.nxc"
10	101	83	#line 101 "C:\Users\Lshi\Documents\Extracurriculars\Gov School\Robotics\GSET_Robotics\Maze\409_Maze_Test.nxc"
10	102	83		set __signed_stack_003color, 4
10	101	86	#line 101 "C:\Users\Lshi\Documents\Extracurriculars\Gov School\Robotics\GSET_Robotics\Maze\409_Maze_Test.nxc"
10	101	86	#line 101 "C:\Users\Lshi\Documents\Extracurriculars\Gov School\Robotics\GSET_Robotics\Maze\409_Maze_Test.nxc"
10	102	86		set __D0color, 0
10	102	89	#line 102 "C:\Users\Lshi\Documents\Extracurriculars\Gov School\Robotics\GSET_Robotics\Maze\409_Maze_Test.nxc"
10	103	89		acquire __SPTArgsMutex
10	102	90	#line 102 "C:\Users\Lshi\Documents\Extracurriculars\Gov School\Robotics\GSET_Robotics\Maze\409_Maze_Test.nxc"
10	103	90		mov __SPTArgs.Frequency, __signed_stack_001color
10	102	93	#line 102 "C:\Users\Lshi\Documents\Extracurriculars\Gov School\Robotics\GSET_Robotics\Maze\409_Maze_Test.nxc"
10	103	93		mov __SPTArgs.Duration, __signed_stack_002color
10	102	96	#line 102 "C:\Users\Lshi\Documents\Extracurriculars\Gov School\Robotics\GSET_Robotics\Maze\409_Maze_Test.nxc"
10	103	96		mov __SPTArgs.Volume, __signed_stack_003color
10	102	99	#line 102 "C:\Users\Lshi\Documents\Extracurriculars\Gov School\Robotics\GSET_Robotics\Maze\409_Maze_Test.nxc"
10	103	99		mov __SPTArgs.Loop, __D0color
10	102	102	#line 102 "C:\Users\Lshi\Documents\Extracurriculars\Gov School\Robotics\GSET_Robotics\Maze\409_Maze_Test.nxc"
10	103	102		syscall 10, __SPTArgs
10	102	105	#line 102 "C:\Users\Lshi\Documents\Extracurriculars\Gov School\Robotics\GSET_Robotics\Maze\409_Maze_Test.nxc"
10	103	105		mov __D0color, __SPTArgs.Result
10	102	108	#line 102 "C:\Users\Lshi\Documents\Extracurriculars\Gov School\Robotics\GSET_Robotics\Maze\409_Maze_Test.nxc"
10	103	108		release __SPTArgsMutex
10	102	109	#line 102 "C:\Users\Lshi\Documents\Extracurriculars\Gov School\Robotics\GSET_Robotics\Maze\409_Maze_Test.nxc"
10	102	109	#line 102 "C:\Users\Lshi\Documents\Extracurriculars\Gov School\Robotics\GSET_Robotics\Maze\409_Maze_Test.nxc"
10	103	109		set __Wait_7qG2_ms_7qG2_000_inline_color, 4000
10	102	112	#line 102 "C:\Users\Lshi\Documents\Extracurriculars\Gov School\Robotics\GSET_Robotics\Maze\409_Maze_Test.nxc"
10	7921	112	#line 7921 "NXCDefs.h"
10	7922	112		wait2 NA, __Wait_7qG2_ms_7qG2_000_inline_color
10	7921	115	#line 7921 "NXCDefs.h"
10	103	115	#line 103 "C:\Users\Lshi\Documents\Extracurriculars\Gov School\Robotics\GSET_Robotics\Maze\409_Maze_Test.nxc"
10	105	115	#line 105 "C:\Users\Lshi\Documents\Extracurriculars\Gov School\Robotics\GSET_Robotics\Maze\409_Maze_Test.nxc"
10	106	115		jmp __NXC_Label_570
10	105	117	#line 105 "C:\Users\Lshi\Documents\Extracurriculars\Gov School\Robotics\GSET_Robotics\Maze\409_Maze_Test.nxc"
10	106	117	#pragma macro 24
10	106	117		acquire __RLSBmutex2
10	106	118		mov __RLSReadBuf2, __RLSBbufLSWrite1
10	106	120		set __RLSBytesCount2, 1
10	106	123		subcall __ReadLSBytes2, ____ReadLSBytes2_return
10	106	126		index __D0color, __RLSReadBuf2, 65535
10	106	130		release __RLSBmutex2
10	5842	131	#line 5842 "C:\Users\Lshi\Documents\Extracurriculars\Gov School\Robotics\GSET_Robotics\Maze\409_Maze_Test.nxc"
10	105	131	#line 105 "C:\Users\Lshi\Documents\Extracurriculars\Gov School\Robotics\GSET_Robotics\Maze\409_Maze_Test.nxc"
10	106	131		mov __signed_stack_001color, __D0color
10	106	133	#line 106 "C:\Users\Lshi\Documents\Extracurriculars\Gov School\Robotics\GSET_Robotics\Maze\409_Maze_Test.nxc"
10	107	133		set __D0color, 9
10	106	136	#line 106 "C:\Users\Lshi\Documents\Extracurriculars\Gov School\Robotics\GSET_Robotics\Maze\409_Maze_Test.nxc"
10	107	136		cmp 4, __zfcolor, __signed_stack_001color, __D0color
10	106	140	#line 106 "C:\Users\Lshi\Documents\Extracurriculars\Gov School\Robotics\GSET_Robotics\Maze\409_Maze_Test.nxc"
10	107	140		mov __D0color, __zfcolor
10	107	142	#line 107 "C:\Users\Lshi\Documents\Extracurriculars\Gov School\Robotics\GSET_Robotics\Maze\409_Maze_Test.nxc"
10	108	142		brtst 4, __NXC_Label_573, __zfcolor
10	116	145	#line 116 "C:\Users\Lshi\Documents\Extracurriculars\Gov School\Robotics\GSET_Robotics\Maze\409_Maze_Test.nxc"
10	117	145		set mode, 2
10	116	148	#line 116 "C:\Users\Lshi\Documents\Extracurriculars\Gov School\Robotics\GSET_Robotics\Maze\409_Maze_Test.nxc"
10	116	148	#line 116 "C:\Users\Lshi\Documents\Extracurriculars\Gov School\Robotics\GSET_Robotics\Maze\409_Maze_Test.nxc"
10	119	148	#line 119 "C:\Users\Lshi\Documents\Extracurriculars\Gov School\Robotics\GSET_Robotics\Maze\409_Maze_Test.nxc"
10	119	148	#line 119 "C:\Users\Lshi\Documents\Extracurriculars\Gov School\Robotics\GSET_Robotics\Maze\409_Maze_Test.nxc"
10	121	148	#line 121 "C:\Users\Lshi\Documents\Extracurriculars\Gov School\Robotics\GSET_Robotics\Maze\409_Maze_Test.nxc"
10	122	148		jmp __NXC_Label_552
10	121	150	#line 121 "C:\Users\Lshi\Documents\Extracurriculars\Gov School\Robotics\GSET_Robotics\Maze\409_Maze_Test.nxc"
10	122	150		exit -1, -1
11	123	0	#line 123 "C:\Users\Lshi\Documents\Extracurriculars\Gov School\Robotics\GSET_Robotics\Maze\409_Maze_Test.nxc"
11	124	0		mov __driveUpToWall_7qG2_look_7qG2_000, __constVal0
11	123	2	#line 123 "C:\Users\Lshi\Documents\Extracurriculars\Gov School\Robotics\GSET_Robotics\Maze\409_Maze_Test.nxc"
11	124	2		subcall driveUpToWall, __driveUpToWall_return
11	123	4	#line 123 "C:\Users\Lshi\Documents\Extracurriculars\Gov School\Robotics\GSET_Robotics\Maze\409_Maze_Test.nxc"
11	123	4	#line 123 "C:\Users\Lshi\Documents\Extracurriculars\Gov School\Robotics\GSET_Robotics\Maze\409_Maze_Test.nxc"
11	124	4		mov __doubleWheelTurn_7qG2_degrees_7qG2_000, __constValNeg90
11	123	6	#line 123 "C:\Users\Lshi\Documents\Extracurriculars\Gov School\Robotics\GSET_Robotics\Maze\409_Maze_Test.nxc"
11	124	6	#line 124 "C:\Users\Lshi\Documents\Extracurriculars\Gov School\Robotics\GSET_Robotics\Maze\409_Maze_Test.nxc"
11	125	6		subcall doubleWheelTurn, __doubleWheelTurn_return
11	124	8	#line 124 "C:\Users\Lshi\Documents\Extracurriculars\Gov School\Robotics\GSET_Robotics\Maze\409_Maze_Test.nxc"
11	125	8	#line 125 "C:\Users\Lshi\Documents\Extracurriculars\Gov School\Robotics\GSET_Robotics\Maze\409_Maze_Test.nxc"
11	126	8		mov __driveUpToWall_7qG2_look_7qG2_000, __constVal0
11	125	10	#line 125 "C:\Users\Lshi\Documents\Extracurriculars\Gov School\Robotics\GSET_Robotics\Maze\409_Maze_Test.nxc"
11	126	10		subcall driveUpToWall, __driveUpToWall_return
11	125	12	#line 125 "C:\Users\Lshi\Documents\Extracurriculars\Gov School\Robotics\GSET_Robotics\Maze\409_Maze_Test.nxc"
11	125	12	#line 125 "C:\Users\Lshi\Documents\Extracurriculars\Gov School\Robotics\GSET_Robotics\Maze\409_Maze_Test.nxc"
11	126	12		set __doubleWheelTurn_7qG2_degrees_7qG2_000, 90
11	125	15	#line 125 "C:\Users\Lshi\Documents\Extracurriculars\Gov School\Robotics\GSET_Robotics\Maze\409_Maze_Test.nxc"
11	126	15	#line 126 "C:\Users\Lshi\Documents\Extracurriculars\Gov School\Robotics\GSET_Robotics\Maze\409_Maze_Test.nxc"
11	127	15		subcall doubleWheelTurn, __doubleWheelTurn_return
11	126	17	#line 126 "C:\Users\Lshi\Documents\Extracurriculars\Gov School\Robotics\GSET_Robotics\Maze\409_Maze_Test.nxc"
11	126	17	#line 126 "C:\Users\Lshi\Documents\Extracurriculars\Gov School\Robotics\GSET_Robotics\Maze\409_Maze_Test.nxc"
11	127	17		subcall ballFind, __ballFind_return
11	126	19	#line 126 "C:\Users\Lshi\Documents\Extracurriculars\Gov School\Robotics\GSET_Robotics\Maze\409_Maze_Test.nxc"
11	127	19		mov __D0mazeNav, __D0ballFind
11	130	21	#line 130 "C:\Users\Lshi\Documents\Extracurriculars\Gov School\Robotics\GSET_Robotics\Maze\409_Maze_Test.nxc"
11	131	21		tst 5, __zfmazeNav, __D0mazeNav
11	130	24	#line 130 "C:\Users\Lshi\Documents\Extracurriculars\Gov School\Robotics\GSET_Robotics\Maze\409_Maze_Test.nxc"
11	131	24		brtst 4, __NXC_Label_582, __zfmazeNav
11	136	27	#line 136 "C:\Users\Lshi\Documents\Extracurriculars\Gov School\Robotics\GSET_Robotics\Maze\409_Maze_Test.nxc"
11	137	27		subcall ballCatch, __ballCatch_return
11	136	29	#line 136 "C:\Users\Lshi\Documents\Extracurriculars\Gov School\Robotics\GSET_Robotics\Maze\409_Maze_Test.nxc"
11	137	29	#line 137 "C:\Users\Lshi\Documents\Extracurriculars\Gov School\Robotics\GSET_Robotics\Maze\409_Maze_Test.nxc"
11	138	29		mov __driveUpToWall_7qG2_look_7qG2_000, __constVal0
11	137	31	#line 137 "C:\Users\Lshi\Documents\Extracurriculars\Gov School\Robotics\GSET_Robotics\Maze\409_Maze_Test.nxc"
11	138	31		subcall driveUpToWall, __driveUpToWall_return
11	137	33	#line 137 "C:\Users\Lshi\Documents\Extracurriculars\Gov School\Robotics\GSET_Robotics\Maze\409_Maze_Test.nxc"
11	137	33	#line 137 "C:\Users\Lshi\Documents\Extracurriculars\Gov School\Robotics\GSET_Robotics\Maze\409_Maze_Test.nxc"
11	138	33		set __doubleWheelTurn_7qG2_degrees_7qG2_000, 90
11	137	36	#line 137 "C:\Users\Lshi\Documents\Extracurriculars\Gov School\Robotics\GSET_Robotics\Maze\409_Maze_Test.nxc"
11	138	36	#line 138 "C:\Users\Lshi\Documents\Extracurriculars\Gov School\Robotics\GSET_Robotics\Maze\409_Maze_Test.nxc"
11	139	36		subcall doubleWheelTurn, __doubleWheelTurn_return
11	138	38	#line 138 "C:\Users\Lshi\Documents\Extracurriculars\Gov School\Robotics\GSET_Robotics\Maze\409_Maze_Test.nxc"
11	138	38	#line 138 "C:\Users\Lshi\Documents\Extracurriculars\Gov School\Robotics\GSET_Robotics\Maze\409_Maze_Test.nxc"
11	139	38		set __driveUpToNotWall_7qG2_look2_7qG2_000, 90
11	138	41	#line 138 "C:\Users\Lshi\Documents\Extracurriculars\Gov School\Robotics\GSET_Robotics\Maze\409_Maze_Test.nxc"
11	139	41	#line 139 "C:\Users\Lshi\Documents\Extracurriculars\Gov School\Robotics\GSET_Robotics\Maze\409_Maze_Test.nxc"
11	140	41		subcall driveUpToNotWall, __driveUpToNotWall_return
11	139	43	#line 139 "C:\Users\Lshi\Documents\Extracurriculars\Gov School\Robotics\GSET_Robotics\Maze\409_Maze_Test.nxc"
11	139	43	#line 139 "C:\Users\Lshi\Documents\Extracurriculars\Gov School\Robotics\GSET_Robotics\Maze\409_Maze_Test.nxc"
11	140	43		mov __doubleWheelTurn_7qG2_degrees_7qG2_000, __constValNeg90
11	139	45	#line 139 "C:\Users\Lshi\Documents\Extracurriculars\Gov School\Robotics\GSET_Robotics\Maze\409_Maze_Test.nxc"
11	140	45	#line 140 "C:\Users\Lshi\Documents\Extracurriculars\Gov School\Robotics\GSET_Robotics\Maze\409_Maze_Test.nxc"
11	141	45		subcall doubleWheelTurn, __doubleWheelTurn_return
11	140	47	#line 140 "C:\Users\Lshi\Documents\Extracurriculars\Gov School\Robotics\GSET_Robotics\Maze\409_Maze_Test.nxc"
11	140	47	#line 140 "C:\Users\Lshi\Documents\Extracurriculars\Gov School\Robotics\GSET_Robotics\Maze\409_Maze_Test.nxc"
11	140	47	#line 140 "C:\Users\Lshi\Documents\Extracurriculars\Gov School\Robotics\GSET_Robotics\Maze\409_Maze_Test.nxc"
11	140	47	#line 140 "C:\Users\Lshi\Documents\Extracurriculars\Gov School\Robotics\GSET_Robotics\Maze\409_Maze_Test.nxc"
11	140	47	#line 140 "C:\Users\Lshi\Documents\Extracurriculars\Gov School\Robotics\GSET_Robotics\Maze\409_Maze_Test.nxc"
11	141	47		mul __signed_stack_001mazeNav, __constVal60, dir
11	140	51	#line 140 "C:\Users\Lshi\Documents\Extracurriculars\Gov School\Robotics\GSET_Robotics\Maze\409_Maze_Test.nxc"
11	140	51	#line 140 "C:\Users\Lshi\Documents\Extracurriculars\Gov School\Robotics\GSET_Robotics\Maze\409_Maze_Test.nxc"
11	141	51		set __D0mazeNav, 0
11	141	54	#line 141 "C:\Users\Lshi\Documents\Extracurriculars\Gov School\Robotics\GSET_Robotics\Maze\409_Maze_Test.nxc"
11	142	54	#pragma macro 7
11	142	54		setout __OUT_AC, 2, __signed_stack_001mazeNav, 1, __constVal7, 8, __constVal2, 7, __D0mazeNav, 6, __constVal32, 5, __constVal0, 10, __constVal96, 11, __constVal32, 12, __constVal32, 0, __constVal63
11	5963	77	#line 5963 "C:\Users\Lshi\Documents\Extracurriculars\Gov School\Robotics\GSET_Robotics\Maze\409_Maze_Test.nxc"
11	141	77	#line 141 "C:\Users\Lshi\Documents\Extracurriculars\Gov School\Robotics\GSET_Robotics\Maze\409_Maze_Test.nxc"
11	141	77	#line 141 "C:\Users\Lshi\Documents\Extracurriculars\Gov School\Robotics\GSET_Robotics\Maze\409_Maze_Test.nxc"
11	142	77		set __Wait_7qG2_ms_7qG2_000_inline_mazeNav, 5000
11	141	80	#line 141 "C:\Users\Lshi\Documents\Extracurriculars\Gov School\Robotics\GSET_Robotics\Maze\409_Maze_Test.nxc"
11	7921	80	#line 7921 "NXCDefs.h"
11	7922	80		wait2 NA, __Wait_7qG2_ms_7qG2_000_inline_mazeNav
11	7921	83	#line 7921 "NXCDefs.h"
11	142	83	#line 142 "C:\Users\Lshi\Documents\Extracurriculars\Gov School\Robotics\GSET_Robotics\Maze\409_Maze_Test.nxc"
11	142	83	#line 142 "C:\Users\Lshi\Documents\Extracurriculars\Gov School\Robotics\GSET_Robotics\Maze\409_Maze_Test.nxc"
11	143	83		set __signed_stack_001mazeNav, 0
11	142	86	#line 142 "C:\Users\Lshi\Documents\Extracurriculars\Gov School\Robotics\GSET_Robotics\Maze\409_Maze_Test.nxc"
11	142	86	#line 142 "C:\Users\Lshi\Documents\Extracurriculars\Gov School\Robotics\GSET_Robotics\Maze\409_Maze_Test.nxc"
11	143	86		set __D0mazeNav, 0
11	144	89	#line 144 "C:\Users\Lshi\Documents\Extracurriculars\Gov School\Robotics\GSET_Robotics\Maze\409_Maze_Test.nxc"
11	145	89	#pragma macro 7
11	145	89		setout __OUT_AC, 2, __signed_stack_001mazeNav, 1, __constVal7, 8, __constVal2, 7, __D0mazeNav, 6, __constVal32, 5, __constVal0, 10, __constVal96, 11, __constVal32, 12, __constVal32, 0, __constVal63
11	5990	112	#line 5990 "C:\Users\Lshi\Documents\Extracurriculars\Gov School\Robotics\GSET_Robotics\Maze\409_Maze_Test.nxc"
11	144	112	#line 144 "C:\Users\Lshi\Documents\Extracurriculars\Gov School\Robotics\GSET_Robotics\Maze\409_Maze_Test.nxc"
11	144	112	#line 144 "C:\Users\Lshi\Documents\Extracurriculars\Gov School\Robotics\GSET_Robotics\Maze\409_Maze_Test.nxc"
11	145	112		mov __Wait_7qG2_ms_7qG2_000_inline_mazeNav, __constVal100000
11	144	114	#line 144 "C:\Users\Lshi\Documents\Extracurriculars\Gov School\Robotics\GSET_Robotics\Maze\409_Maze_Test.nxc"
11	7921	114	#line 7921 "NXCDefs.h"
11	7922	114		wait2 NA, __Wait_7qG2_ms_7qG2_000_inline_mazeNav
11	7921	117	#line 7921 "NXCDefs.h"
11	145	117	#line 145 "C:\Users\Lshi\Documents\Extracurriculars\Gov School\Robotics\GSET_Robotics\Maze\409_Maze_Test.nxc"
11	146	117	#line 146 "C:\Users\Lshi\Documents\Extracurriculars\Gov School\Robotics\GSET_Robotics\Maze\409_Maze_Test.nxc"
11	146	117	#line 146 "C:\Users\Lshi\Documents\Extracurriculars\Gov School\Robotics\GSET_Robotics\Maze\409_Maze_Test.nxc"
11	147	117		set __doubleWheelTurn_7qG2_degrees_7qG2_000, 90
11	146	120	#line 146 "C:\Users\Lshi\Documents\Extracurriculars\Gov School\Robotics\GSET_Robotics\Maze\409_Maze_Test.nxc"
11	147	120	#line 147 "C:\Users\Lshi\Documents\Extracurriculars\Gov School\Robotics\GSET_Robotics\Maze\409_Maze_Test.nxc"
11	148	120		subcall doubleWheelTurn, __doubleWheelTurn_return
11	147	122	#line 147 "C:\Users\Lshi\Documents\Extracurriculars\Gov School\Robotics\GSET_Robotics\Maze\409_Maze_Test.nxc"
11	148	122	#line 148 "C:\Users\Lshi\Documents\Extracurriculars\Gov School\Robotics\GSET_Robotics\Maze\409_Maze_Test.nxc"
11	149	122		mov __driveUpToWall_7qG2_look_7qG2_000, __constVal0
11	148	124	#line 148 "C:\Users\Lshi\Documents\Extracurriculars\Gov School\Robotics\GSET_Robotics\Maze\409_Maze_Test.nxc"
11	149	124		subcall driveUpToWall, __driveUpToWall_return
11	148	126	#line 148 "C:\Users\Lshi\Documents\Extracurriculars\Gov School\Robotics\GSET_Robotics\Maze\409_Maze_Test.nxc"
11	148	126	#line 148 "C:\Users\Lshi\Documents\Extracurriculars\Gov School\Robotics\GSET_Robotics\Maze\409_Maze_Test.nxc"
11	149	126		mov __doubleWheelTurn_7qG2_degrees_7qG2_000, __constValNeg90
11	148	128	#line 148 "C:\Users\Lshi\Documents\Extracurriculars\Gov School\Robotics\GSET_Robotics\Maze\409_Maze_Test.nxc"
11	149	128	#line 149 "C:\Users\Lshi\Documents\Extracurriculars\Gov School\Robotics\GSET_Robotics\Maze\409_Maze_Test.nxc"
11	150	128		subcall doubleWheelTurn, __doubleWheelTurn_return
11	149	130	#line 149 "C:\Users\Lshi\Documents\Extracurriculars\Gov School\Robotics\GSET_Robotics\Maze\409_Maze_Test.nxc"
11	149	130	#line 149 "C:\Users\Lshi\Documents\Extracurriculars\Gov School\Robotics\GSET_Robotics\Maze\409_Maze_Test.nxc"
11	150	130		subcall ballFind, __ballFind_return
11	149	132	#line 149 "C:\Users\Lshi\Documents\Extracurriculars\Gov School\Robotics\GSET_Robotics\Maze\409_Maze_Test.nxc"
11	150	132		mov __D0mazeNav, __D0ballFind
11	154	134	#line 154 "C:\Users\Lshi\Documents\Extracurriculars\Gov School\Robotics\GSET_Robotics\Maze\409_Maze_Test.nxc"
11	155	134		tst 5, __zfmazeNav, __D0mazeNav
11	154	137	#line 154 "C:\Users\Lshi\Documents\Extracurriculars\Gov School\Robotics\GSET_Robotics\Maze\409_Maze_Test.nxc"
11	155	137		brtst 4, __NXC_Label_607, __zfmazeNav
11	160	140	#line 160 "C:\Users\Lshi\Documents\Extracurriculars\Gov School\Robotics\GSET_Robotics\Maze\409_Maze_Test.nxc"
11	161	140		subcall ballCatch, __ballCatch_return
11	160	142	#line 160 "C:\Users\Lshi\Documents\Extracurriculars\Gov School\Robotics\GSET_Robotics\Maze\409_Maze_Test.nxc"
11	161	142	#line 161 "C:\Users\Lshi\Documents\Extracurriculars\Gov School\Robotics\GSET_Robotics\Maze\409_Maze_Test.nxc"
11	162	142		mov __driveUpToWall_7qG2_look_7qG2_000, __constVal0
11	161	144	#line 161 "C:\Users\Lshi\Documents\Extracurriculars\Gov School\Robotics\GSET_Robotics\Maze\409_Maze_Test.nxc"
11	162	144		subcall driveUpToWall, __driveUpToWall_return
11	161	146	#line 161 "C:\Users\Lshi\Documents\Extracurriculars\Gov School\Robotics\GSET_Robotics\Maze\409_Maze_Test.nxc"
11	161	146	#line 161 "C:\Users\Lshi\Documents\Extracurriculars\Gov School\Robotics\GSET_Robotics\Maze\409_Maze_Test.nxc"
11	162	146		mov __doubleWheelTurn_7qG2_degrees_7qG2_000, __constValNeg90
11	161	148	#line 161 "C:\Users\Lshi\Documents\Extracurriculars\Gov School\Robotics\GSET_Robotics\Maze\409_Maze_Test.nxc"
11	162	148	#line 162 "C:\Users\Lshi\Documents\Extracurriculars\Gov School\Robotics\GSET_Robotics\Maze\409_Maze_Test.nxc"
11	163	148		subcall doubleWheelTurn, __doubleWheelTurn_return
11	162	150	#line 162 "C:\Users\Lshi\Documents\Extracurriculars\Gov School\Robotics\GSET_Robotics\Maze\409_Maze_Test.nxc"
11	162	150	#line 162 "C:\Users\Lshi\Documents\Extracurriculars\Gov School\Robotics\GSET_Robotics\Maze\409_Maze_Test.nxc"
11	163	150		mov __driveUpToNotWall_7qG2_look2_7qG2_000, __constValNeg90
11	162	152	#line 162 "C:\Users\Lshi\Documents\Extracurriculars\Gov School\Robotics\GSET_Robotics\Maze\409_Maze_Test.nxc"
11	163	152	#line 163 "C:\Users\Lshi\Documents\Extracurriculars\Gov School\Robotics\GSET_Robotics\Maze\409_Maze_Test.nxc"
11	164	152		subcall driveUpToNotWall, __driveUpToNotWall_return
11	163	154	#line 163 "C:\Users\Lshi\Documents\Extracurriculars\Gov School\Robotics\GSET_Robotics\Maze\409_Maze_Test.nxc"
11	163	154	#line 163 "C:\Users\Lshi\Documents\Extracurriculars\Gov School\Robotics\GSET_Robotics\Maze\409_Maze_Test.nxc"
11	164	154		set __doubleWheelTurn_7qG2_degrees_7qG2_000, 90
11	163	157	#line 163 "C:\Users\Lshi\Documents\Extracurriculars\Gov School\Robotics\GSET_Robotics\Maze\409_Maze_Test.nxc"
11	164	157	#line 164 "C:\Users\Lshi\Documents\Extracurriculars\Gov School\Robotics\GSET_Robotics\Maze\409_Maze_Test.nxc"
11	165	157		subcall doubleWheelTurn, __doubleWheelTurn_return
11	164	159	#line 164 "C:\Users\Lshi\Documents\Extracurriculars\Gov School\Robotics\GSET_Robotics\Maze\409_Maze_Test.nxc"
11	164	159	#line 164 "C:\Users\Lshi\Documents\Extracurriculars\Gov School\Robotics\GSET_Robotics\Maze\409_Maze_Test.nxc"
11	164	159	#line 164 "C:\Users\Lshi\Documents\Extracurriculars\Gov School\Robotics\GSET_Robotics\Maze\409_Maze_Test.nxc"
11	164	159	#line 164 "C:\Users\Lshi\Documents\Extracurriculars\Gov School\Robotics\GSET_Robotics\Maze\409_Maze_Test.nxc"
11	164	159	#line 164 "C:\Users\Lshi\Documents\Extracurriculars\Gov School\Robotics\GSET_Robotics\Maze\409_Maze_Test.nxc"
11	165	159		mul __signed_stack_001mazeNav, __constVal60, dir
11	164	163	#line 164 "C:\Users\Lshi\Documents\Extracurriculars\Gov School\Robotics\GSET_Robotics\Maze\409_Maze_Test.nxc"
11	164	163	#line 164 "C:\Users\Lshi\Documents\Extracurriculars\Gov School\Robotics\GSET_Robotics\Maze\409_Maze_Test.nxc"
11	165	163		set __D0mazeNav, 0
11	165	166	#line 165 "C:\Users\Lshi\Documents\Extracurriculars\Gov School\Robotics\GSET_Robotics\Maze\409_Maze_Test.nxc"
11	166	166	#pragma macro 7
11	166	166		setout __OUT_AC, 2, __signed_stack_001mazeNav, 1, __constVal7, 8, __constVal2, 7, __D0mazeNav, 6, __constVal32, 5, __constVal0, 10, __constVal96, 11, __constVal32, 12, __constVal32, 0, __constVal63
11	6089	189	#line 6089 "C:\Users\Lshi\Documents\Extracurriculars\Gov School\Robotics\GSET_Robotics\Maze\409_Maze_Test.nxc"
11	165	189	#line 165 "C:\Users\Lshi\Documents\Extracurriculars\Gov School\Robotics\GSET_Robotics\Maze\409_Maze_Test.nxc"
11	165	189	#line 165 "C:\Users\Lshi\Documents\Extracurriculars\Gov School\Robotics\GSET_Robotics\Maze\409_Maze_Test.nxc"
11	166	189		set __Wait_7qG2_ms_7qG2_000_inline_mazeNav, 5000
11	165	192	#line 165 "C:\Users\Lshi\Documents\Extracurriculars\Gov School\Robotics\GSET_Robotics\Maze\409_Maze_Test.nxc"
11	7921	192	#line 7921 "NXCDefs.h"
11	7922	192		wait2 NA, __Wait_7qG2_ms_7qG2_000_inline_mazeNav
11	7921	195	#line 7921 "NXCDefs.h"
11	166	195	#line 166 "C:\Users\Lshi\Documents\Extracurriculars\Gov School\Robotics\GSET_Robotics\Maze\409_Maze_Test.nxc"
11	166	195	#line 166 "C:\Users\Lshi\Documents\Extracurriculars\Gov School\Robotics\GSET_Robotics\Maze\409_Maze_Test.nxc"
11	167	195		set __signed_stack_001mazeNav, 0
11	166	198	#line 166 "C:\Users\Lshi\Documents\Extracurriculars\Gov School\Robotics\GSET_Robotics\Maze\409_Maze_Test.nxc"
11	166	198	#line 166 "C:\Users\Lshi\Documents\Extracurriculars\Gov School\Robotics\GSET_Robotics\Maze\409_Maze_Test.nxc"
11	167	198		set __D0mazeNav, 0
11	167	201	#line 167 "C:\Users\Lshi\Documents\Extracurriculars\Gov School\Robotics\GSET_Robotics\Maze\409_Maze_Test.nxc"
11	168	201	#pragma macro 7
11	168	201		setout __OUT_AC, 2, __signed_stack_001mazeNav, 1, __constVal7, 8, __constVal2, 7, __D0mazeNav, 6, __constVal32, 5, __constVal0, 10, __constVal96, 11, __constVal32, 12, __constVal32, 0, __constVal63
11	6112	224	#line 6112 "C:\Users\Lshi\Documents\Extracurriculars\Gov School\Robotics\GSET_Robotics\Maze\409_Maze_Test.nxc"
11	167	224	#line 167 "C:\Users\Lshi\Documents\Extracurriculars\Gov School\Robotics\GSET_Robotics\Maze\409_Maze_Test.nxc"
11	167	224	#line 167 "C:\Users\Lshi\Documents\Extracurriculars\Gov School\Robotics\GSET_Robotics\Maze\409_Maze_Test.nxc"
11	168	224		mov __Wait_7qG2_ms_7qG2_000_inline_mazeNav, __constVal999999
11	167	226	#line 167 "C:\Users\Lshi\Documents\Extracurriculars\Gov School\Robotics\GSET_Robotics\Maze\409_Maze_Test.nxc"
11	7921	226	#line 7921 "NXCDefs.h"
11	7922	226		wait2 NA, __Wait_7qG2_ms_7qG2_000_inline_mazeNav
11	7921	229	#line 7921 "NXCDefs.h"
11	168	229	#line 168 "C:\Users\Lshi\Documents\Extracurriculars\Gov School\Robotics\GSET_Robotics\Maze\409_Maze_Test.nxc"
11	169	229	#line 169 "C:\Users\Lshi\Documents\Extracurriculars\Gov School\Robotics\GSET_Robotics\Maze\409_Maze_Test.nxc"
11	169	229	#line 169 "C:\Users\Lshi\Documents\Extracurriculars\Gov School\Robotics\GSET_Robotics\Maze\409_Maze_Test.nxc"
11	170	229		mov __doubleWheelTurn_7qG2_degrees_7qG2_000, __constValNeg90
11	169	231	#line 169 "C:\Users\Lshi\Documents\Extracurriculars\Gov School\Robotics\GSET_Robotics\Maze\409_Maze_Test.nxc"
11	170	231	#line 170 "C:\Users\Lshi\Documents\Extracurriculars\Gov School\Robotics\GSET_Robotics\Maze\409_Maze_Test.nxc"
11	171	231		subcall doubleWheelTurn, __doubleWheelTurn_return
11	170	233	#line 170 "C:\Users\Lshi\Documents\Extracurriculars\Gov School\Robotics\GSET_Robotics\Maze\409_Maze_Test.nxc"
11	170	233	#line 170 "C:\Users\Lshi\Documents\Extracurriculars\Gov School\Robotics\GSET_Robotics\Maze\409_Maze_Test.nxc"
11	171	233		mov __driveUpToWall_7qG2_look_7qG2_000, __constValNeg90
11	170	235	#line 170 "C:\Users\Lshi\Documents\Extracurriculars\Gov School\Robotics\GSET_Robotics\Maze\409_Maze_Test.nxc"
11	171	235	#line 171 "C:\Users\Lshi\Documents\Extracurriculars\Gov School\Robotics\GSET_Robotics\Maze\409_Maze_Test.nxc"
11	172	235		subcall driveUpToWall, __driveUpToWall_return
11	171	237	#line 171 "C:\Users\Lshi\Documents\Extracurriculars\Gov School\Robotics\GSET_Robotics\Maze\409_Maze_Test.nxc"
11	171	237	#line 171 "C:\Users\Lshi\Documents\Extracurriculars\Gov School\Robotics\GSET_Robotics\Maze\409_Maze_Test.nxc"
11	171	237	#line 171 "C:\Users\Lshi\Documents\Extracurriculars\Gov School\Robotics\GSET_Robotics\Maze\409_Maze_Test.nxc"
11	171	237	#line 171 "C:\Users\Lshi\Documents\Extracurriculars\Gov School\Robotics\GSET_Robotics\Maze\409_Maze_Test.nxc"
11	171	237	#line 171 "C:\Users\Lshi\Documents\Extracurriculars\Gov School\Robotics\GSET_Robotics\Maze\409_Maze_Test.nxc"
11	172	237		mul __signed_stack_001mazeNav, dir, __constVal60
11	171	241	#line 171 "C:\Users\Lshi\Documents\Extracurriculars\Gov School\Robotics\GSET_Robotics\Maze\409_Maze_Test.nxc"
11	171	241	#line 171 "C:\Users\Lshi\Documents\Extracurriculars\Gov School\Robotics\GSET_Robotics\Maze\409_Maze_Test.nxc"
11	172	241		set __D0mazeNav, 0
11	172	244	#line 172 "C:\Users\Lshi\Documents\Extracurriculars\Gov School\Robotics\GSET_Robotics\Maze\409_Maze_Test.nxc"
11	173	244	#pragma macro 7
11	173	244		setout __OUT_AC, 2, __signed_stack_001mazeNav, 1, __constVal7, 8, __constVal2, 7, __D0mazeNav, 6, __constVal32, 5, __constVal0, 10, __constVal96, 11, __constVal32, 12, __constVal32, 0, __constVal63
11	6161	267	#line 6161 "C:\Users\Lshi\Documents\Extracurriculars\Gov School\Robotics\GSET_Robotics\Maze\409_Maze_Test.nxc"
11	172	267	#line 172 "C:\Users\Lshi\Documents\Extracurriculars\Gov School\Robotics\GSET_Robotics\Maze\409_Maze_Test.nxc"
11	172	267	#line 172 "C:\Users\Lshi\Documents\Extracurriculars\Gov School\Robotics\GSET_Robotics\Maze\409_Maze_Test.nxc"
11	173	267		set __Wait_7qG2_ms_7qG2_000_inline_mazeNav, 500
11	172	270	#line 172 "C:\Users\Lshi\Documents\Extracurriculars\Gov School\Robotics\GSET_Robotics\Maze\409_Maze_Test.nxc"
11	7921	270	#line 7921 "NXCDefs.h"
11	7922	270		wait2 NA, __Wait_7qG2_ms_7qG2_000_inline_mazeNav
11	7921	273	#line 7921 "NXCDefs.h"
11	173	273	#line 173 "C:\Users\Lshi\Documents\Extracurriculars\Gov School\Robotics\GSET_Robotics\Maze\409_Maze_Test.nxc"
11	173	273	#line 173 "C:\Users\Lshi\Documents\Extracurriculars\Gov School\Robotics\GSET_Robotics\Maze\409_Maze_Test.nxc"
11	174	273		mov __driveUpToNotWall_7qG2_look2_7qG2_000, __constValNeg90
11	173	275	#line 173 "C:\Users\Lshi\Documents\Extracurriculars\Gov School\Robotics\GSET_Robotics\Maze\409_Maze_Test.nxc"
11	174	275	#line 174 "C:\Users\Lshi\Documents\Extracurriculars\Gov School\Robotics\GSET_Robotics\Maze\409_Maze_Test.nxc"
11	175	275		subcall driveUpToNotWall, __driveUpToNotWall_return
11	174	277	#line 174 "C:\Users\Lshi\Documents\Extracurriculars\Gov School\Robotics\GSET_Robotics\Maze\409_Maze_Test.nxc"
11	174	277	#line 174 "C:\Users\Lshi\Documents\Extracurriculars\Gov School\Robotics\GSET_Robotics\Maze\409_Maze_Test.nxc"
11	175	277		set __singleWheelTurn_7qG2_motor_7qG2_000, 2
11	174	280	#line 174 "C:\Users\Lshi\Documents\Extracurriculars\Gov School\Robotics\GSET_Robotics\Maze\409_Maze_Test.nxc"
11	174	280	#line 174 "C:\Users\Lshi\Documents\Extracurriculars\Gov School\Robotics\GSET_Robotics\Maze\409_Maze_Test.nxc"
11	175	280		set __singleWheelTurn_7qG2_degrees_7qG2_000, 90
11	174	283	#line 174 "C:\Users\Lshi\Documents\Extracurriculars\Gov School\Robotics\GSET_Robotics\Maze\409_Maze_Test.nxc"
11	175	283	#line 175 "C:\Users\Lshi\Documents\Extracurriculars\Gov School\Robotics\GSET_Robotics\Maze\409_Maze_Test.nxc"
11	176	283		subcall singleWheelTurn, __singleWheelTurn_return
11	175	285	#line 175 "C:\Users\Lshi\Documents\Extracurriculars\Gov School\Robotics\GSET_Robotics\Maze\409_Maze_Test.nxc"
11	175	285	#line 175 "C:\Users\Lshi\Documents\Extracurriculars\Gov School\Robotics\GSET_Robotics\Maze\409_Maze_Test.nxc"
11	176	285		mov __signed_stack_001mazeNav, __constValNeg30
11	175	287	#line 175 "C:\Users\Lshi\Documents\Extracurriculars\Gov School\Robotics\GSET_Robotics\Maze\409_Maze_Test.nxc"
11	175	287	#line 175 "C:\Users\Lshi\Documents\Extracurriculars\Gov School\Robotics\GSET_Robotics\Maze\409_Maze_Test.nxc"
11	176	287		set __D0mazeNav, 0
11	176	290	#line 176 "C:\Users\Lshi\Documents\Extracurriculars\Gov School\Robotics\GSET_Robotics\Maze\409_Maze_Test.nxc"
11	177	290	#pragma macro 7
11	177	290		setout __OUT_AC, 2, __signed_stack_001mazeNav, 1, __constVal7, 8, __constVal2, 7, __D0mazeNav, 6, __constVal32, 5, __constVal0, 10, __constVal96, 11, __constVal32, 12, __constVal32, 0, __constVal63
11	6208	313	#line 6208 "C:\Users\Lshi\Documents\Extracurriculars\Gov School\Robotics\GSET_Robotics\Maze\409_Maze_Test.nxc"
11	176	313	#line 176 "C:\Users\Lshi\Documents\Extracurriculars\Gov School\Robotics\GSET_Robotics\Maze\409_Maze_Test.nxc"
11	176	313	#line 176 "C:\Users\Lshi\Documents\Extracurriculars\Gov School\Robotics\GSET_Robotics\Maze\409_Maze_Test.nxc"
11	177	313		set __Wait_7qG2_ms_7qG2_000_inline_mazeNav, 1750
11	176	316	#line 176 "C:\Users\Lshi\Documents\Extracurriculars\Gov School\Robotics\GSET_Robotics\Maze\409_Maze_Test.nxc"
11	7921	316	#line 7921 "NXCDefs.h"
11	7922	316		wait2 NA, __Wait_7qG2_ms_7qG2_000_inline_mazeNav
11	7921	319	#line 7921 "NXCDefs.h"
11	178	319	#line 178 "C:\Users\Lshi\Documents\Extracurriculars\Gov School\Robotics\GSET_Robotics\Maze\409_Maze_Test.nxc"
11	178	319	#line 178 "C:\Users\Lshi\Documents\Extracurriculars\Gov School\Robotics\GSET_Robotics\Maze\409_Maze_Test.nxc"
11	179	319		subcall ballFind, __ballFind_return
11	178	321	#line 178 "C:\Users\Lshi\Documents\Extracurriculars\Gov School\Robotics\GSET_Robotics\Maze\409_Maze_Test.nxc"
11	179	321		mov __D0mazeNav, __D0ballFind
11	184	323	#line 184 "C:\Users\Lshi\Documents\Extracurriculars\Gov School\Robotics\GSET_Robotics\Maze\409_Maze_Test.nxc"
11	185	323		tst 5, __zfmazeNav, __D0mazeNav
11	184	326	#line 184 "C:\Users\Lshi\Documents\Extracurriculars\Gov School\Robotics\GSET_Robotics\Maze\409_Maze_Test.nxc"
11	185	326		brtst 4, __NXC_Label_650, __zfmazeNav
11	186	329	#line 186 "C:\Users\Lshi\Documents\Extracurriculars\Gov School\Robotics\GSET_Robotics\Maze\409_Maze_Test.nxc"
11	187	329		subcall ballCatch, __ballCatch_return
11	186	331	#line 186 "C:\Users\Lshi\Documents\Extracurriculars\Gov School\Robotics\GSET_Robotics\Maze\409_Maze_Test.nxc"
11	186	331	#line 186 "C:\Users\Lshi\Documents\Extracurriculars\Gov School\Robotics\GSET_Robotics\Maze\409_Maze_Test.nxc"
11	187	331		subcall ballFind, __ballFind_return
11	186	333	#line 186 "C:\Users\Lshi\Documents\Extracurriculars\Gov School\Robotics\GSET_Robotics\Maze\409_Maze_Test.nxc"
11	187	333		mov __signed_stack_001mazeNav, __D0ballFind
11	186	335	#line 186 "C:\Users\Lshi\Documents\Extracurriculars\Gov School\Robotics\GSET_Robotics\Maze\409_Maze_Test.nxc"
11	186	335	#line 186 "C:\Users\Lshi\Documents\Extracurriculars\Gov School\Robotics\GSET_Robotics\Maze\409_Maze_Test.nxc"
11	187	335		set __D0mazeNav, 5
11	186	338	#line 186 "C:\Users\Lshi\Documents\Extracurriculars\Gov School\Robotics\GSET_Robotics\Maze\409_Maze_Test.nxc"
11	187	338		cmp 1, __zfmazeNav, __signed_stack_001mazeNav, __D0mazeNav
11	186	342	#line 186 "C:\Users\Lshi\Documents\Extracurriculars\Gov School\Robotics\GSET_Robotics\Maze\409_Maze_Test.nxc"
11	187	342		mov __D0mazeNav, __zfmazeNav
11	187	344	#line 187 "C:\Users\Lshi\Documents\Extracurriculars\Gov School\Robotics\GSET_Robotics\Maze\409_Maze_Test.nxc"
11	188	344		brtst 4, __NXC_Label_653, __zfmazeNav
11	188	347	#line 188 "C:\Users\Lshi\Documents\Extracurriculars\Gov School\Robotics\GSET_Robotics\Maze\409_Maze_Test.nxc"
11	189	347		subcall ballCatch, __ballCatch_return
11	188	349	#line 188 "C:\Users\Lshi\Documents\Extracurriculars\Gov School\Robotics\GSET_Robotics\Maze\409_Maze_Test.nxc"
11	189	349	#line 189 "C:\Users\Lshi\Documents\Extracurriculars\Gov School\Robotics\GSET_Robotics\Maze\409_Maze_Test.nxc"
11	190	349		mov __driveUpToWall_7qG2_look_7qG2_000, __constVal0
11	189	351	#line 189 "C:\Users\Lshi\Documents\Extracurriculars\Gov School\Robotics\GSET_Robotics\Maze\409_Maze_Test.nxc"
11	190	351		subcall driveUpToWall, __driveUpToWall_return
11	189	353	#line 189 "C:\Users\Lshi\Documents\Extracurriculars\Gov School\Robotics\GSET_Robotics\Maze\409_Maze_Test.nxc"
11	189	353	#line 189 "C:\Users\Lshi\Documents\Extracurriculars\Gov School\Robotics\GSET_Robotics\Maze\409_Maze_Test.nxc"
11	190	353		set __doubleWheelTurn_7qG2_degrees_7qG2_000, 90
11	189	356	#line 189 "C:\Users\Lshi\Documents\Extracurriculars\Gov School\Robotics\GSET_Robotics\Maze\409_Maze_Test.nxc"
11	190	356	#line 190 "C:\Users\Lshi\Documents\Extracurriculars\Gov School\Robotics\GSET_Robotics\Maze\409_Maze_Test.nxc"
11	191	356		subcall doubleWheelTurn, __doubleWheelTurn_return
11	190	358	#line 190 "C:\Users\Lshi\Documents\Extracurriculars\Gov School\Robotics\GSET_Robotics\Maze\409_Maze_Test.nxc"
11	190	358	#line 190 "C:\Users\Lshi\Documents\Extracurriculars\Gov School\Robotics\GSET_Robotics\Maze\409_Maze_Test.nxc"
11	191	358		set __driveUpToNotWall_7qG2_look2_7qG2_000, 90
11	190	361	#line 190 "C:\Users\Lshi\Documents\Extracurriculars\Gov School\Robotics\GSET_Robotics\Maze\409_Maze_Test.nxc"
11	191	361	#line 191 "C:\Users\Lshi\Documents\Extracurriculars\Gov School\Robotics\GSET_Robotics\Maze\409_Maze_Test.nxc"
11	192	361		subcall driveUpToNotWall, __driveUpToNotWall_return
11	191	363	#line 191 "C:\Users\Lshi\Documents\Extracurriculars\Gov School\Robotics\GSET_Robotics\Maze\409_Maze_Test.nxc"
11	191	363	#line 191 "C:\Users\Lshi\Documents\Extracurriculars\Gov School\Robotics\GSET_Robotics\Maze\409_Maze_Test.nxc"
11	192	363		mov __doubleWheelTurn_7qG2_degrees_7qG2_000, __constValNeg90
11	191	365	#line 191 "C:\Users\Lshi\Documents\Extracurriculars\Gov School\Robotics\GSET_Robotics\Maze\409_Maze_Test.nxc"
11	192	365	#line 192 "C:\Users\Lshi\Documents\Extracurriculars\Gov School\Robotics\GSET_Robotics\Maze\409_Maze_Test.nxc"
11	193	365		subcall doubleWheelTurn, __doubleWheelTurn_return
11	192	367	#line 192 "C:\Users\Lshi\Documents\Extracurriculars\Gov School\Robotics\GSET_Robotics\Maze\409_Maze_Test.nxc"
11	192	367	#line 192 "C:\Users\Lshi\Documents\Extracurriculars\Gov School\Robotics\GSET_Robotics\Maze\409_Maze_Test.nxc"
11	192	367	#line 192 "C:\Users\Lshi\Documents\Extracurriculars\Gov School\Robotics\GSET_Robotics\Maze\409_Maze_Test.nxc"
11	192	367	#line 192 "C:\Users\Lshi\Documents\Extracurriculars\Gov School\Robotics\GSET_Robotics\Maze\409_Maze_Test.nxc"
11	192	367	#line 192 "C:\Users\Lshi\Documents\Extracurriculars\Gov School\Robotics\GSET_Robotics\Maze\409_Maze_Test.nxc"
11	193	367		mul __signed_stack_001mazeNav, __constVal60, dir
11	192	371	#line 192 "C:\Users\Lshi\Documents\Extracurriculars\Gov School\Robotics\GSET_Robotics\Maze\409_Maze_Test.nxc"
11	192	371	#line 192 "C:\Users\Lshi\Documents\Extracurriculars\Gov School\Robotics\GSET_Robotics\Maze\409_Maze_Test.nxc"
11	193	371		set __D0mazeNav, 0
11	193	374	#line 193 "C:\Users\Lshi\Documents\Extracurriculars\Gov School\Robotics\GSET_Robotics\Maze\409_Maze_Test.nxc"
11	194	374	#pragma macro 7
11	194	374		setout __OUT_AC, 2, __signed_stack_001mazeNav, 1, __constVal7, 8, __constVal2, 7, __D0mazeNav, 6, __constVal32, 5, __constVal0, 10, __constVal96, 11, __constVal32, 12, __constVal32, 0, __constVal63
11	6301	397	#line 6301 "C:\Users\Lshi\Documents\Extracurriculars\Gov School\Robotics\GSET_Robotics\Maze\409_Maze_Test.nxc"
11	193	397	#line 193 "C:\Users\Lshi\Documents\Extracurriculars\Gov School\Robotics\GSET_Robotics\Maze\409_Maze_Test.nxc"
11	193	397	#line 193 "C:\Users\Lshi\Documents\Extracurriculars\Gov School\Robotics\GSET_Robotics\Maze\409_Maze_Test.nxc"
11	194	397		set __Wait_7qG2_ms_7qG2_000_inline_mazeNav, 5000
11	193	400	#line 193 "C:\Users\Lshi\Documents\Extracurriculars\Gov School\Robotics\GSET_Robotics\Maze\409_Maze_Test.nxc"
11	7921	400	#line 7921 "NXCDefs.h"
11	7922	400		wait2 NA, __Wait_7qG2_ms_7qG2_000_inline_mazeNav
11	7921	403	#line 7921 "NXCDefs.h"
11	194	403	#line 194 "C:\Users\Lshi\Documents\Extracurriculars\Gov School\Robotics\GSET_Robotics\Maze\409_Maze_Test.nxc"
11	194	403	#line 194 "C:\Users\Lshi\Documents\Extracurriculars\Gov School\Robotics\GSET_Robotics\Maze\409_Maze_Test.nxc"
11	195	403		set __signed_stack_001mazeNav, 0
11	194	406	#line 194 "C:\Users\Lshi\Documents\Extracurriculars\Gov School\Robotics\GSET_Robotics\Maze\409_Maze_Test.nxc"
11	194	406	#line 194 "C:\Users\Lshi\Documents\Extracurriculars\Gov School\Robotics\GSET_Robotics\Maze\409_Maze_Test.nxc"
11	195	406		set __D0mazeNav, 0
11	195	409	#line 195 "C:\Users\Lshi\Documents\Extracurriculars\Gov School\Robotics\GSET_Robotics\Maze\409_Maze_Test.nxc"
11	196	409	#pragma macro 7
11	196	409		setout __OUT_AC, 2, __signed_stack_001mazeNav, 1, __constVal7, 8, __constVal2, 7, __D0mazeNav, 6, __constVal32, 5, __constVal0, 10, __constVal96, 11, __constVal32, 12, __constVal32, 0, __constVal63
11	6324	432	#line 6324 "C:\Users\Lshi\Documents\Extracurriculars\Gov School\Robotics\GSET_Robotics\Maze\409_Maze_Test.nxc"
11	195	432	#line 195 "C:\Users\Lshi\Documents\Extracurriculars\Gov School\Robotics\GSET_Robotics\Maze\409_Maze_Test.nxc"
11	195	432	#line 195 "C:\Users\Lshi\Documents\Extracurriculars\Gov School\Robotics\GSET_Robotics\Maze\409_Maze_Test.nxc"
11	196	432		mov __Wait_7qG2_ms_7qG2_000_inline_mazeNav, __constVal203940234
11	195	434	#line 195 "C:\Users\Lshi\Documents\Extracurriculars\Gov School\Robotics\GSET_Robotics\Maze\409_Maze_Test.nxc"
11	7921	434	#line 7921 "NXCDefs.h"
11	7922	434		wait2 NA, __Wait_7qG2_ms_7qG2_000_inline_mazeNav
11	7921	437	#line 7921 "NXCDefs.h"
11	196	437	#line 196 "C:\Users\Lshi\Documents\Extracurriculars\Gov School\Robotics\GSET_Robotics\Maze\409_Maze_Test.nxc"
11	197	437	#line 197 "C:\Users\Lshi\Documents\Extracurriculars\Gov School\Robotics\GSET_Robotics\Maze\409_Maze_Test.nxc"
11	198	437		jmp __NXC_Label_672
11	197	439	#line 197 "C:\Users\Lshi\Documents\Extracurriculars\Gov School\Robotics\GSET_Robotics\Maze\409_Maze_Test.nxc"
11	198	439		subcall ballFind, __ballFind_return
11	197	441	#line 197 "C:\Users\Lshi\Documents\Extracurriculars\Gov School\Robotics\GSET_Robotics\Maze\409_Maze_Test.nxc"
11	198	441		mov __signed_stack_001mazeNav, __D0ballFind
11	197	443	#line 197 "C:\Users\Lshi\Documents\Extracurriculars\Gov School\Robotics\GSET_Robotics\Maze\409_Maze_Test.nxc"
11	197	443	#line 197 "C:\Users\Lshi\Documents\Extracurriculars\Gov School\Robotics\GSET_Robotics\Maze\409_Maze_Test.nxc"
11	198	443		set __D0mazeNav, 5
11	197	446	#line 197 "C:\Users\Lshi\Documents\Extracurriculars\Gov School\Robotics\GSET_Robotics\Maze\409_Maze_Test.nxc"
11	198	446		cmp 0, __zfmazeNav, __signed_stack_001mazeNav, __D0mazeNav
11	197	450	#line 197 "C:\Users\Lshi\Documents\Extracurriculars\Gov School\Robotics\GSET_Robotics\Maze\409_Maze_Test.nxc"
11	198	450		mov __D0mazeNav, __zfmazeNav
11	198	452	#line 198 "C:\Users\Lshi\Documents\Extracurriculars\Gov School\Robotics\GSET_Robotics\Maze\409_Maze_Test.nxc"
11	199	452		brtst 4, __NXC_Label_675, __zfmazeNav
11	199	455	#line 199 "C:\Users\Lshi\Documents\Extracurriculars\Gov School\Robotics\GSET_Robotics\Maze\409_Maze_Test.nxc"
11	200	455		mov __driveUpToWall_7qG2_look_7qG2_000, __constVal0
11	199	457	#line 199 "C:\Users\Lshi\Documents\Extracurriculars\Gov School\Robotics\GSET_Robotics\Maze\409_Maze_Test.nxc"
11	200	457		subcall driveUpToWall, __driveUpToWall_return
11	199	459	#line 199 "C:\Users\Lshi\Documents\Extracurriculars\Gov School\Robotics\GSET_Robotics\Maze\409_Maze_Test.nxc"
11	199	459	#line 199 "C:\Users\Lshi\Documents\Extracurriculars\Gov School\Robotics\GSET_Robotics\Maze\409_Maze_Test.nxc"
11	200	459		mov __doubleWheelTurn_7qG2_degrees_7qG2_000, __constValNeg90
11	199	461	#line 199 "C:\Users\Lshi\Documents\Extracurriculars\Gov School\Robotics\GSET_Robotics\Maze\409_Maze_Test.nxc"
11	200	461	#line 200 "C:\Users\Lshi\Documents\Extracurriculars\Gov School\Robotics\GSET_Robotics\Maze\409_Maze_Test.nxc"
11	201	461		subcall doubleWheelTurn, __doubleWheelTurn_return
11	200	463	#line 200 "C:\Users\Lshi\Documents\Extracurriculars\Gov School\Robotics\GSET_Robotics\Maze\409_Maze_Test.nxc"
11	201	463	#line 201 "C:\Users\Lshi\Documents\Extracurriculars\Gov School\Robotics\GSET_Robotics\Maze\409_Maze_Test.nxc"
11	202	463		mov __driveUpToWall_7qG2_look_7qG2_000, __constVal0
11	201	465	#line 201 "C:\Users\Lshi\Documents\Extracurriculars\Gov School\Robotics\GSET_Robotics\Maze\409_Maze_Test.nxc"
11	202	465		subcall driveUpToWall, __driveUpToWall_return
11	201	467	#line 201 "C:\Users\Lshi\Documents\Extracurriculars\Gov School\Robotics\GSET_Robotics\Maze\409_Maze_Test.nxc"
11	201	467	#line 201 "C:\Users\Lshi\Documents\Extracurriculars\Gov School\Robotics\GSET_Robotics\Maze\409_Maze_Test.nxc"
11	202	467		set __doubleWheelTurn_7qG2_degrees_7qG2_000, 90
11	201	470	#line 201 "C:\Users\Lshi\Documents\Extracurriculars\Gov School\Robotics\GSET_Robotics\Maze\409_Maze_Test.nxc"
11	202	470	#line 202 "C:\Users\Lshi\Documents\Extracurriculars\Gov School\Robotics\GSET_Robotics\Maze\409_Maze_Test.nxc"
11	203	470		subcall doubleWheelTurn, __doubleWheelTurn_return
11	202	472	#line 202 "C:\Users\Lshi\Documents\Extracurriculars\Gov School\Robotics\GSET_Robotics\Maze\409_Maze_Test.nxc"
11	203	472	#line 203 "C:\Users\Lshi\Documents\Extracurriculars\Gov School\Robotics\GSET_Robotics\Maze\409_Maze_Test.nxc"
11	204	472		mov __driveUpToWall_7qG2_look_7qG2_000, __constVal0
11	203	474	#line 203 "C:\Users\Lshi\Documents\Extracurriculars\Gov School\Robotics\GSET_Robotics\Maze\409_Maze_Test.nxc"
11	204	474		subcall driveUpToWall, __driveUpToWall_return
11	203	476	#line 203 "C:\Users\Lshi\Documents\Extracurriculars\Gov School\Robotics\GSET_Robotics\Maze\409_Maze_Test.nxc"
11	203	476	#line 203 "C:\Users\Lshi\Documents\Extracurriculars\Gov School\Robotics\GSET_Robotics\Maze\409_Maze_Test.nxc"
11	204	476		set __doubleWheelTurn_7qG2_degrees_7qG2_000, 90
11	203	479	#line 203 "C:\Users\Lshi\Documents\Extracurriculars\Gov School\Robotics\GSET_Robotics\Maze\409_Maze_Test.nxc"
11	204	479	#line 204 "C:\Users\Lshi\Documents\Extracurriculars\Gov School\Robotics\GSET_Robotics\Maze\409_Maze_Test.nxc"
11	205	479		subcall doubleWheelTurn, __doubleWheelTurn_return
11	204	481	#line 204 "C:\Users\Lshi\Documents\Extracurriculars\Gov School\Robotics\GSET_Robotics\Maze\409_Maze_Test.nxc"
11	204	481	#line 204 "C:\Users\Lshi\Documents\Extracurriculars\Gov School\Robotics\GSET_Robotics\Maze\409_Maze_Test.nxc"
11	205	481		set __driveUpToNotWall_7qG2_look2_7qG2_000, 90
11	204	484	#line 204 "C:\Users\Lshi\Documents\Extracurriculars\Gov School\Robotics\GSET_Robotics\Maze\409_Maze_Test.nxc"
11	205	484	#line 205 "C:\Users\Lshi\Documents\Extracurriculars\Gov School\Robotics\GSET_Robotics\Maze\409_Maze_Test.nxc"
11	206	484		subcall driveUpToNotWall, __driveUpToNotWall_return
11	205	486	#line 205 "C:\Users\Lshi\Documents\Extracurriculars\Gov School\Robotics\GSET_Robotics\Maze\409_Maze_Test.nxc"
11	205	486	#line 205 "C:\Users\Lshi\Documents\Extracurriculars\Gov School\Robotics\GSET_Robotics\Maze\409_Maze_Test.nxc"
11	206	486		mov __doubleWheelTurn_7qG2_degrees_7qG2_000, __constValNeg90
11	205	488	#line 205 "C:\Users\Lshi\Documents\Extracurriculars\Gov School\Robotics\GSET_Robotics\Maze\409_Maze_Test.nxc"
11	206	488	#line 206 "C:\Users\Lshi\Documents\Extracurriculars\Gov School\Robotics\GSET_Robotics\Maze\409_Maze_Test.nxc"
11	207	488		subcall doubleWheelTurn, __doubleWheelTurn_return
11	206	490	#line 206 "C:\Users\Lshi\Documents\Extracurriculars\Gov School\Robotics\GSET_Robotics\Maze\409_Maze_Test.nxc"
11	206	490	#line 206 "C:\Users\Lshi\Documents\Extracurriculars\Gov School\Robotics\GSET_Robotics\Maze\409_Maze_Test.nxc"
11	206	490	#line 206 "C:\Users\Lshi\Documents\Extracurriculars\Gov School\Robotics\GSET_Robotics\Maze\409_Maze_Test.nxc"
11	206	490	#line 206 "C:\Users\Lshi\Documents\Extracurriculars\Gov School\Robotics\GSET_Robotics\Maze\409_Maze_Test.nxc"
11	206	490	#line 206 "C:\Users\Lshi\Documents\Extracurriculars\Gov School\Robotics\GSET_Robotics\Maze\409_Maze_Test.nxc"
11	207	490		mul __signed_stack_001mazeNav, __constVal60, dir
11	206	494	#line 206 "C:\Users\Lshi\Documents\Extracurriculars\Gov School\Robotics\GSET_Robotics\Maze\409_Maze_Test.nxc"
11	206	494	#line 206 "C:\Users\Lshi\Documents\Extracurriculars\Gov School\Robotics\GSET_Robotics\Maze\409_Maze_Test.nxc"
11	207	494		set __D0mazeNav, 0
11	207	497	#line 207 "C:\Users\Lshi\Documents\Extracurriculars\Gov School\Robotics\GSET_Robotics\Maze\409_Maze_Test.nxc"
11	208	497	#pragma macro 7
11	208	497		setout __OUT_AC, 2, __signed_stack_001mazeNav, 1, __constVal7, 8, __constVal2, 7, __D0mazeNav, 6, __constVal32, 5, __constVal0, 10, __constVal96, 11, __constVal32, 12, __constVal32, 0, __constVal63
11	6432	520	#line 6432 "C:\Users\Lshi\Documents\Extracurriculars\Gov School\Robotics\GSET_Robotics\Maze\409_Maze_Test.nxc"
11	207	520	#line 207 "C:\Users\Lshi\Documents\Extracurriculars\Gov School\Robotics\GSET_Robotics\Maze\409_Maze_Test.nxc"
11	207	520	#line 207 "C:\Users\Lshi\Documents\Extracurriculars\Gov School\Robotics\GSET_Robotics\Maze\409_Maze_Test.nxc"
11	208	520		set __Wait_7qG2_ms_7qG2_000_inline_mazeNav, 5000
11	207	523	#line 207 "C:\Users\Lshi\Documents\Extracurriculars\Gov School\Robotics\GSET_Robotics\Maze\409_Maze_Test.nxc"
11	7921	523	#line 7921 "NXCDefs.h"
11	7922	523		wait2 NA, __Wait_7qG2_ms_7qG2_000_inline_mazeNav
11	7921	526	#line 7921 "NXCDefs.h"
11	208	526	#line 208 "C:\Users\Lshi\Documents\Extracurriculars\Gov School\Robotics\GSET_Robotics\Maze\409_Maze_Test.nxc"
11	208	526	#line 208 "C:\Users\Lshi\Documents\Extracurriculars\Gov School\Robotics\GSET_Robotics\Maze\409_Maze_Test.nxc"
11	209	526		set __signed_stack_001mazeNav, 0
11	208	529	#line 208 "C:\Users\Lshi\Documents\Extracurriculars\Gov School\Robotics\GSET_Robotics\Maze\409_Maze_Test.nxc"
11	208	529	#line 208 "C:\Users\Lshi\Documents\Extracurriculars\Gov School\Robotics\GSET_Robotics\Maze\409_Maze_Test.nxc"
11	209	529		set __D0mazeNav, 0
11	209	532	#line 209 "C:\Users\Lshi\Documents\Extracurriculars\Gov School\Robotics\GSET_Robotics\Maze\409_Maze_Test.nxc"
11	210	532	#pragma macro 7
11	210	532		setout __OUT_AC, 2, __signed_stack_001mazeNav, 1, __constVal7, 8, __constVal2, 7, __D0mazeNav, 6, __constVal32, 5, __constVal0, 10, __constVal96, 11, __constVal32, 12, __constVal32, 0, __constVal63
11	6455	555	#line 6455 "C:\Users\Lshi\Documents\Extracurriculars\Gov School\Robotics\GSET_Robotics\Maze\409_Maze_Test.nxc"
11	209	555	#line 209 "C:\Users\Lshi\Documents\Extracurriculars\Gov School\Robotics\GSET_Robotics\Maze\409_Maze_Test.nxc"
11	209	555	#line 209 "C:\Users\Lshi\Documents\Extracurriculars\Gov School\Robotics\GSET_Robotics\Maze\409_Maze_Test.nxc"
11	210	555		mov __Wait_7qG2_ms_7qG2_000_inline_mazeNav, __constVal203940234
11	209	557	#line 209 "C:\Users\Lshi\Documents\Extracurriculars\Gov School\Robotics\GSET_Robotics\Maze\409_Maze_Test.nxc"
11	7921	557	#line 7921 "NXCDefs.h"
11	7922	557		wait2 NA, __Wait_7qG2_ms_7qG2_000_inline_mazeNav
11	7921	560	#line 7921 "NXCDefs.h"
11	210	560	#line 210 "C:\Users\Lshi\Documents\Extracurriculars\Gov School\Robotics\GSET_Robotics\Maze\409_Maze_Test.nxc"
11	220	560	#line 220 "C:\Users\Lshi\Documents\Extracurriculars\Gov School\Robotics\GSET_Robotics\Maze\409_Maze_Test.nxc"
11	220	560	#line 220 "C:\Users\Lshi\Documents\Extracurriculars\Gov School\Robotics\GSET_Robotics\Maze\409_Maze_Test.nxc"
11	220	560	#line 220 "C:\Users\Lshi\Documents\Extracurriculars\Gov School\Robotics\GSET_Robotics\Maze\409_Maze_Test.nxc"
11	221	560	#line 221 "C:\Users\Lshi\Documents\Extracurriculars\Gov School\Robotics\GSET_Robotics\Maze\409_Maze_Test.nxc"
11	222	560		mov __driveUpToWall_7qG2_look_7qG2_000, __constVal0
11	221	562	#line 221 "C:\Users\Lshi\Documents\Extracurriculars\Gov School\Robotics\GSET_Robotics\Maze\409_Maze_Test.nxc"
11	222	562		subcall driveUpToWall, __driveUpToWall_return
11	221	564	#line 221 "C:\Users\Lshi\Documents\Extracurriculars\Gov School\Robotics\GSET_Robotics\Maze\409_Maze_Test.nxc"
11	221	564	#line 221 "C:\Users\Lshi\Documents\Extracurriculars\Gov School\Robotics\GSET_Robotics\Maze\409_Maze_Test.nxc"
11	222	564		set __doubleWheelTurn_7qG2_degrees_7qG2_000, 180
11	221	567	#line 221 "C:\Users\Lshi\Documents\Extracurriculars\Gov School\Robotics\GSET_Robotics\Maze\409_Maze_Test.nxc"
11	222	567	#line 222 "C:\Users\Lshi\Documents\Extracurriculars\Gov School\Robotics\GSET_Robotics\Maze\409_Maze_Test.nxc"
11	223	567		subcall doubleWheelTurn, __doubleWheelTurn_return
11	222	569	#line 222 "C:\Users\Lshi\Documents\Extracurriculars\Gov School\Robotics\GSET_Robotics\Maze\409_Maze_Test.nxc"
11	222	569	#line 222 "C:\Users\Lshi\Documents\Extracurriculars\Gov School\Robotics\GSET_Robotics\Maze\409_Maze_Test.nxc"
11	223	569		subcall ballFind, __ballFind_return
11	222	571	#line 222 "C:\Users\Lshi\Documents\Extracurriculars\Gov School\Robotics\GSET_Robotics\Maze\409_Maze_Test.nxc"
11	223	571		mov __D0mazeNav, __D0ballFind
11	227	573	#line 227 "C:\Users\Lshi\Documents\Extracurriculars\Gov School\Robotics\GSET_Robotics\Maze\409_Maze_Test.nxc"
11	228	573		tst 5, __zfmazeNav, __D0mazeNav
11	227	576	#line 227 "C:\Users\Lshi\Documents\Extracurriculars\Gov School\Robotics\GSET_Robotics\Maze\409_Maze_Test.nxc"
11	228	576		brtst 4, __NXC_Label_702, __zfmazeNav
11	228	579	#line 228 "C:\Users\Lshi\Documents\Extracurriculars\Gov School\Robotics\GSET_Robotics\Maze\409_Maze_Test.nxc"
11	229	579		subcall ballCatch, __ballCatch_return
11	228	581	#line 228 "C:\Users\Lshi\Documents\Extracurriculars\Gov School\Robotics\GSET_Robotics\Maze\409_Maze_Test.nxc"
11	229	581	#line 229 "C:\Users\Lshi\Documents\Extracurriculars\Gov School\Robotics\GSET_Robotics\Maze\409_Maze_Test.nxc"
11	230	581		subcall switchDir, __switchDir_return
11	229	583	#line 229 "C:\Users\Lshi\Documents\Extracurriculars\Gov School\Robotics\GSET_Robotics\Maze\409_Maze_Test.nxc"
11	229	583	#line 229 "C:\Users\Lshi\Documents\Extracurriculars\Gov School\Robotics\GSET_Robotics\Maze\409_Maze_Test.nxc"
11	230	583		set __doubleWheelTurn_7qG2_degrees_7qG2_000, 90
11	229	586	#line 229 "C:\Users\Lshi\Documents\Extracurriculars\Gov School\Robotics\GSET_Robotics\Maze\409_Maze_Test.nxc"
11	230	586	#line 230 "C:\Users\Lshi\Documents\Extracurriculars\Gov School\Robotics\GSET_Robotics\Maze\409_Maze_Test.nxc"
11	231	586		subcall doubleWheelTurn, __doubleWheelTurn_return
11	230	588	#line 230 "C:\Users\Lshi\Documents\Extracurriculars\Gov School\Robotics\GSET_Robotics\Maze\409_Maze_Test.nxc"
11	231	588	#line 231 "C:\Users\Lshi\Documents\Extracurriculars\Gov School\Robotics\GSET_Robotics\Maze\409_Maze_Test.nxc"
11	232	588		mov __driveUpToWall_7qG2_look_7qG2_000, __constVal0
11	231	590	#line 231 "C:\Users\Lshi\Documents\Extracurriculars\Gov School\Robotics\GSET_Robotics\Maze\409_Maze_Test.nxc"
11	232	590		subcall driveUpToWall, __driveUpToWall_return
11	231	592	#line 231 "C:\Users\Lshi\Documents\Extracurriculars\Gov School\Robotics\GSET_Robotics\Maze\409_Maze_Test.nxc"
11	231	592	#line 231 "C:\Users\Lshi\Documents\Extracurriculars\Gov School\Robotics\GSET_Robotics\Maze\409_Maze_Test.nxc"
11	232	592		mov __doubleWheelTurn_7qG2_degrees_7qG2_000, __constValNeg90
11	231	594	#line 231 "C:\Users\Lshi\Documents\Extracurriculars\Gov School\Robotics\GSET_Robotics\Maze\409_Maze_Test.nxc"
11	232	594	#line 232 "C:\Users\Lshi\Documents\Extracurriculars\Gov School\Robotics\GSET_Robotics\Maze\409_Maze_Test.nxc"
11	233	594		subcall doubleWheelTurn, __doubleWheelTurn_return
11	232	596	#line 232 "C:\Users\Lshi\Documents\Extracurriculars\Gov School\Robotics\GSET_Robotics\Maze\409_Maze_Test.nxc"
11	233	596	#line 233 "C:\Users\Lshi\Documents\Extracurriculars\Gov School\Robotics\GSET_Robotics\Maze\409_Maze_Test.nxc"
11	234	596		mov __driveUpToWall_7qG2_look_7qG2_000, __constVal0
11	233	598	#line 233 "C:\Users\Lshi\Documents\Extracurriculars\Gov School\Robotics\GSET_Robotics\Maze\409_Maze_Test.nxc"
11	234	598		subcall driveUpToWall, __driveUpToWall_return
11	233	600	#line 233 "C:\Users\Lshi\Documents\Extracurriculars\Gov School\Robotics\GSET_Robotics\Maze\409_Maze_Test.nxc"
11	233	600	#line 233 "C:\Users\Lshi\Documents\Extracurriculars\Gov School\Robotics\GSET_Robotics\Maze\409_Maze_Test.nxc"
11	234	600		mov __doubleWheelTurn_7qG2_degrees_7qG2_000, __constValNeg90
11	233	602	#line 233 "C:\Users\Lshi\Documents\Extracurriculars\Gov School\Robotics\GSET_Robotics\Maze\409_Maze_Test.nxc"
11	234	602	#line 234 "C:\Users\Lshi\Documents\Extracurriculars\Gov School\Robotics\GSET_Robotics\Maze\409_Maze_Test.nxc"
11	235	602		subcall doubleWheelTurn, __doubleWheelTurn_return
11	234	604	#line 234 "C:\Users\Lshi\Documents\Extracurriculars\Gov School\Robotics\GSET_Robotics\Maze\409_Maze_Test.nxc"
11	234	604	#line 234 "C:\Users\Lshi\Documents\Extracurriculars\Gov School\Robotics\GSET_Robotics\Maze\409_Maze_Test.nxc"
11	235	604		mov __driveUpToNotWall_7qG2_look2_7qG2_000, __constValNeg90
11	234	606	#line 234 "C:\Users\Lshi\Documents\Extracurriculars\Gov School\Robotics\GSET_Robotics\Maze\409_Maze_Test.nxc"
11	235	606	#line 235 "C:\Users\Lshi\Documents\Extracurriculars\Gov School\Robotics\GSET_Robotics\Maze\409_Maze_Test.nxc"
11	236	606		subcall driveUpToNotWall, __driveUpToNotWall_return
11	235	608	#line 235 "C:\Users\Lshi\Documents\Extracurriculars\Gov School\Robotics\GSET_Robotics\Maze\409_Maze_Test.nxc"
11	235	608	#line 235 "C:\Users\Lshi\Documents\Extracurriculars\Gov School\Robotics\GSET_Robotics\Maze\409_Maze_Test.nxc"
11	236	608		set __doubleWheelTurn_7qG2_degrees_7qG2_000, 90
11	235	611	#line 235 "C:\Users\Lshi\Documents\Extracurriculars\Gov School\Robotics\GSET_Robotics\Maze\409_Maze_Test.nxc"
11	236	611	#line 236 "C:\Users\Lshi\Documents\Extracurriculars\Gov School\Robotics\GSET_Robotics\Maze\409_Maze_Test.nxc"
11	237	611		subcall doubleWheelTurn, __doubleWheelTurn_return
11	236	613	#line 236 "C:\Users\Lshi\Documents\Extracurriculars\Gov School\Robotics\GSET_Robotics\Maze\409_Maze_Test.nxc"
11	236	613	#line 236 "C:\Users\Lshi\Documents\Extracurriculars\Gov School\Robotics\GSET_Robotics\Maze\409_Maze_Test.nxc"
11	236	613	#line 236 "C:\Users\Lshi\Documents\Extracurriculars\Gov School\Robotics\GSET_Robotics\Maze\409_Maze_Test.nxc"
11	236	613	#line 236 "C:\Users\Lshi\Documents\Extracurriculars\Gov School\Robotics\GSET_Robotics\Maze\409_Maze_Test.nxc"
11	236	613	#line 236 "C:\Users\Lshi\Documents\Extracurriculars\Gov School\Robotics\GSET_Robotics\Maze\409_Maze_Test.nxc"
11	237	613		mul __signed_stack_001mazeNav, __constVal60, dir
11	236	617	#line 236 "C:\Users\Lshi\Documents\Extracurriculars\Gov School\Robotics\GSET_Robotics\Maze\409_Maze_Test.nxc"
11	236	617	#line 236 "C:\Users\Lshi\Documents\Extracurriculars\Gov School\Robotics\GSET_Robotics\Maze\409_Maze_Test.nxc"
11	237	617		set __D0mazeNav, 0
11	237	620	#line 237 "C:\Users\Lshi\Documents\Extracurriculars\Gov School\Robotics\GSET_Robotics\Maze\409_Maze_Test.nxc"
11	238	620	#pragma macro 7
11	238	620		setout __OUT_AC, 2, __signed_stack_001mazeNav, 1, __constVal7, 8, __constVal2, 7, __D0mazeNav, 6, __constVal32, 5, __constVal0, 10, __constVal96, 11, __constVal32, 12, __constVal32, 0, __constVal63
11	6575	643	#line 6575 "C:\Users\Lshi\Documents\Extracurriculars\Gov School\Robotics\GSET_Robotics\Maze\409_Maze_Test.nxc"
11	237	643	#line 237 "C:\Users\Lshi\Documents\Extracurriculars\Gov School\Robotics\GSET_Robotics\Maze\409_Maze_Test.nxc"
11	237	643	#line 237 "C:\Users\Lshi\Documents\Extracurriculars\Gov School\Robotics\GSET_Robotics\Maze\409_Maze_Test.nxc"
11	238	643		set __Wait_7qG2_ms_7qG2_000_inline_mazeNav, 5000
11	237	646	#line 237 "C:\Users\Lshi\Documents\Extracurriculars\Gov School\Robotics\GSET_Robotics\Maze\409_Maze_Test.nxc"
11	7921	646	#line 7921 "NXCDefs.h"
11	7922	646		wait2 NA, __Wait_7qG2_ms_7qG2_000_inline_mazeNav
11	7921	649	#line 7921 "NXCDefs.h"
11	238	649	#line 238 "C:\Users\Lshi\Documents\Extracurriculars\Gov School\Robotics\GSET_Robotics\Maze\409_Maze_Test.nxc"
11	238	649	#line 238 "C:\Users\Lshi\Documents\Extracurriculars\Gov School\Robotics\GSET_Robotics\Maze\409_Maze_Test.nxc"
11	239	649		set __signed_stack_001mazeNav, 0
11	238	652	#line 238 "C:\Users\Lshi\Documents\Extracurriculars\Gov School\Robotics\GSET_Robotics\Maze\409_Maze_Test.nxc"
11	238	652	#line 238 "C:\Users\Lshi\Documents\Extracurriculars\Gov School\Robotics\GSET_Robotics\Maze\409_Maze_Test.nxc"
11	239	652		set __D0mazeNav, 0
11	239	655	#line 239 "C:\Users\Lshi\Documents\Extracurriculars\Gov School\Robotics\GSET_Robotics\Maze\409_Maze_Test.nxc"
11	240	655	#pragma macro 7
11	240	655		setout __OUT_AC, 2, __signed_stack_001mazeNav, 1, __constVal7, 8, __constVal2, 7, __D0mazeNav, 6, __constVal32, 5, __constVal0, 10, __constVal96, 11, __constVal32, 12, __constVal32, 0, __constVal63
11	6598	678	#line 6598 "C:\Users\Lshi\Documents\Extracurriculars\Gov School\Robotics\GSET_Robotics\Maze\409_Maze_Test.nxc"
11	239	678	#line 239 "C:\Users\Lshi\Documents\Extracurriculars\Gov School\Robotics\GSET_Robotics\Maze\409_Maze_Test.nxc"
11	239	678	#line 239 "C:\Users\Lshi\Documents\Extracurriculars\Gov School\Robotics\GSET_Robotics\Maze\409_Maze_Test.nxc"
11	240	678		mov __Wait_7qG2_ms_7qG2_000_inline_mazeNav, __constVal203940234
11	239	680	#line 239 "C:\Users\Lshi\Documents\Extracurriculars\Gov School\Robotics\GSET_Robotics\Maze\409_Maze_Test.nxc"
11	7921	680	#line 7921 "NXCDefs.h"
11	7922	680		wait2 NA, __Wait_7qG2_ms_7qG2_000_inline_mazeNav
11	7921	683	#line 7921 "NXCDefs.h"
11	247	683	#line 247 "C:\Users\Lshi\Documents\Extracurriculars\Gov School\Robotics\GSET_Robotics\Maze\409_Maze_Test.nxc"
11	247	683	#line 247 "C:\Users\Lshi\Documents\Extracurriculars\Gov School\Robotics\GSET_Robotics\Maze\409_Maze_Test.nxc"
11	248	683		mov __Wait_7qG2_ms_7qG2_000_inline_mazeNav, __constVal42424242
11	247	685	#line 247 "C:\Users\Lshi\Documents\Extracurriculars\Gov School\Robotics\GSET_Robotics\Maze\409_Maze_Test.nxc"
11	7921	685	#line 7921 "NXCDefs.h"
11	7922	685		wait2 NA, __Wait_7qG2_ms_7qG2_000_inline_mazeNav
11	7921	688	#line 7921 "NXCDefs.h"
11	248	688	#line 248 "C:\Users\Lshi\Documents\Extracurriculars\Gov School\Robotics\GSET_Robotics\Maze\409_Maze_Test.nxc"
11	261	688	#line 261 "C:\Users\Lshi\Documents\Extracurriculars\Gov School\Robotics\GSET_Robotics\Maze\409_Maze_Test.nxc"
11	262	688		exit -1, -1
12	263	0	#line 263 "C:\Users\Lshi\Documents\Extracurriculars\Gov School\Robotics\GSET_Robotics\Maze\409_Maze_Test.nxc"
12	264	0		mov __signed_stack_001turnHeadTo, __turnHeadTo_7qG2_degrees_7qG2_000
12	263	2	#line 263 "C:\Users\Lshi\Documents\Extracurriculars\Gov School\Robotics\GSET_Robotics\Maze\409_Maze_Test.nxc"
12	264	2	#line 264 "C:\Users\Lshi\Documents\Extracurriculars\Gov School\Robotics\GSET_Robotics\Maze\409_Maze_Test.nxc"
12	265	2		getout __D0turnHeadTo, __constVal1, 14
12	264	6	#line 264 "C:\Users\Lshi\Documents\Extracurriculars\Gov School\Robotics\GSET_Robotics\Maze\409_Maze_Test.nxc"
12	265	6		sub __turnHeadTo_7qG2_delta_7qG2_000, __signed_stack_001turnHeadTo, __D0turnHeadTo
12	264	10	#line 264 "C:\Users\Lshi\Documents\Extracurriculars\Gov School\Robotics\GSET_Robotics\Maze\409_Maze_Test.nxc"
12	264	10	#line 264 "C:\Users\Lshi\Documents\Extracurriculars\Gov School\Robotics\GSET_Robotics\Maze\409_Maze_Test.nxc"
12	265	10		set __signed_stack_001turnHeadTo, 60
12	264	13	#line 264 "C:\Users\Lshi\Documents\Extracurriculars\Gov School\Robotics\GSET_Robotics\Maze\409_Maze_Test.nxc"
12	264	13	#line 264 "C:\Users\Lshi\Documents\Extracurriculars\Gov School\Robotics\GSET_Robotics\Maze\409_Maze_Test.nxc"
12	265	13		mov __D0turnHeadTo, __turnHeadTo_7qG2_delta_7qG2_000
12	265	15	#line 265 "C:\Users\Lshi\Documents\Extracurriculars\Gov School\Robotics\GSET_Robotics\Maze\409_Maze_Test.nxc"
12	266	15	#pragma macro 33
12	266	15		acquire __rotateMutex1
12	266	16		arrbuild __rotate_ports1, __constVal1
12	266	20		mov __rotate_power1, __signed_stack_001turnHeadTo
12	266	23		mov __rotate_angle1, __D0turnHeadTo
12	266	25		mov __rotate_turnpct1, __constVal0
12	266	27		mov __rotate_sync1, __constVal0
12	266	29		mov __rotate_stop1, __constVal1
12	266	31		mov __rotate_theRVP1, __constVal32
12	266	33		mov __rotate_theRVI1, __constVal0
12	266	35		mov __rotate_theRVD1, __constVal96
12	266	37		subcall __RotateMotor1, ____RotateMotor1_return
12	266	40		release __rotateMutex1
12	6652	41	#line 6652 "C:\Users\Lshi\Documents\Extracurriculars\Gov School\Robotics\GSET_Robotics\Maze\409_Maze_Test.nxc"
12	265	41	#line 265 "C:\Users\Lshi\Documents\Extracurriculars\Gov School\Robotics\GSET_Robotics\Maze\409_Maze_Test.nxc"
12	267	41	#line 267 "C:\Users\Lshi\Documents\Extracurriculars\Gov School\Robotics\GSET_Robotics\Maze\409_Maze_Test.nxc"
12	268	41		subret __turnHeadTo_return
13	268	0	#line 268 "C:\Users\Lshi\Documents\Extracurriculars\Gov School\Robotics\GSET_Robotics\Maze\409_Maze_Test.nxc"
13	269	0		mov __turnHeadTo_7qG2_degrees_7qG2_000, __driveUpToNotWall_7qG2_look2_7qG2_000
13	268	2	#line 268 "C:\Users\Lshi\Documents\Extracurriculars\Gov School\Robotics\GSET_Robotics\Maze\409_Maze_Test.nxc"
13	269	2	#line 269 "C:\Users\Lshi\Documents\Extracurriculars\Gov School\Robotics\GSET_Robotics\Maze\409_Maze_Test.nxc"
13	270	2		subcall turnHeadTo, __turnHeadTo_return
13	269	5	#line 269 "C:\Users\Lshi\Documents\Extracurriculars\Gov School\Robotics\GSET_Robotics\Maze\409_Maze_Test.nxc"
13	269	5	#line 269 "C:\Users\Lshi\Documents\Extracurriculars\Gov School\Robotics\GSET_Robotics\Maze\409_Maze_Test.nxc"
13	269	5	#line 269 "C:\Users\Lshi\Documents\Extracurriculars\Gov School\Robotics\GSET_Robotics\Maze\409_Maze_Test.nxc"
13	269	5	#line 269 "C:\Users\Lshi\Documents\Extracurriculars\Gov School\Robotics\GSET_Robotics\Maze\409_Maze_Test.nxc"
13	269	5	#line 269 "C:\Users\Lshi\Documents\Extracurriculars\Gov School\Robotics\GSET_Robotics\Maze\409_Maze_Test.nxc"
13	270	5		mul __signed_stack_001driveUpToNotWall, dir, __constVal60
13	269	9	#line 269 "C:\Users\Lshi\Documents\Extracurriculars\Gov School\Robotics\GSET_Robotics\Maze\409_Maze_Test.nxc"
13	269	9	#line 269 "C:\Users\Lshi\Documents\Extracurriculars\Gov School\Robotics\GSET_Robotics\Maze\409_Maze_Test.nxc"
13	270	9		set __D0driveUpToNotWall, 0
13	270	12	#line 270 "C:\Users\Lshi\Documents\Extracurriculars\Gov School\Robotics\GSET_Robotics\Maze\409_Maze_Test.nxc"
13	271	12	#pragma macro 7
13	271	12		setout __OUT_AC, 2, __signed_stack_001driveUpToNotWall, 1, __constVal7, 8, __constVal2, 7, __D0driveUpToNotWall, 6, __constVal32, 5, __constVal0, 10, __constVal96, 11, __constVal32, 12, __constVal32, 0, __constVal63
13	6685	35	#line 6685 "C:\Users\Lshi\Documents\Extracurriculars\Gov School\Robotics\GSET_Robotics\Maze\409_Maze_Test.nxc"
13	270	35	#line 270 "C:\Users\Lshi\Documents\Extracurriculars\Gov School\Robotics\GSET_Robotics\Maze\409_Maze_Test.nxc"
13	270	35	#line 270 "C:\Users\Lshi\Documents\Extracurriculars\Gov School\Robotics\GSET_Robotics\Maze\409_Maze_Test.nxc"
13	271	35		subcall turnCheck, __turnCheck_return
13	270	38	#line 270 "C:\Users\Lshi\Documents\Extracurriculars\Gov School\Robotics\GSET_Robotics\Maze\409_Maze_Test.nxc"
13	270	38	#line 270 "C:\Users\Lshi\Documents\Extracurriculars\Gov School\Robotics\GSET_Robotics\Maze\409_Maze_Test.nxc"
13	271	38		not __D0driveUpToNotWall, __D0turnCheck
13	271	41	#line 271 "C:\Users\Lshi\Documents\Extracurriculars\Gov School\Robotics\GSET_Robotics\Maze\409_Maze_Test.nxc"
13	272	41		tst 5, __zfdriveUpToNotWall, __D0driveUpToNotWall
13	271	44	#line 271 "C:\Users\Lshi\Documents\Extracurriculars\Gov School\Robotics\GSET_Robotics\Maze\409_Maze_Test.nxc"
13	272	44		brtst 4, __NXC_Label_740, __zfdriveUpToNotWall
13	271	47	#line 271 "C:\Users\Lshi\Documents\Extracurriculars\Gov School\Robotics\GSET_Robotics\Maze\409_Maze_Test.nxc"
13	271	47	#line 271 "C:\Users\Lshi\Documents\Extracurriculars\Gov School\Robotics\GSET_Robotics\Maze\409_Maze_Test.nxc"
13	272	47		jmp __NXC_Label_739
13	271	49	#line 271 "C:\Users\Lshi\Documents\Extracurriculars\Gov School\Robotics\GSET_Robotics\Maze\409_Maze_Test.nxc"
13	271	49	#line 271 "C:\Users\Lshi\Documents\Extracurriculars\Gov School\Robotics\GSET_Robotics\Maze\409_Maze_Test.nxc"
13	272	49		set __signed_stack_001driveUpToNotWall, 0
13	271	52	#line 271 "C:\Users\Lshi\Documents\Extracurriculars\Gov School\Robotics\GSET_Robotics\Maze\409_Maze_Test.nxc"
13	271	52	#line 271 "C:\Users\Lshi\Documents\Extracurriculars\Gov School\Robotics\GSET_Robotics\Maze\409_Maze_Test.nxc"
13	272	52		set __D0driveUpToNotWall, 0
13	272	55	#line 272 "C:\Users\Lshi\Documents\Extracurriculars\Gov School\Robotics\GSET_Robotics\Maze\409_Maze_Test.nxc"
13	273	55	#pragma macro 7
13	273	55		setout __OUT_AC, 2, __signed_stack_001driveUpToNotWall, 1, __constVal7, 8, __constVal2, 7, __D0driveUpToNotWall, 6, __constVal32, 5, __constVal0, 10, __constVal96, 11, __constVal32, 12, __constVal32, 0, __constVal63
13	6716	78	#line 6716 "C:\Users\Lshi\Documents\Extracurriculars\Gov School\Robotics\GSET_Robotics\Maze\409_Maze_Test.nxc"
13	272	78	#line 272 "C:\Users\Lshi\Documents\Extracurriculars\Gov School\Robotics\GSET_Robotics\Maze\409_Maze_Test.nxc"
13	274	78	#line 274 "C:\Users\Lshi\Documents\Extracurriculars\Gov School\Robotics\GSET_Robotics\Maze\409_Maze_Test.nxc"
13	275	78		subret __driveUpToNotWall_return
14	276	0	#line 276 "C:\Users\Lshi\Documents\Extracurriculars\Gov School\Robotics\GSET_Robotics\Maze\409_Maze_Test.nxc"
14	277	0		mov __signed_stack_001driveUpToWall, dir
14	276	2	#line 276 "C:\Users\Lshi\Documents\Extracurriculars\Gov School\Robotics\GSET_Robotics\Maze\409_Maze_Test.nxc"
14	276	2	#line 276 "C:\Users\Lshi\Documents\Extracurriculars\Gov School\Robotics\GSET_Robotics\Maze\409_Maze_Test.nxc"
14	277	2		mov __D0driveUpToWall, __constValNeg1
14	276	5	#line 276 "C:\Users\Lshi\Documents\Extracurriculars\Gov School\Robotics\GSET_Robotics\Maze\409_Maze_Test.nxc"
14	277	5		cmp 4, __zfdriveUpToWall, __signed_stack_001driveUpToWall, __D0driveUpToWall
14	276	9	#line 276 "C:\Users\Lshi\Documents\Extracurriculars\Gov School\Robotics\GSET_Robotics\Maze\409_Maze_Test.nxc"
14	277	9		mov __D0driveUpToWall, __zfdriveUpToWall
14	276	11	#line 276 "C:\Users\Lshi\Documents\Extracurriculars\Gov School\Robotics\GSET_Robotics\Maze\409_Maze_Test.nxc"
14	277	11		brtst 4, __NXC_Label_748, __zfdriveUpToWall
14	276	14	#line 276 "C:\Users\Lshi\Documents\Extracurriculars\Gov School\Robotics\GSET_Robotics\Maze\409_Maze_Test.nxc"
14	277	14		mov __signed_stack_001driveUpToWall, __D0driveUpToWall
14	276	16	#line 276 "C:\Users\Lshi\Documents\Extracurriculars\Gov School\Robotics\GSET_Robotics\Maze\409_Maze_Test.nxc"
14	277	16		mov __signed_stack_002driveUpToWall, __driveUpToWall_7qG2_look_7qG2_000
14	276	18	#line 276 "C:\Users\Lshi\Documents\Extracurriculars\Gov School\Robotics\GSET_Robotics\Maze\409_Maze_Test.nxc"
14	276	18	#line 276 "C:\Users\Lshi\Documents\Extracurriculars\Gov School\Robotics\GSET_Robotics\Maze\409_Maze_Test.nxc"
14	277	18		set __D0driveUpToWall, 0
14	276	21	#line 276 "C:\Users\Lshi\Documents\Extracurriculars\Gov School\Robotics\GSET_Robotics\Maze\409_Maze_Test.nxc"
14	277	21		cmp 4, __zfdriveUpToWall, __signed_stack_002driveUpToWall, __D0driveUpToWall
14	276	25	#line 276 "C:\Users\Lshi\Documents\Extracurriculars\Gov School\Robotics\GSET_Robotics\Maze\409_Maze_Test.nxc"
14	276	25	#line 276 "C:\Users\Lshi\Documents\Extracurriculars\Gov School\Robotics\GSET_Robotics\Maze\409_Maze_Test.nxc"
14	277	25		and __D0driveUpToWall, __signed_stack_001driveUpToWall, __zfdriveUpToWall
14	277	29	#line 277 "C:\Users\Lshi\Documents\Extracurriculars\Gov School\Robotics\GSET_Robotics\Maze\409_Maze_Test.nxc"
14	278	29		tst 5, __zfdriveUpToWall, __D0driveUpToWall
14	277	32	#line 277 "C:\Users\Lshi\Documents\Extracurriculars\Gov School\Robotics\GSET_Robotics\Maze\409_Maze_Test.nxc"
14	278	32		brtst 4, __NXC_Label_749, __zfdriveUpToWall
14	277	35	#line 277 "C:\Users\Lshi\Documents\Extracurriculars\Gov School\Robotics\GSET_Robotics\Maze\409_Maze_Test.nxc"
14	278	35		mov __turnHeadTo_7qG2_degrees_7qG2_000, __driveUpToWall_7qG2_look_7qG2_000
14	277	37	#line 277 "C:\Users\Lshi\Documents\Extracurriculars\Gov School\Robotics\GSET_Robotics\Maze\409_Maze_Test.nxc"
14	278	37	#line 278 "C:\Users\Lshi\Documents\Extracurriculars\Gov School\Robotics\GSET_Robotics\Maze\409_Maze_Test.nxc"
14	279	37		subcall turnHeadTo, __turnHeadTo_return
14	278	40	#line 278 "C:\Users\Lshi\Documents\Extracurriculars\Gov School\Robotics\GSET_Robotics\Maze\409_Maze_Test.nxc"
14	279	40	#line 279 "C:\Users\Lshi\Documents\Extracurriculars\Gov School\Robotics\GSET_Robotics\Maze\409_Maze_Test.nxc"
14	280	40		jmp __NXC_Label_752
14	279	42	#line 279 "C:\Users\Lshi\Documents\Extracurriculars\Gov School\Robotics\GSET_Robotics\Maze\409_Maze_Test.nxc"
14	280	42		mov __signed_stack_001driveUpToWall, dir
14	279	44	#line 279 "C:\Users\Lshi\Documents\Extracurriculars\Gov School\Robotics\GSET_Robotics\Maze\409_Maze_Test.nxc"
14	279	44	#line 279 "C:\Users\Lshi\Documents\Extracurriculars\Gov School\Robotics\GSET_Robotics\Maze\409_Maze_Test.nxc"
14	280	44		set __D0driveUpToWall, 1
14	279	47	#line 279 "C:\Users\Lshi\Documents\Extracurriculars\Gov School\Robotics\GSET_Robotics\Maze\409_Maze_Test.nxc"
14	280	47		cmp 4, __zfdriveUpToWall, __signed_stack_001driveUpToWall, __D0driveUpToWall
14	279	51	#line 279 "C:\Users\Lshi\Documents\Extracurriculars\Gov School\Robotics\GSET_Robotics\Maze\409_Maze_Test.nxc"
14	280	51		mov __D0driveUpToWall, __zfdriveUpToWall
14	279	53	#line 279 "C:\Users\Lshi\Documents\Extracurriculars\Gov School\Robotics\GSET_Robotics\Maze\409_Maze_Test.nxc"
14	280	53		brtst 4, __NXC_Label_754, __zfdriveUpToWall
14	279	56	#line 279 "C:\Users\Lshi\Documents\Extracurriculars\Gov School\Robotics\GSET_Robotics\Maze\409_Maze_Test.nxc"
14	280	56		mov __signed_stack_001driveUpToWall, __D0driveUpToWall
14	279	58	#line 279 "C:\Users\Lshi\Documents\Extracurriculars\Gov School\Robotics\GSET_Robotics\Maze\409_Maze_Test.nxc"
14	280	58		mov __signed_stack_002driveUpToWall, __driveUpToWall_7qG2_look_7qG2_000
14	279	60	#line 279 "C:\Users\Lshi\Documents\Extracurriculars\Gov School\Robotics\GSET_Robotics\Maze\409_Maze_Test.nxc"
14	279	60	#line 279 "C:\Users\Lshi\Documents\Extracurriculars\Gov School\Robotics\GSET_Robotics\Maze\409_Maze_Test.nxc"
14	280	60		set __D0driveUpToWall, 0
14	279	63	#line 279 "C:\Users\Lshi\Documents\Extracurriculars\Gov School\Robotics\GSET_Robotics\Maze\409_Maze_Test.nxc"
14	280	63		cmp 4, __zfdriveUpToWall, __signed_stack_002driveUpToWall, __D0driveUpToWall
14	279	67	#line 279 "C:\Users\Lshi\Documents\Extracurriculars\Gov School\Robotics\GSET_Robotics\Maze\409_Maze_Test.nxc"
14	279	67	#line 279 "C:\Users\Lshi\Documents\Extracurriculars\Gov School\Robotics\GSET_Robotics\Maze\409_Maze_Test.nxc"
14	280	67		and __D0driveUpToWall, __signed_stack_001driveUpToWall, __zfdriveUpToWall
14	280	71	#line 280 "C:\Users\Lshi\Documents\Extracurriculars\Gov School\Robotics\GSET_Robotics\Maze\409_Maze_Test.nxc"
14	281	71		tst 5, __zfdriveUpToWall, __D0driveUpToWall
14	280	74	#line 280 "C:\Users\Lshi\Documents\Extracurriculars\Gov School\Robotics\GSET_Robotics\Maze\409_Maze_Test.nxc"
14	281	74		brtst 4, __NXC_Label_755, __zfdriveUpToWall
14	280	77	#line 280 "C:\Users\Lshi\Documents\Extracurriculars\Gov School\Robotics\GSET_Robotics\Maze\409_Maze_Test.nxc"
14	281	77		set __turnHeadTo_7qG2_degrees_7qG2_000, 180
14	280	80	#line 280 "C:\Users\Lshi\Documents\Extracurriculars\Gov School\Robotics\GSET_Robotics\Maze\409_Maze_Test.nxc"
14	281	80	#line 281 "C:\Users\Lshi\Documents\Extracurriculars\Gov School\Robotics\GSET_Robotics\Maze\409_Maze_Test.nxc"
14	282	80		subcall turnHeadTo, __turnHeadTo_return
14	281	83	#line 281 "C:\Users\Lshi\Documents\Extracurriculars\Gov School\Robotics\GSET_Robotics\Maze\409_Maze_Test.nxc"
14	282	83	#line 282 "C:\Users\Lshi\Documents\Extracurriculars\Gov School\Robotics\GSET_Robotics\Maze\409_Maze_Test.nxc"
14	282	83	#line 282 "C:\Users\Lshi\Documents\Extracurriculars\Gov School\Robotics\GSET_Robotics\Maze\409_Maze_Test.nxc"
14	282	83	#line 282 "C:\Users\Lshi\Documents\Extracurriculars\Gov School\Robotics\GSET_Robotics\Maze\409_Maze_Test.nxc"
14	282	83	#line 282 "C:\Users\Lshi\Documents\Extracurriculars\Gov School\Robotics\GSET_Robotics\Maze\409_Maze_Test.nxc"
14	282	83	#line 282 "C:\Users\Lshi\Documents\Extracurriculars\Gov School\Robotics\GSET_Robotics\Maze\409_Maze_Test.nxc"
14	282	83	#line 282 "C:\Users\Lshi\Documents\Extracurriculars\Gov School\Robotics\GSET_Robotics\Maze\409_Maze_Test.nxc"
14	283	83		mul __signed_stack_001driveUpToWall, dir, __constVal60
14	282	87	#line 282 "C:\Users\Lshi\Documents\Extracurriculars\Gov School\Robotics\GSET_Robotics\Maze\409_Maze_Test.nxc"
14	282	87	#line 282 "C:\Users\Lshi\Documents\Extracurriculars\Gov School\Robotics\GSET_Robotics\Maze\409_Maze_Test.nxc"
14	283	87		set __D0driveUpToWall, 0
14	283	90	#line 283 "C:\Users\Lshi\Documents\Extracurriculars\Gov School\Robotics\GSET_Robotics\Maze\409_Maze_Test.nxc"
14	284	90	#pragma macro 7
14	284	90		setout __OUT_AC, 2, __signed_stack_001driveUpToWall, 1, __constVal7, 8, __constVal2, 7, __D0driveUpToWall, 6, __constVal32, 5, __constVal0, 10, __constVal96, 11, __constVal32, 12, __constVal32, 0, __constVal63
14	6829	113	#line 6829 "C:\Users\Lshi\Documents\Extracurriculars\Gov School\Robotics\GSET_Robotics\Maze\409_Maze_Test.nxc"
14	283	113	#line 283 "C:\Users\Lshi\Documents\Extracurriculars\Gov School\Robotics\GSET_Robotics\Maze\409_Maze_Test.nxc"
14	283	113	#line 283 "C:\Users\Lshi\Documents\Extracurriculars\Gov School\Robotics\GSET_Robotics\Maze\409_Maze_Test.nxc"
14	284	113		subcall turnCheck, __turnCheck_return
14	283	116	#line 283 "C:\Users\Lshi\Documents\Extracurriculars\Gov School\Robotics\GSET_Robotics\Maze\409_Maze_Test.nxc"
14	284	116		mov __D0driveUpToWall, __D0turnCheck
14	284	118	#line 284 "C:\Users\Lshi\Documents\Extracurriculars\Gov School\Robotics\GSET_Robotics\Maze\409_Maze_Test.nxc"
14	285	118		tst 5, __zfdriveUpToWall, __D0driveUpToWall
14	284	121	#line 284 "C:\Users\Lshi\Documents\Extracurriculars\Gov School\Robotics\GSET_Robotics\Maze\409_Maze_Test.nxc"
14	285	121		brtst 4, __NXC_Label_763, __zfdriveUpToWall
14	284	124	#line 284 "C:\Users\Lshi\Documents\Extracurriculars\Gov School\Robotics\GSET_Robotics\Maze\409_Maze_Test.nxc"
14	284	124	#line 284 "C:\Users\Lshi\Documents\Extracurriculars\Gov School\Robotics\GSET_Robotics\Maze\409_Maze_Test.nxc"
14	285	124		jmp __NXC_Label_762
14	284	126	#line 284 "C:\Users\Lshi\Documents\Extracurriculars\Gov School\Robotics\GSET_Robotics\Maze\409_Maze_Test.nxc"
14	284	126	#line 284 "C:\Users\Lshi\Documents\Extracurriculars\Gov School\Robotics\GSET_Robotics\Maze\409_Maze_Test.nxc"
14	285	126		set __signed_stack_001driveUpToWall, 0
14	284	129	#line 284 "C:\Users\Lshi\Documents\Extracurriculars\Gov School\Robotics\GSET_Robotics\Maze\409_Maze_Test.nxc"
14	284	129	#line 284 "C:\Users\Lshi\Documents\Extracurriculars\Gov School\Robotics\GSET_Robotics\Maze\409_Maze_Test.nxc"
14	285	129		set __D0driveUpToWall, 0
14	285	132	#line 285 "C:\Users\Lshi\Documents\Extracurriculars\Gov School\Robotics\GSET_Robotics\Maze\409_Maze_Test.nxc"
14	286	132	#pragma macro 7
14	286	132		setout __OUT_AC, 2, __signed_stack_001driveUpToWall, 1, __constVal7, 8, __constVal2, 7, __D0driveUpToWall, 6, __constVal32, 5, __constVal0, 10, __constVal96, 11, __constVal32, 12, __constVal32, 0, __constVal63
14	6858	155	#line 6858 "C:\Users\Lshi\Documents\Extracurriculars\Gov School\Robotics\GSET_Robotics\Maze\409_Maze_Test.nxc"
14	285	155	#line 285 "C:\Users\Lshi\Documents\Extracurriculars\Gov School\Robotics\GSET_Robotics\Maze\409_Maze_Test.nxc"
14	287	155	#line 287 "C:\Users\Lshi\Documents\Extracurriculars\Gov School\Robotics\GSET_Robotics\Maze\409_Maze_Test.nxc"
14	288	155		subret __driveUpToWall_return
15	288	0	#line 288 "C:\Users\Lshi\Documents\Extracurriculars\Gov School\Robotics\GSET_Robotics\Maze\409_Maze_Test.nxc"
15	289	0		mov __signed_stack_001doubleWheelTurn, __doubleWheelTurn_7qG2_degrees_7qG2_000
15	288	2	#line 288 "C:\Users\Lshi\Documents\Extracurriculars\Gov School\Robotics\GSET_Robotics\Maze\409_Maze_Test.nxc"
15	288	2	#line 288 "C:\Users\Lshi\Documents\Extracurriculars\Gov School\Robotics\GSET_Robotics\Maze\409_Maze_Test.nxc"
15	289	2		set __D0doubleWheelTurn, 0
15	288	5	#line 288 "C:\Users\Lshi\Documents\Extracurriculars\Gov School\Robotics\GSET_Robotics\Maze\409_Maze_Test.nxc"
15	289	5		cmp 1, __zfdoubleWheelTurn, __signed_stack_001doubleWheelTurn, __D0doubleWheelTurn
15	288	9	#line 288 "C:\Users\Lshi\Documents\Extracurriculars\Gov School\Robotics\GSET_Robotics\Maze\409_Maze_Test.nxc"
15	289	9		mov __D0doubleWheelTurn, __zfdoubleWheelTurn
15	289	11	#line 289 "C:\Users\Lshi\Documents\Extracurriculars\Gov School\Robotics\GSET_Robotics\Maze\409_Maze_Test.nxc"
15	290	11		brtst 4, __NXC_Label_772, __zfdoubleWheelTurn
15	289	14	#line 289 "C:\Users\Lshi\Documents\Extracurriculars\Gov School\Robotics\GSET_Robotics\Maze\409_Maze_Test.nxc"
15	289	14	#line 289 "C:\Users\Lshi\Documents\Extracurriculars\Gov School\Robotics\GSET_Robotics\Maze\409_Maze_Test.nxc"
15	289	14	#line 289 "C:\Users\Lshi\Documents\Extracurriculars\Gov School\Robotics\GSET_Robotics\Maze\409_Maze_Test.nxc"
15	289	14	#line 289 "C:\Users\Lshi\Documents\Extracurriculars\Gov School\Robotics\GSET_Robotics\Maze\409_Maze_Test.nxc"
15	290	14		mul __signed_stack_001doubleWheelTurn, dir, __constVal60
15	289	18	#line 289 "C:\Users\Lshi\Documents\Extracurriculars\Gov School\Robotics\GSET_Robotics\Maze\409_Maze_Test.nxc"
15	289	18	#line 289 "C:\Users\Lshi\Documents\Extracurriculars\Gov School\Robotics\GSET_Robotics\Maze\409_Maze_Test.nxc"
15	289	18	#line 289 "C:\Users\Lshi\Documents\Extracurriculars\Gov School\Robotics\GSET_Robotics\Maze\409_Maze_Test.nxc"
15	290	18		mul __float_stack_001doubleWheelTurn, __signed_stack_001doubleWheelTurn, __constValf0P5
15	289	22	#line 289 "C:\Users\Lshi\Documents\Extracurriculars\Gov School\Robotics\GSET_Robotics\Maze\409_Maze_Test.nxc"
15	289	22	#line 289 "C:\Users\Lshi\Documents\Extracurriculars\Gov School\Robotics\GSET_Robotics\Maze\409_Maze_Test.nxc"
15	289	22	#line 289 "C:\Users\Lshi\Documents\Extracurriculars\Gov School\Robotics\GSET_Robotics\Maze\409_Maze_Test.nxc"
15	289	22	#line 289 "C:\Users\Lshi\Documents\Extracurriculars\Gov School\Robotics\GSET_Robotics\Maze\409_Maze_Test.nxc"
15	289	22	#line 289 "C:\Users\Lshi\Documents\Extracurriculars\Gov School\Robotics\GSET_Robotics\Maze\409_Maze_Test.nxc"
15	290	22		mul __float_stack_002doubleWheelTurn, __constValf3P2, __doubleWheelTurn_7qG2_degrees_7qG2_000
15	289	26	#line 289 "C:\Users\Lshi\Documents\Extracurriculars\Gov School\Robotics\GSET_Robotics\Maze\409_Maze_Test.nxc"
15	289	26	#line 289 "C:\Users\Lshi\Documents\Extracurriculars\Gov School\Robotics\GSET_Robotics\Maze\409_Maze_Test.nxc"
15	290	26		mov __float_stack_003doubleWheelTurn, __constValNeg100
15	289	29	#line 289 "C:\Users\Lshi\Documents\Extracurriculars\Gov School\Robotics\GSET_Robotics\Maze\409_Maze_Test.nxc"
15	289	29	#line 289 "C:\Users\Lshi\Documents\Extracurriculars\Gov School\Robotics\GSET_Robotics\Maze\409_Maze_Test.nxc"
15	290	29		mov __float_stack_004doubleWheelTurn, __constVal1
15	289	32	#line 289 "C:\Users\Lshi\Documents\Extracurriculars\Gov School\Robotics\GSET_Robotics\Maze\409_Maze_Test.nxc"
15	289	32	#line 289 "C:\Users\Lshi\Documents\Extracurriculars\Gov School\Robotics\GSET_Robotics\Maze\409_Maze_Test.nxc"
15	290	32		mov __DF0doubleWheelTurn, __constVal1
15	290	35	#line 290 "C:\Users\Lshi\Documents\Extracurriculars\Gov School\Robotics\GSET_Robotics\Maze\409_Maze_Test.nxc"
15	291	35	#pragma macro 35
15	291	35		acquire __rotateMutex0
15	291	36		acquire __rotateMutex2
15	291	37		mov __rotate_ports4, __OUT_AC
15	291	39		mov __rotate_power4, __float_stack_001doubleWheelTurn
15	291	42		mov __rotate_angle4, __float_stack_002doubleWheelTurn
15	291	44		mov __rotate_turnpct4, __float_stack_003doubleWheelTurn
15	291	47		mov __rotate_sync4, __float_stack_004doubleWheelTurn
15	291	50		mov __rotate_stop4, __DF0doubleWheelTurn
15	291	53		mov __rotate_theRVP4, __constVal32
15	291	55		mov __rotate_theRVI4, __constVal0
15	291	57		mov __rotate_theRVD4, __constVal96
15	291	59		subcall __RotateMotor4, ____RotateMotor4_return
15	291	62		release __rotateMutex2
15	291	63		release __rotateMutex0
15	6926	64	#line 6926 "C:\Users\Lshi\Documents\Extracurriculars\Gov School\Robotics\GSET_Robotics\Maze\409_Maze_Test.nxc"
15	290	64	#line 290 "C:\Users\Lshi\Documents\Extracurriculars\Gov School\Robotics\GSET_Robotics\Maze\409_Maze_Test.nxc"
15	291	64	#line 291 "C:\Users\Lshi\Documents\Extracurriculars\Gov School\Robotics\GSET_Robotics\Maze\409_Maze_Test.nxc"
15	292	64		jmp __NXC_Label_783
15	291	66	#line 291 "C:\Users\Lshi\Documents\Extracurriculars\Gov School\Robotics\GSET_Robotics\Maze\409_Maze_Test.nxc"
15	292	66		mov __signed_stack_001doubleWheelTurn, __doubleWheelTurn_7qG2_degrees_7qG2_000
15	291	68	#line 291 "C:\Users\Lshi\Documents\Extracurriculars\Gov School\Robotics\GSET_Robotics\Maze\409_Maze_Test.nxc"
15	291	68	#line 291 "C:\Users\Lshi\Documents\Extracurriculars\Gov School\Robotics\GSET_Robotics\Maze\409_Maze_Test.nxc"
15	292	68		set __D0doubleWheelTurn, 0
15	291	71	#line 291 "C:\Users\Lshi\Documents\Extracurriculars\Gov School\Robotics\GSET_Robotics\Maze\409_Maze_Test.nxc"
15	292	71		cmp 2, __zfdoubleWheelTurn, __signed_stack_001doubleWheelTurn, __D0doubleWheelTurn
15	291	75	#line 291 "C:\Users\Lshi\Documents\Extracurriculars\Gov School\Robotics\GSET_Robotics\Maze\409_Maze_Test.nxc"
15	292	75		mov __D0doubleWheelTurn, __zfdoubleWheelTurn
15	292	77	#line 292 "C:\Users\Lshi\Documents\Extracurriculars\Gov School\Robotics\GSET_Robotics\Maze\409_Maze_Test.nxc"
15	293	77		brtst 4, __NXC_Label_786, __zfdoubleWheelTurn
15	292	80	#line 292 "C:\Users\Lshi\Documents\Extracurriculars\Gov School\Robotics\GSET_Robotics\Maze\409_Maze_Test.nxc"
15	292	80	#line 292 "C:\Users\Lshi\Documents\Extracurriculars\Gov School\Robotics\GSET_Robotics\Maze\409_Maze_Test.nxc"
15	292	80	#line 292 "C:\Users\Lshi\Documents\Extracurriculars\Gov School\Robotics\GSET_Robotics\Maze\409_Maze_Test.nxc"
15	292	80	#line 292 "C:\Users\Lshi\Documents\Extracurriculars\Gov School\Robotics\GSET_Robotics\Maze\409_Maze_Test.nxc"
15	293	80		mul __signed_stack_001doubleWheelTurn, dir, __constVal60
15	292	84	#line 292 "C:\Users\Lshi\Documents\Extracurriculars\Gov School\Robotics\GSET_Robotics\Maze\409_Maze_Test.nxc"
15	292	84	#line 292 "C:\Users\Lshi\Documents\Extracurriculars\Gov School\Robotics\GSET_Robotics\Maze\409_Maze_Test.nxc"
15	292	84	#line 292 "C:\Users\Lshi\Documents\Extracurriculars\Gov School\Robotics\GSET_Robotics\Maze\409_Maze_Test.nxc"
15	293	84		mul __float_stack_001doubleWheelTurn, __signed_stack_001doubleWheelTurn, __constValf0P5
15	292	88	#line 292 "C:\Users\Lshi\Documents\Extracurriculars\Gov School\Robotics\GSET_Robotics\Maze\409_Maze_Test.nxc"
15	292	88	#line 292 "C:\Users\Lshi\Documents\Extracurriculars\Gov School\Robotics\GSET_Robotics\Maze\409_Maze_Test.nxc"
15	292	88	#line 292 "C:\Users\Lshi\Documents\Extracurriculars\Gov School\Robotics\GSET_Robotics\Maze\409_Maze_Test.nxc"
15	292	88	#line 292 "C:\Users\Lshi\Documents\Extracurriculars\Gov School\Robotics\GSET_Robotics\Maze\409_Maze_Test.nxc"
15	292	88	#line 292 "C:\Users\Lshi\Documents\Extracurriculars\Gov School\Robotics\GSET_Robotics\Maze\409_Maze_Test.nxc"
15	293	88		mul __float_stack_002doubleWheelTurn, __constValf2P65, __doubleWheelTurn_7qG2_degrees_7qG2_000
15	292	92	#line 292 "C:\Users\Lshi\Documents\Extracurriculars\Gov School\Robotics\GSET_Robotics\Maze\409_Maze_Test.nxc"
15	292	92	#line 292 "C:\Users\Lshi\Documents\Extracurriculars\Gov School\Robotics\GSET_Robotics\Maze\409_Maze_Test.nxc"
15	293	92		mov __float_stack_003doubleWheelTurn, __constVal100
15	292	95	#line 292 "C:\Users\Lshi\Documents\Extracurriculars\Gov School\Robotics\GSET_Robotics\Maze\409_Maze_Test.nxc"
15	292	95	#line 292 "C:\Users\Lshi\Documents\Extracurriculars\Gov School\Robotics\GSET_Robotics\Maze\409_Maze_Test.nxc"
15	293	95		mov __float_stack_004doubleWheelTurn, __constVal1
15	292	98	#line 292 "C:\Users\Lshi\Documents\Extracurriculars\Gov School\Robotics\GSET_Robotics\Maze\409_Maze_Test.nxc"
15	292	98	#line 292 "C:\Users\Lshi\Documents\Extracurriculars\Gov School\Robotics\GSET_Robotics\Maze\409_Maze_Test.nxc"
15	293	98		mov __DF0doubleWheelTurn, __constVal1
15	293	101	#line 293 "C:\Users\Lshi\Documents\Extracurriculars\Gov School\Robotics\GSET_Robotics\Maze\409_Maze_Test.nxc"
15	294	101	#pragma macro 35
15	294	101		acquire __rotateMutex0
15	294	102		acquire __rotateMutex2
15	294	103		mov __rotate_ports4, __OUT_AC
15	294	105		mov __rotate_power4, __float_stack_001doubleWheelTurn
15	294	108		mov __rotate_angle4, __float_stack_002doubleWheelTurn
15	294	110		mov __rotate_turnpct4, __float_stack_003doubleWheelTurn
15	294	113		mov __rotate_sync4, __float_stack_004doubleWheelTurn
15	294	116		mov __rotate_stop4, __DF0doubleWheelTurn
15	294	119		mov __rotate_theRVP4, __constVal32
15	294	121		mov __rotate_theRVI4, __constVal0
15	294	123		mov __rotate_theRVD4, __constVal96
15	294	125		subcall __RotateMotor4, ____RotateMotor4_return
15	294	128		release __rotateMutex2
15	294	129		release __rotateMutex0
15	6992	130	#line 6992 "C:\Users\Lshi\Documents\Extracurriculars\Gov School\Robotics\GSET_Robotics\Maze\409_Maze_Test.nxc"
15	293	130	#line 293 "C:\Users\Lshi\Documents\Extracurriculars\Gov School\Robotics\GSET_Robotics\Maze\409_Maze_Test.nxc"
15	295	130	#line 295 "C:\Users\Lshi\Documents\Extracurriculars\Gov School\Robotics\GSET_Robotics\Maze\409_Maze_Test.nxc"
15	295	130	#line 295 "C:\Users\Lshi\Documents\Extracurriculars\Gov School\Robotics\GSET_Robotics\Maze\409_Maze_Test.nxc"
15	295	130	#line 295 "C:\Users\Lshi\Documents\Extracurriculars\Gov School\Robotics\GSET_Robotics\Maze\409_Maze_Test.nxc"
15	296	130		set __Wait_7qG2_ms_7qG2_000_inline_doubleWheelTurn, 100
15	295	133	#line 295 "C:\Users\Lshi\Documents\Extracurriculars\Gov School\Robotics\GSET_Robotics\Maze\409_Maze_Test.nxc"
15	7921	133	#line 7921 "NXCDefs.h"
15	7922	133		wait2 NA, __Wait_7qG2_ms_7qG2_000_inline_doubleWheelTurn
15	7921	136	#line 7921 "NXCDefs.h"
15	296	136	#line 296 "C:\Users\Lshi\Documents\Extracurriculars\Gov School\Robotics\GSET_Robotics\Maze\409_Maze_Test.nxc"
15	298	136	#line 298 "C:\Users\Lshi\Documents\Extracurriculars\Gov School\Robotics\GSET_Robotics\Maze\409_Maze_Test.nxc"
15	299	136		subret __doubleWheelTurn_return
16	300	0	#line 300 "C:\Users\Lshi\Documents\Extracurriculars\Gov School\Robotics\GSET_Robotics\Maze\409_Maze_Test.nxc"
16	301	0		set __signed_stack_001singleWheelTurn, 60
16	300	3	#line 300 "C:\Users\Lshi\Documents\Extracurriculars\Gov School\Robotics\GSET_Robotics\Maze\409_Maze_Test.nxc"
16	300	3	#line 300 "C:\Users\Lshi\Documents\Extracurriculars\Gov School\Robotics\GSET_Robotics\Maze\409_Maze_Test.nxc"
16	300	3	#line 300 "C:\Users\Lshi\Documents\Extracurriculars\Gov School\Robotics\GSET_Robotics\Maze\409_Maze_Test.nxc"
16	300	3	#line 300 "C:\Users\Lshi\Documents\Extracurriculars\Gov School\Robotics\GSET_Robotics\Maze\409_Maze_Test.nxc"
16	300	3	#line 300 "C:\Users\Lshi\Documents\Extracurriculars\Gov School\Robotics\GSET_Robotics\Maze\409_Maze_Test.nxc"
16	301	3		mul __signed_stack_002singleWheelTurn, dir, __singleWheelTurn_7qG2_degrees_7qG2_000
16	300	7	#line 300 "C:\Users\Lshi\Documents\Extracurriculars\Gov School\Robotics\GSET_Robotics\Maze\409_Maze_Test.nxc"
16	300	7	#line 300 "C:\Users\Lshi\Documents\Extracurriculars\Gov School\Robotics\GSET_Robotics\Maze\409_Maze_Test.nxc"
16	300	7	#line 300 "C:\Users\Lshi\Documents\Extracurriculars\Gov School\Robotics\GSET_Robotics\Maze\409_Maze_Test.nxc"
16	301	7		mul __DF0singleWheelTurn, __signed_stack_002singleWheelTurn, __constValf4P8
16	301	11	#line 301 "C:\Users\Lshi\Documents\Extracurriculars\Gov School\Robotics\GSET_Robotics\Maze\409_Maze_Test.nxc"
16	302	11	#pragma macro 22
16	302	11		acquire __rotateMutex0
16	302	12		acquire __rotateMutex1
16	302	13		acquire __rotateMutex2
16	302	14		arrbuild __rotate_ports6, __singleWheelTurn_7qG2_motor_7qG2_000
16	302	18		mov __rotate_power6, __signed_stack_001singleWheelTurn
16	302	20		mov __rotate_angle6, __DF0singleWheelTurn
16	302	22		mov __rotate_turnpct6, __constVal0
16	302	24		mov __rotate_sync6, __constVal0
16	302	26		mov __rotate_stop6, __constVal1
16	302	28		mov __rotate_theRVP6, __constVal32
16	302	30		mov __rotate_theRVI6, __constVal0
16	302	32		mov __rotate_theRVD6, __constVal96
16	302	34		subcall __RotateMotorVar, ____RotateMotorVar_return
16	302	37		release __rotateMutex2
16	302	38		release __rotateMutex1
16	302	39		release __rotateMutex0
16	7040	40	#line 7040 "C:\Users\Lshi\Documents\Extracurriculars\Gov School\Robotics\GSET_Robotics\Maze\409_Maze_Test.nxc"
16	301	40	#line 301 "C:\Users\Lshi\Documents\Extracurriculars\Gov School\Robotics\GSET_Robotics\Maze\409_Maze_Test.nxc"
16	301	40	#line 301 "C:\Users\Lshi\Documents\Extracurriculars\Gov School\Robotics\GSET_Robotics\Maze\409_Maze_Test.nxc"
16	302	40		set __Wait_7qG2_ms_7qG2_000_inline_singleWheelTurn, 100
16	301	43	#line 301 "C:\Users\Lshi\Documents\Extracurriculars\Gov School\Robotics\GSET_Robotics\Maze\409_Maze_Test.nxc"
16	7921	43	#line 7921 "NXCDefs.h"
16	7922	43		wait2 NA, __Wait_7qG2_ms_7qG2_000_inline_singleWheelTurn
16	7921	46	#line 7921 "NXCDefs.h"
16	302	46	#line 302 "C:\Users\Lshi\Documents\Extracurriculars\Gov School\Robotics\GSET_Robotics\Maze\409_Maze_Test.nxc"
16	304	46	#line 304 "C:\Users\Lshi\Documents\Extracurriculars\Gov School\Robotics\GSET_Robotics\Maze\409_Maze_Test.nxc"
16	305	46		subret __singleWheelTurn_return
17	327	0	#line 327 "C:\Users\Lshi\Documents\Extracurriculars\Gov School\Robotics\GSET_Robotics\Maze\409_Maze_Test.nxc"
17	328	0	#pragma macro 26
17	328	0		acquire __RLSBmutex1
17	328	1		mov __RLSReadBuf1, __RLSBbufLSWrite1
17	328	3		set __RLSBytesCount1, 1
17	328	6		wait2 NA, __constVal15
17	328	9		subcall __ReadLSBytes1, ____ReadLSBytes1_return
17	328	12		index __D0turnCheck, __RLSReadBuf1, 65535
17	328	16		release __RLSBmutex1
17	7288	17	#line 7288 "C:\Users\Lshi\Documents\Extracurriculars\Gov School\Robotics\GSET_Robotics\Maze\409_Maze_Test.nxc"
17	327	17	#line 327 "C:\Users\Lshi\Documents\Extracurriculars\Gov School\Robotics\GSET_Robotics\Maze\409_Maze_Test.nxc"
17	328	17		mov __signed_stack_001turnCheck, __D0turnCheck
17	327	19	#line 327 "C:\Users\Lshi\Documents\Extracurriculars\Gov School\Robotics\GSET_Robotics\Maze\409_Maze_Test.nxc"
17	328	19		set __D0turnCheck, 13
17	327	22	#line 327 "C:\Users\Lshi\Documents\Extracurriculars\Gov School\Robotics\GSET_Robotics\Maze\409_Maze_Test.nxc"
17	328	22		cmp 1, __zfturnCheck, __signed_stack_001turnCheck, __D0turnCheck
17	327	26	#line 327 "C:\Users\Lshi\Documents\Extracurriculars\Gov School\Robotics\GSET_Robotics\Maze\409_Maze_Test.nxc"
17	328	26		mov __D0turnCheck, __zfturnCheck
17	328	28	#line 328 "C:\Users\Lshi\Documents\Extracurriculars\Gov School\Robotics\GSET_Robotics\Maze\409_Maze_Test.nxc"
17	329	28		brtst 4, __NXC_Label_849, __zfturnCheck
17	329	31	#line 329 "C:\Users\Lshi\Documents\Extracurriculars\Gov School\Robotics\GSET_Robotics\Maze\409_Maze_Test.nxc"
17	330	31		set __D0turnCheck, 1
17	329	34	#line 329 "C:\Users\Lshi\Documents\Extracurriculars\Gov School\Robotics\GSET_Robotics\Maze\409_Maze_Test.nxc"
17	330	34		subret __turnCheck_return
17	329	36	#line 329 "C:\Users\Lshi\Documents\Extracurriculars\Gov School\Robotics\GSET_Robotics\Maze\409_Maze_Test.nxc"
17	331	36	#line 331 "C:\Users\Lshi\Documents\Extracurriculars\Gov School\Robotics\GSET_Robotics\Maze\409_Maze_Test.nxc"
17	332	36		jmp __NXC_Label_852
17	332	38	#line 332 "C:\Users\Lshi\Documents\Extracurriculars\Gov School\Robotics\GSET_Robotics\Maze\409_Maze_Test.nxc"
17	333	38		set __D0turnCheck, 0
17	332	41	#line 332 "C:\Users\Lshi\Documents\Extracurriculars\Gov School\Robotics\GSET_Robotics\Maze\409_Maze_Test.nxc"
17	333	41		subret __turnCheck_return
17	332	43	#line 332 "C:\Users\Lshi\Documents\Extracurriculars\Gov School\Robotics\GSET_Robotics\Maze\409_Maze_Test.nxc"
17	335	43	#line 335 "C:\Users\Lshi\Documents\Extracurriculars\Gov School\Robotics\GSET_Robotics\Maze\409_Maze_Test.nxc"
17	335	43	#line 335 "C:\Users\Lshi\Documents\Extracurriculars\Gov School\Robotics\GSET_Robotics\Maze\409_Maze_Test.nxc"
17	336	43		subret __turnCheck_return
18	336	0	#line 336 "C:\Users\Lshi\Documents\Extracurriculars\Gov School\Robotics\GSET_Robotics\Maze\409_Maze_Test.nxc"
18	337	0	#pragma macro 24
18	337	0		acquire __RLSBmutex3
18	337	1		mov __RLSReadBuf3, __RLSBbufLSWrite1
18	337	3		set __RLSBytesCount3, 1
18	337	6		subcall __ReadLSBytes3, ____ReadLSBytes3_return
18	337	9		index __D0ballFind, __RLSReadBuf3, 65535
18	337	13		release __RLSBmutex3
18	7326	14	#line 7326 "C:\Users\Lshi\Documents\Extracurriculars\Gov School\Robotics\GSET_Robotics\Maze\409_Maze_Test.nxc"
18	336	14	#line 336 "C:\Users\Lshi\Documents\Extracurriculars\Gov School\Robotics\GSET_Robotics\Maze\409_Maze_Test.nxc"
18	337	14		subret __ballFind_return
18	336	16	#line 336 "C:\Users\Lshi\Documents\Extracurriculars\Gov School\Robotics\GSET_Robotics\Maze\409_Maze_Test.nxc"
18	336	16	#line 336 "C:\Users\Lshi\Documents\Extracurriculars\Gov School\Robotics\GSET_Robotics\Maze\409_Maze_Test.nxc"
18	339	16	#line 339 "C:\Users\Lshi\Documents\Extracurriculars\Gov School\Robotics\GSET_Robotics\Maze\409_Maze_Test.nxc"
18	340	16		subret __ballFind_return
19	342	0	#line 342 "C:\Users\Lshi\Documents\Extracurriculars\Gov School\Robotics\GSET_Robotics\Maze\409_Maze_Test.nxc"
19	343	0		set __signed_stack_001ballCatch, 440
19	342	3	#line 342 "C:\Users\Lshi\Documents\Extracurriculars\Gov School\Robotics\GSET_Robotics\Maze\409_Maze_Test.nxc"
19	342	3	#line 342 "C:\Users\Lshi\Documents\Extracurriculars\Gov School\Robotics\GSET_Robotics\Maze\409_Maze_Test.nxc"
19	343	3		set __signed_stack_002ballCatch, 250
19	342	6	#line 342 "C:\Users\Lshi\Documents\Extracurriculars\Gov School\Robotics\GSET_Robotics\Maze\409_Maze_Test.nxc"
19	342	6	#line 342 "C:\Users\Lshi\Documents\Extracurriculars\Gov School\Robotics\GSET_Robotics\Maze\409_Maze_Test.nxc"
19	343	6		set __signed_stack_003ballCatch, 4
19	342	9	#line 342 "C:\Users\Lshi\Documents\Extracurriculars\Gov School\Robotics\GSET_Robotics\Maze\409_Maze_Test.nxc"
19	342	9	#line 342 "C:\Users\Lshi\Documents\Extracurriculars\Gov School\Robotics\GSET_Robotics\Maze\409_Maze_Test.nxc"
19	343	9		set __D0ballCatch, 0
19	343	12	#line 343 "C:\Users\Lshi\Documents\Extracurriculars\Gov School\Robotics\GSET_Robotics\Maze\409_Maze_Test.nxc"
19	344	12		acquire __SPTArgsMutex
19	343	13	#line 343 "C:\Users\Lshi\Documents\Extracurriculars\Gov School\Robotics\GSET_Robotics\Maze\409_Maze_Test.nxc"
19	344	13		mov __SPTArgs.Frequency, __signed_stack_001ballCatch
19	343	16	#line 343 "C:\Users\Lshi\Documents\Extracurriculars\Gov School\Robotics\GSET_Robotics\Maze\409_Maze_Test.nxc"
19	344	16		mov __SPTArgs.Duration, __signed_stack_002ballCatch
19	343	19	#line 343 "C:\Users\Lshi\Documents\Extracurriculars\Gov School\Robotics\GSET_Robotics\Maze\409_Maze_Test.nxc"
19	344	19		mov __SPTArgs.Volume, __signed_stack_003ballCatch
19	343	22	#line 343 "C:\Users\Lshi\Documents\Extracurriculars\Gov School\Robotics\GSET_Robotics\Maze\409_Maze_Test.nxc"
19	344	22		mov __SPTArgs.Loop, __D0ballCatch
19	343	25	#line 343 "C:\Users\Lshi\Documents\Extracurriculars\Gov School\Robotics\GSET_Robotics\Maze\409_Maze_Test.nxc"
19	344	25		syscall 10, __SPTArgs
19	343	28	#line 343 "C:\Users\Lshi\Documents\Extracurriculars\Gov School\Robotics\GSET_Robotics\Maze\409_Maze_Test.nxc"
19	344	28		mov __D0ballCatch, __SPTArgs.Result
19	343	31	#line 343 "C:\Users\Lshi\Documents\Extracurriculars\Gov School\Robotics\GSET_Robotics\Maze\409_Maze_Test.nxc"
19	344	31		release __SPTArgsMutex
19	343	32	#line 343 "C:\Users\Lshi\Documents\Extracurriculars\Gov School\Robotics\GSET_Robotics\Maze\409_Maze_Test.nxc"
19	343	32	#line 343 "C:\Users\Lshi\Documents\Extracurriculars\Gov School\Robotics\GSET_Robotics\Maze\409_Maze_Test.nxc"
19	344	32	#pragma macro 24
19	344	32		acquire __RLSBmutex3
19	344	33		mov __RLSReadBuf3, __RLSBbufLSWrite1
19	344	35		set __RLSBytesCount3, 1
19	344	38		subcall __ReadLSBytes3, ____ReadLSBytes3_return
19	344	41		index __D0ballCatch, __RLSReadBuf3, 65535
19	344	45		release __RLSBmutex3
19	7378	46	#line 7378 "C:\Users\Lshi\Documents\Extracurriculars\Gov School\Robotics\GSET_Robotics\Maze\409_Maze_Test.nxc"
19	343	46	#line 343 "C:\Users\Lshi\Documents\Extracurriculars\Gov School\Robotics\GSET_Robotics\Maze\409_Maze_Test.nxc"
19	344	46		mov __signed_stack_001ballCatch, __D0ballCatch
19	343	48	#line 343 "C:\Users\Lshi\Documents\Extracurriculars\Gov School\Robotics\GSET_Robotics\Maze\409_Maze_Test.nxc"
19	344	48		set __D0ballCatch, 5
19	343	51	#line 343 "C:\Users\Lshi\Documents\Extracurriculars\Gov School\Robotics\GSET_Robotics\Maze\409_Maze_Test.nxc"
19	344	51		cmp 0, __zfballCatch, __signed_stack_001ballCatch, __D0ballCatch
19	343	55	#line 343 "C:\Users\Lshi\Documents\Extracurriculars\Gov School\Robotics\GSET_Robotics\Maze\409_Maze_Test.nxc"
19	344	55		mov __D0ballCatch, __zfballCatch
19	344	58	#line 344 "C:\Users\Lshi\Documents\Extracurriculars\Gov School\Robotics\GSET_Robotics\Maze\409_Maze_Test.nxc"
19	345	58		brtst 4, __NXC_Label_867, __zfballCatch
19	344	61	#line 344 "C:\Users\Lshi\Documents\Extracurriculars\Gov School\Robotics\GSET_Robotics\Maze\409_Maze_Test.nxc"
19	345	61		set __ballCatch_7qG2_i_7qG2_002, 0
19	344	64	#line 344 "C:\Users\Lshi\Documents\Extracurriculars\Gov School\Robotics\GSET_Robotics\Maze\409_Maze_Test.nxc"
19	344	64	#line 344 "C:\Users\Lshi\Documents\Extracurriculars\Gov School\Robotics\GSET_Robotics\Maze\409_Maze_Test.nxc"
19	345	64		mov __signed_stack_001ballCatch, __ballCatch_7qG2_i_7qG2_002
19	344	66	#line 344 "C:\Users\Lshi\Documents\Extracurriculars\Gov School\Robotics\GSET_Robotics\Maze\409_Maze_Test.nxc"
19	344	66	#line 344 "C:\Users\Lshi\Documents\Extracurriculars\Gov School\Robotics\GSET_Robotics\Maze\409_Maze_Test.nxc"
19	345	66		set __D0ballCatch, 91
19	344	69	#line 344 "C:\Users\Lshi\Documents\Extracurriculars\Gov School\Robotics\GSET_Robotics\Maze\409_Maze_Test.nxc"
19	345	69		cmp 0, __zfballCatch, __signed_stack_001ballCatch, __D0ballCatch
19	344	73	#line 344 "C:\Users\Lshi\Documents\Extracurriculars\Gov School\Robotics\GSET_Robotics\Maze\409_Maze_Test.nxc"
19	345	73		mov __D0ballCatch, __zfballCatch
19	344	76	#line 344 "C:\Users\Lshi\Documents\Extracurriculars\Gov School\Robotics\GSET_Robotics\Maze\409_Maze_Test.nxc"
19	345	76		brtst 4, __NXC_Label_869, __zfballCatch
19	344	79	#line 344 "C:\Users\Lshi\Documents\Extracurriculars\Gov School\Robotics\GSET_Robotics\Maze\409_Maze_Test.nxc"
19	345	79		jmp __NXC_Label_870
19	344	81	#line 344 "C:\Users\Lshi\Documents\Extracurriculars\Gov School\Robotics\GSET_Robotics\Maze\409_Maze_Test.nxc"
19	345	81		add __ballCatch_7qG2_i_7qG2_002, __ballCatch_7qG2_i_7qG2_002, __constVal1
19	345	85	#line 345 "C:\Users\Lshi\Documents\Extracurriculars\Gov School\Robotics\GSET_Robotics\Maze\409_Maze_Test.nxc"
19	346	85		jmp __NXC_Label_868
19	345	87	#line 345 "C:\Users\Lshi\Documents\Extracurriculars\Gov School\Robotics\GSET_Robotics\Maze\409_Maze_Test.nxc"
19	346	87		set __doubleWheelTurn_7qG2_degrees_7qG2_000, 1
19	345	90	#line 345 "C:\Users\Lshi\Documents\Extracurriculars\Gov School\Robotics\GSET_Robotics\Maze\409_Maze_Test.nxc"
19	346	90	#line 346 "C:\Users\Lshi\Documents\Extracurriculars\Gov School\Robotics\GSET_Robotics\Maze\409_Maze_Test.nxc"
19	347	90		subcall doubleWheelTurn, __doubleWheelTurn_return
19	346	92	#line 346 "C:\Users\Lshi\Documents\Extracurriculars\Gov School\Robotics\GSET_Robotics\Maze\409_Maze_Test.nxc"
19	346	92	#line 346 "C:\Users\Lshi\Documents\Extracurriculars\Gov School\Robotics\GSET_Robotics\Maze\409_Maze_Test.nxc"
19	347	92	#pragma macro 24
19	347	92		acquire __RLSBmutex3
19	347	93		mov __RLSReadBuf3, __RLSBbufLSWrite1
19	347	95		set __RLSBytesCount3, 1
19	347	98		subcall __ReadLSBytes3, ____ReadLSBytes3_return
19	347	101		index __D0ballCatch, __RLSReadBuf3, 65535
19	347	105		release __RLSBmutex3
19	7434	106	#line 7434 "C:\Users\Lshi\Documents\Extracurriculars\Gov School\Robotics\GSET_Robotics\Maze\409_Maze_Test.nxc"
19	346	106	#line 346 "C:\Users\Lshi\Documents\Extracurriculars\Gov School\Robotics\GSET_Robotics\Maze\409_Maze_Test.nxc"
19	347	106		mov __signed_stack_001ballCatch, __D0ballCatch
19	346	108	#line 346 "C:\Users\Lshi\Documents\Extracurriculars\Gov School\Robotics\GSET_Robotics\Maze\409_Maze_Test.nxc"
19	347	108		set __D0ballCatch, 5
19	346	111	#line 346 "C:\Users\Lshi\Documents\Extracurriculars\Gov School\Robotics\GSET_Robotics\Maze\409_Maze_Test.nxc"
19	347	111		cmp 4, __zfballCatch, __signed_stack_001ballCatch, __D0ballCatch
19	346	115	#line 346 "C:\Users\Lshi\Documents\Extracurriculars\Gov School\Robotics\GSET_Robotics\Maze\409_Maze_Test.nxc"
19	347	115		mov __D0ballCatch, __zfballCatch
19	347	118	#line 347 "C:\Users\Lshi\Documents\Extracurriculars\Gov School\Robotics\GSET_Robotics\Maze\409_Maze_Test.nxc"
19	348	118		brtst 4, __NXC_Label_880, __zfballCatch
19	348	121	#line 348 "C:\Users\Lshi\Documents\Extracurriculars\Gov School\Robotics\GSET_Robotics\Maze\409_Maze_Test.nxc"
19	349	121		mov ballAngle, __ballCatch_7qG2_i_7qG2_002
19	348	123	#line 348 "C:\Users\Lshi\Documents\Extracurriculars\Gov School\Robotics\GSET_Robotics\Maze\409_Maze_Test.nxc"
19	348	123	#line 348 "C:\Users\Lshi\Documents\Extracurriculars\Gov School\Robotics\GSET_Robotics\Maze\409_Maze_Test.nxc"
19	349	123	#line 349 "C:\Users\Lshi\Documents\Extracurriculars\Gov School\Robotics\GSET_Robotics\Maze\409_Maze_Test.nxc"
19	350	123		jmp __NXC_Label_869
19	349	125	#line 349 "C:\Users\Lshi\Documents\Extracurriculars\Gov School\Robotics\GSET_Robotics\Maze\409_Maze_Test.nxc"
19	351	125	#line 351 "C:\Users\Lshi\Documents\Extracurriculars\Gov School\Robotics\GSET_Robotics\Maze\409_Maze_Test.nxc"
19	352	125	#line 352 "C:\Users\Lshi\Documents\Extracurriculars\Gov School\Robotics\GSET_Robotics\Maze\409_Maze_Test.nxc"
19	353	125		jmp __NXC_Label_871
19	352	127	#line 352 "C:\Users\Lshi\Documents\Extracurriculars\Gov School\Robotics\GSET_Robotics\Maze\409_Maze_Test.nxc"
19	352	127	#line 352 "C:\Users\Lshi\Documents\Extracurriculars\Gov School\Robotics\GSET_Robotics\Maze\409_Maze_Test.nxc"
19	353	127		jmp __NXC_Label_883
19	352	129	#line 352 "C:\Users\Lshi\Documents\Extracurriculars\Gov School\Robotics\GSET_Robotics\Maze\409_Maze_Test.nxc"
19	353	129	#pragma macro 24
19	353	129		acquire __RLSBmutex3
19	353	130		mov __RLSReadBuf3, __RLSBbufLSWrite1
19	353	132		set __RLSBytesCount3, 1
19	353	135		subcall __ReadLSBytes3, ____ReadLSBytes3_return
19	353	138		index __D0ballCatch, __RLSReadBuf3, 65535
19	353	142		release __RLSBmutex3
19	7467	143	#line 7467 "C:\Users\Lshi\Documents\Extracurriculars\Gov School\Robotics\GSET_Robotics\Maze\409_Maze_Test.nxc"
19	352	143	#line 352 "C:\Users\Lshi\Documents\Extracurriculars\Gov School\Robotics\GSET_Robotics\Maze\409_Maze_Test.nxc"
19	353	143		mov __signed_stack_001ballCatch, __D0ballCatch
19	352	145	#line 352 "C:\Users\Lshi\Documents\Extracurriculars\Gov School\Robotics\GSET_Robotics\Maze\409_Maze_Test.nxc"
19	353	145		set __D0ballCatch, 5
19	352	148	#line 352 "C:\Users\Lshi\Documents\Extracurriculars\Gov School\Robotics\GSET_Robotics\Maze\409_Maze_Test.nxc"
19	353	148		cmp 1, __zfballCatch, __signed_stack_001ballCatch, __D0ballCatch
19	352	152	#line 352 "C:\Users\Lshi\Documents\Extracurriculars\Gov School\Robotics\GSET_Robotics\Maze\409_Maze_Test.nxc"
19	353	152		mov __D0ballCatch, __zfballCatch
19	353	155	#line 353 "C:\Users\Lshi\Documents\Extracurriculars\Gov School\Robotics\GSET_Robotics\Maze\409_Maze_Test.nxc"
19	354	155		brtst 4, __NXC_Label_886, __zfballCatch
19	353	158	#line 353 "C:\Users\Lshi\Documents\Extracurriculars\Gov School\Robotics\GSET_Robotics\Maze\409_Maze_Test.nxc"
19	354	158		set __ballCatch_7qG2_i_7qG2_002, 0
19	353	161	#line 353 "C:\Users\Lshi\Documents\Extracurriculars\Gov School\Robotics\GSET_Robotics\Maze\409_Maze_Test.nxc"
19	353	161	#line 353 "C:\Users\Lshi\Documents\Extracurriculars\Gov School\Robotics\GSET_Robotics\Maze\409_Maze_Test.nxc"
19	354	161		mov __signed_stack_001ballCatch, __ballCatch_7qG2_i_7qG2_002
19	353	163	#line 353 "C:\Users\Lshi\Documents\Extracurriculars\Gov School\Robotics\GSET_Robotics\Maze\409_Maze_Test.nxc"
19	353	163	#line 353 "C:\Users\Lshi\Documents\Extracurriculars\Gov School\Robotics\GSET_Robotics\Maze\409_Maze_Test.nxc"
19	354	163		set __D0ballCatch, 91
19	353	166	#line 353 "C:\Users\Lshi\Documents\Extracurriculars\Gov School\Robotics\GSET_Robotics\Maze\409_Maze_Test.nxc"
19	354	166		cmp 0, __zfballCatch, __signed_stack_001ballCatch, __D0ballCatch
19	353	170	#line 353 "C:\Users\Lshi\Documents\Extracurriculars\Gov School\Robotics\GSET_Robotics\Maze\409_Maze_Test.nxc"
19	354	170		mov __D0ballCatch, __zfballCatch
19	353	173	#line 353 "C:\Users\Lshi\Documents\Extracurriculars\Gov School\Robotics\GSET_Robotics\Maze\409_Maze_Test.nxc"
19	354	173		brtst 4, __NXC_Label_888, __zfballCatch
19	353	176	#line 353 "C:\Users\Lshi\Documents\Extracurriculars\Gov School\Robotics\GSET_Robotics\Maze\409_Maze_Test.nxc"
19	354	176		jmp __NXC_Label_889
19	353	178	#line 353 "C:\Users\Lshi\Documents\Extracurriculars\Gov School\Robotics\GSET_Robotics\Maze\409_Maze_Test.nxc"
19	354	178		add __ballCatch_7qG2_i_7qG2_002, __ballCatch_7qG2_i_7qG2_002, __constVal1
19	354	182	#line 354 "C:\Users\Lshi\Documents\Extracurriculars\Gov School\Robotics\GSET_Robotics\Maze\409_Maze_Test.nxc"
19	355	182		jmp __NXC_Label_887
19	354	184	#line 354 "C:\Users\Lshi\Documents\Extracurriculars\Gov School\Robotics\GSET_Robotics\Maze\409_Maze_Test.nxc"
19	355	184		mov __doubleWheelTurn_7qG2_degrees_7qG2_000, __constValNeg1
19	354	186	#line 354 "C:\Users\Lshi\Documents\Extracurriculars\Gov School\Robotics\GSET_Robotics\Maze\409_Maze_Test.nxc"
19	355	186	#line 355 "C:\Users\Lshi\Documents\Extracurriculars\Gov School\Robotics\GSET_Robotics\Maze\409_Maze_Test.nxc"
19	356	186		subcall doubleWheelTurn, __doubleWheelTurn_return
19	355	188	#line 355 "C:\Users\Lshi\Documents\Extracurriculars\Gov School\Robotics\GSET_Robotics\Maze\409_Maze_Test.nxc"
19	355	188	#line 355 "C:\Users\Lshi\Documents\Extracurriculars\Gov School\Robotics\GSET_Robotics\Maze\409_Maze_Test.nxc"
19	356	188	#pragma macro 24
19	356	188		acquire __RLSBmutex3
19	356	189		mov __RLSReadBuf3, __RLSBbufLSWrite1
19	356	191		set __RLSBytesCount3, 1
19	356	194		subcall __ReadLSBytes3, ____ReadLSBytes3_return
19	356	197		index __D0ballCatch, __RLSReadBuf3, 65535
19	356	201		release __RLSBmutex3
19	7519	202	#line 7519 "C:\Users\Lshi\Documents\Extracurriculars\Gov School\Robotics\GSET_Robotics\Maze\409_Maze_Test.nxc"
19	355	202	#line 355 "C:\Users\Lshi\Documents\Extracurriculars\Gov School\Robotics\GSET_Robotics\Maze\409_Maze_Test.nxc"
19	356	202		mov __signed_stack_001ballCatch, __D0ballCatch
19	355	204	#line 355 "C:\Users\Lshi\Documents\Extracurriculars\Gov School\Robotics\GSET_Robotics\Maze\409_Maze_Test.nxc"
19	356	204		set __D0ballCatch, 5
19	355	207	#line 355 "C:\Users\Lshi\Documents\Extracurriculars\Gov School\Robotics\GSET_Robotics\Maze\409_Maze_Test.nxc"
19	356	207		cmp 4, __zfballCatch, __signed_stack_001ballCatch, __D0ballCatch
19	355	211	#line 355 "C:\Users\Lshi\Documents\Extracurriculars\Gov School\Robotics\GSET_Robotics\Maze\409_Maze_Test.nxc"
19	356	211		mov __D0ballCatch, __zfballCatch
19	356	214	#line 356 "C:\Users\Lshi\Documents\Extracurriculars\Gov School\Robotics\GSET_Robotics\Maze\409_Maze_Test.nxc"
19	357	214		brtst 4, __NXC_Label_899, __zfballCatch
19	357	217	#line 357 "C:\Users\Lshi\Documents\Extracurriculars\Gov School\Robotics\GSET_Robotics\Maze\409_Maze_Test.nxc"
19	358	217		mov ballAngle, __ballCatch_7qG2_i_7qG2_002
19	357	219	#line 357 "C:\Users\Lshi\Documents\Extracurriculars\Gov School\Robotics\GSET_Robotics\Maze\409_Maze_Test.nxc"
19	357	219	#line 357 "C:\Users\Lshi\Documents\Extracurriculars\Gov School\Robotics\GSET_Robotics\Maze\409_Maze_Test.nxc"
19	358	219	#line 358 "C:\Users\Lshi\Documents\Extracurriculars\Gov School\Robotics\GSET_Robotics\Maze\409_Maze_Test.nxc"
19	359	219		jmp __NXC_Label_888
19	358	221	#line 358 "C:\Users\Lshi\Documents\Extracurriculars\Gov School\Robotics\GSET_Robotics\Maze\409_Maze_Test.nxc"
19	360	221	#line 360 "C:\Users\Lshi\Documents\Extracurriculars\Gov School\Robotics\GSET_Robotics\Maze\409_Maze_Test.nxc"
19	362	221	#line 362 "C:\Users\Lshi\Documents\Extracurriculars\Gov School\Robotics\GSET_Robotics\Maze\409_Maze_Test.nxc"
19	363	221		jmp __NXC_Label_890
19	362	223	#line 362 "C:\Users\Lshi\Documents\Extracurriculars\Gov School\Robotics\GSET_Robotics\Maze\409_Maze_Test.nxc"
19	362	223	#line 362 "C:\Users\Lshi\Documents\Extracurriculars\Gov School\Robotics\GSET_Robotics\Maze\409_Maze_Test.nxc"
19	362	223	#line 362 "C:\Users\Lshi\Documents\Extracurriculars\Gov School\Robotics\GSET_Robotics\Maze\409_Maze_Test.nxc"
19	362	223	#line 362 "C:\Users\Lshi\Documents\Extracurriculars\Gov School\Robotics\GSET_Robotics\Maze\409_Maze_Test.nxc"
19	363	223	#pragma macro 26
19	363	223		acquire __RLSBmutex1
19	363	224		mov __RLSReadBuf1, __RLSBbufLSWrite1
19	363	226		set __RLSBytesCount1, 1
19	363	229		wait2 NA, __constVal15
19	363	232		subcall __ReadLSBytes1, ____ReadLSBytes1_return
19	363	235		index __D0ballCatch, __RLSReadBuf1, 65535
19	363	239		release __RLSBmutex1
19	7554	240	#line 7554 "C:\Users\Lshi\Documents\Extracurriculars\Gov School\Robotics\GSET_Robotics\Maze\409_Maze_Test.nxc"
19	362	240	#line 362 "C:\Users\Lshi\Documents\Extracurriculars\Gov School\Robotics\GSET_Robotics\Maze\409_Maze_Test.nxc"
19	363	240		mov __signed_stack_001ballCatch, __D0ballCatch
19	362	242	#line 362 "C:\Users\Lshi\Documents\Extracurriculars\Gov School\Robotics\GSET_Robotics\Maze\409_Maze_Test.nxc"
19	363	242		set __D0ballCatch, 8
19	362	245	#line 362 "C:\Users\Lshi\Documents\Extracurriculars\Gov School\Robotics\GSET_Robotics\Maze\409_Maze_Test.nxc"
19	363	245		cmp 1, __zfballCatch, __signed_stack_001ballCatch, __D0ballCatch
19	362	249	#line 362 "C:\Users\Lshi\Documents\Extracurriculars\Gov School\Robotics\GSET_Robotics\Maze\409_Maze_Test.nxc"
19	363	249		mov __D0ballCatch, __zfballCatch
19	363	252	#line 363 "C:\Users\Lshi\Documents\Extracurriculars\Gov School\Robotics\GSET_Robotics\Maze\409_Maze_Test.nxc"
19	364	252		brtst 4, __NXC_Label_903, __zfballCatch
19	363	255	#line 363 "C:\Users\Lshi\Documents\Extracurriculars\Gov School\Robotics\GSET_Robotics\Maze\409_Maze_Test.nxc"
19	363	255	#line 363 "C:\Users\Lshi\Documents\Extracurriculars\Gov School\Robotics\GSET_Robotics\Maze\409_Maze_Test.nxc"
19	363	255	#line 363 "C:\Users\Lshi\Documents\Extracurriculars\Gov School\Robotics\GSET_Robotics\Maze\409_Maze_Test.nxc"
19	363	255	#line 363 "C:\Users\Lshi\Documents\Extracurriculars\Gov School\Robotics\GSET_Robotics\Maze\409_Maze_Test.nxc"
19	364	255		mul __signed_stack_001ballCatch, dir, __constVal60
19	363	259	#line 363 "C:\Users\Lshi\Documents\Extracurriculars\Gov School\Robotics\GSET_Robotics\Maze\409_Maze_Test.nxc"
19	363	259	#line 363 "C:\Users\Lshi\Documents\Extracurriculars\Gov School\Robotics\GSET_Robotics\Maze\409_Maze_Test.nxc"
19	363	259	#line 363 "C:\Users\Lshi\Documents\Extracurriculars\Gov School\Robotics\GSET_Robotics\Maze\409_Maze_Test.nxc"
19	364	259		div __float_stack_001ballCatch, __signed_stack_001ballCatch, __constVal2
19	363	263	#line 363 "C:\Users\Lshi\Documents\Extracurriculars\Gov School\Robotics\GSET_Robotics\Maze\409_Maze_Test.nxc"
19	363	263	#line 363 "C:\Users\Lshi\Documents\Extracurriculars\Gov School\Robotics\GSET_Robotics\Maze\409_Maze_Test.nxc"
19	364	263		mov __DF0ballCatch, __constVal0
19	364	266	#line 364 "C:\Users\Lshi\Documents\Extracurriculars\Gov School\Robotics\GSET_Robotics\Maze\409_Maze_Test.nxc"
19	365	266	#pragma macro 7
19	365	266		setout __OUT_AC, 2, __float_stack_001ballCatch, 1, __constVal7, 8, __constVal2, 7, __DF0ballCatch, 6, __constVal32, 5, __constVal0, 10, __constVal96, 11, __constVal32, 12, __constVal32, 0, __constVal63
19	7590	289	#line 7590 "C:\Users\Lshi\Documents\Extracurriculars\Gov School\Robotics\GSET_Robotics\Maze\409_Maze_Test.nxc"
19	364	289	#line 364 "C:\Users\Lshi\Documents\Extracurriculars\Gov School\Robotics\GSET_Robotics\Maze\409_Maze_Test.nxc"
19	366	289	#line 366 "C:\Users\Lshi\Documents\Extracurriculars\Gov School\Robotics\GSET_Robotics\Maze\409_Maze_Test.nxc"
19	367	289		jmp __NXC_Label_902
19	366	291	#line 366 "C:\Users\Lshi\Documents\Extracurriculars\Gov School\Robotics\GSET_Robotics\Maze\409_Maze_Test.nxc"
19	366	291	#line 366 "C:\Users\Lshi\Documents\Extracurriculars\Gov School\Robotics\GSET_Robotics\Maze\409_Maze_Test.nxc"
19	367	291		set __turnHeadTo_7qG2_degrees_7qG2_000, 360
19	366	294	#line 366 "C:\Users\Lshi\Documents\Extracurriculars\Gov School\Robotics\GSET_Robotics\Maze\409_Maze_Test.nxc"
19	373	294	#line 373 "C:\Users\Lshi\Documents\Extracurriculars\Gov School\Robotics\GSET_Robotics\Maze\409_Maze_Test.nxc"
19	374	294		subcall turnHeadTo, __turnHeadTo_return
19	373	297	#line 373 "C:\Users\Lshi\Documents\Extracurriculars\Gov School\Robotics\GSET_Robotics\Maze\409_Maze_Test.nxc"
19	373	297	#line 373 "C:\Users\Lshi\Documents\Extracurriculars\Gov School\Robotics\GSET_Robotics\Maze\409_Maze_Test.nxc"
19	374	297		set __turnHeadTo_7qG2_degrees_7qG2_000, 180
19	373	300	#line 373 "C:\Users\Lshi\Documents\Extracurriculars\Gov School\Robotics\GSET_Robotics\Maze\409_Maze_Test.nxc"
19	374	300	#line 374 "C:\Users\Lshi\Documents\Extracurriculars\Gov School\Robotics\GSET_Robotics\Maze\409_Maze_Test.nxc"
19	375	300		subcall turnHeadTo, __turnHeadTo_return
19	374	303	#line 374 "C:\Users\Lshi\Documents\Extracurriculars\Gov School\Robotics\GSET_Robotics\Maze\409_Maze_Test.nxc"
19	374	303	#line 374 "C:\Users\Lshi\Documents\Extracurriculars\Gov School\Robotics\GSET_Robotics\Maze\409_Maze_Test.nxc"
19	374	303	#line 374 "C:\Users\Lshi\Documents\Extracurriculars\Gov School\Robotics\GSET_Robotics\Maze\409_Maze_Test.nxc"
19	374	303	#line 374 "C:\Users\Lshi\Documents\Extracurriculars\Gov School\Robotics\GSET_Robotics\Maze\409_Maze_Test.nxc"
19	374	303	#line 374 "C:\Users\Lshi\Documents\Extracurriculars\Gov School\Robotics\GSET_Robotics\Maze\409_Maze_Test.nxc"
19	375	303		sub __doubleWheelTurn_7qG2_degrees_7qG2_000, __constVal0, ballAngle
19	374	307	#line 374 "C:\Users\Lshi\Documents\Extracurriculars\Gov School\Robotics\GSET_Robotics\Maze\409_Maze_Test.nxc"
19	375	307	#line 375 "C:\Users\Lshi\Documents\Extracurriculars\Gov School\Robotics\GSET_Robotics\Maze\409_Maze_Test.nxc"
19	376	307		subcall doubleWheelTurn, __doubleWheelTurn_return
19	375	309	#line 375 "C:\Users\Lshi\Documents\Extracurriculars\Gov School\Robotics\GSET_Robotics\Maze\409_Maze_Test.nxc"
19	376	309	#line 376 "C:\Users\Lshi\Documents\Extracurriculars\Gov School\Robotics\GSET_Robotics\Maze\409_Maze_Test.nxc"
19	377	309		set dir, 1
19	376	312	#line 376 "C:\Users\Lshi\Documents\Extracurriculars\Gov School\Robotics\GSET_Robotics\Maze\409_Maze_Test.nxc"
19	376	312	#line 376 "C:\Users\Lshi\Documents\Extracurriculars\Gov School\Robotics\GSET_Robotics\Maze\409_Maze_Test.nxc"
19	378	312	#line 378 "C:\Users\Lshi\Documents\Extracurriculars\Gov School\Robotics\GSET_Robotics\Maze\409_Maze_Test.nxc"
19	379	312		subret __ballCatch_return
20	379	0	#line 379 "C:\Users\Lshi\Documents\Extracurriculars\Gov School\Robotics\GSET_Robotics\Maze\409_Maze_Test.nxc"
20	380	0		mov __signed_stack_001switchDir, dir
20	379	2	#line 379 "C:\Users\Lshi\Documents\Extracurriculars\Gov School\Robotics\GSET_Robotics\Maze\409_Maze_Test.nxc"
20	379	2	#line 379 "C:\Users\Lshi\Documents\Extracurriculars\Gov School\Robotics\GSET_Robotics\Maze\409_Maze_Test.nxc"
20	380	2		mov __D0switchDir, __constValNeg1
20	379	5	#line 379 "C:\Users\Lshi\Documents\Extracurriculars\Gov School\Robotics\GSET_Robotics\Maze\409_Maze_Test.nxc"
20	380	5		cmp 4, __zfswitchDir, __signed_stack_001switchDir, __D0switchDir
20	379	9	#line 379 "C:\Users\Lshi\Documents\Extracurriculars\Gov School\Robotics\GSET_Robotics\Maze\409_Maze_Test.nxc"
20	380	9		mov __D0switchDir, __zfswitchDir
20	380	11	#line 380 "C:\Users\Lshi\Documents\Extracurriculars\Gov School\Robotics\GSET_Robotics\Maze\409_Maze_Test.nxc"
20	381	11		brtst 4, __NXC_Label_920, __zfswitchDir
20	381	14	#line 381 "C:\Users\Lshi\Documents\Extracurriculars\Gov School\Robotics\GSET_Robotics\Maze\409_Maze_Test.nxc"
20	382	14		set dir, 1
20	381	17	#line 381 "C:\Users\Lshi\Documents\Extracurriculars\Gov School\Robotics\GSET_Robotics\Maze\409_Maze_Test.nxc"
20	381	17	#line 381 "C:\Users\Lshi\Documents\Extracurriculars\Gov School\Robotics\GSET_Robotics\Maze\409_Maze_Test.nxc"
20	381	17	#line 381 "C:\Users\Lshi\Documents\Extracurriculars\Gov School\Robotics\GSET_Robotics\Maze\409_Maze_Test.nxc"
20	382	17		set __signed_stack_001switchDir, 30
20	381	20	#line 381 "C:\Users\Lshi\Documents\Extracurriculars\Gov School\Robotics\GSET_Robotics\Maze\409_Maze_Test.nxc"
20	381	20	#line 381 "C:\Users\Lshi\Documents\Extracurriculars\Gov School\Robotics\GSET_Robotics\Maze\409_Maze_Test.nxc"
20	382	20		mov __D0switchDir, __constValNeg180
20	383	22	#line 383 "C:\Users\Lshi\Documents\Extracurriculars\Gov School\Robotics\GSET_Robotics\Maze\409_Maze_Test.nxc"
20	384	22	#pragma macro 33
20	384	22		acquire __rotateMutex1
20	384	23		arrbuild __rotate_ports1, __constVal1
20	384	27		mov __rotate_power1, __signed_stack_001switchDir
20	384	30		mov __rotate_angle1, __D0switchDir
20	384	32		mov __rotate_turnpct1, __constVal0
20	384	34		mov __rotate_sync1, __constVal0
20	384	36		mov __rotate_stop1, __constVal1
20	384	38		mov __rotate_theRVP1, __constVal32
20	384	40		mov __rotate_theRVI1, __constVal0
20	384	42		mov __rotate_theRVD1, __constVal96
20	384	44		subcall __RotateMotor1, ____RotateMotor1_return
20	384	47		release __rotateMutex1
20	7673	48	#line 7673 "C:\Users\Lshi\Documents\Extracurriculars\Gov School\Robotics\GSET_Robotics\Maze\409_Maze_Test.nxc"
20	383	48	#line 383 "C:\Users\Lshi\Documents\Extracurriculars\Gov School\Robotics\GSET_Robotics\Maze\409_Maze_Test.nxc"
20	384	48	#line 384 "C:\Users\Lshi\Documents\Extracurriculars\Gov School\Robotics\GSET_Robotics\Maze\409_Maze_Test.nxc"
20	385	48		jmp __NXC_Label_927
20	384	50	#line 384 "C:\Users\Lshi\Documents\Extracurriculars\Gov School\Robotics\GSET_Robotics\Maze\409_Maze_Test.nxc"
20	385	50		mov __signed_stack_001switchDir, dir
20	384	52	#line 384 "C:\Users\Lshi\Documents\Extracurriculars\Gov School\Robotics\GSET_Robotics\Maze\409_Maze_Test.nxc"
20	384	52	#line 384 "C:\Users\Lshi\Documents\Extracurriculars\Gov School\Robotics\GSET_Robotics\Maze\409_Maze_Test.nxc"
20	385	52		set __D0switchDir, 1
20	384	55	#line 384 "C:\Users\Lshi\Documents\Extracurriculars\Gov School\Robotics\GSET_Robotics\Maze\409_Maze_Test.nxc"
20	385	55		cmp 4, __zfswitchDir, __signed_stack_001switchDir, __D0switchDir
20	384	59	#line 384 "C:\Users\Lshi\Documents\Extracurriculars\Gov School\Robotics\GSET_Robotics\Maze\409_Maze_Test.nxc"
20	385	59		mov __D0switchDir, __zfswitchDir
20	385	61	#line 385 "C:\Users\Lshi\Documents\Extracurriculars\Gov School\Robotics\GSET_Robotics\Maze\409_Maze_Test.nxc"
20	386	61		brtst 4, __NXC_Label_930, __zfswitchDir
20	386	64	#line 386 "C:\Users\Lshi\Documents\Extracurriculars\Gov School\Robotics\GSET_Robotics\Maze\409_Maze_Test.nxc"
20	387	64		mov dir, __constValNeg1
20	386	66	#line 386 "C:\Users\Lshi\Documents\Extracurriculars\Gov School\Robotics\GSET_Robotics\Maze\409_Maze_Test.nxc"
20	386	66	#line 386 "C:\Users\Lshi\Documents\Extracurriculars\Gov School\Robotics\GSET_Robotics\Maze\409_Maze_Test.nxc"
20	386	66	#line 386 "C:\Users\Lshi\Documents\Extracurriculars\Gov School\Robotics\GSET_Robotics\Maze\409_Maze_Test.nxc"
20	387	66		set __signed_stack_001switchDir, 30
20	386	69	#line 386 "C:\Users\Lshi\Documents\Extracurriculars\Gov School\Robotics\GSET_Robotics\Maze\409_Maze_Test.nxc"
20	386	69	#line 386 "C:\Users\Lshi\Documents\Extracurriculars\Gov School\Robotics\GSET_Robotics\Maze\409_Maze_Test.nxc"
20	387	69		set __D0switchDir, 180
20	387	72	#line 387 "C:\Users\Lshi\Documents\Extracurriculars\Gov School\Robotics\GSET_Robotics\Maze\409_Maze_Test.nxc"
20	388	72	#pragma macro 33
20	388	72		acquire __rotateMutex1
20	388	73		arrbuild __rotate_ports1, __constVal1
20	388	77		mov __rotate_power1, __signed_stack_001switchDir
20	388	80		mov __rotate_angle1, __D0switchDir
20	388	82		mov __rotate_turnpct1, __constVal0
20	388	84		mov __rotate_sync1, __constVal0
20	388	86		mov __rotate_stop1, __constVal1
20	388	88		mov __rotate_theRVP1, __constVal32
20	388	90		mov __rotate_theRVI1, __constVal0
20	388	92		mov __rotate_theRVD1, __constVal96
20	388	94		subcall __RotateMotor1, ____RotateMotor1_return
20	388	97		release __rotateMutex1
20	7710	98	#line 7710 "C:\Users\Lshi\Documents\Extracurriculars\Gov School\Robotics\GSET_Robotics\Maze\409_Maze_Test.nxc"
20	387	98	#line 387 "C:\Users\Lshi\Documents\Extracurriculars\Gov School\Robotics\GSET_Robotics\Maze\409_Maze_Test.nxc"
20	390	98	#line 390 "C:\Users\Lshi\Documents\Extracurriculars\Gov School\Robotics\GSET_Robotics\Maze\409_Maze_Test.nxc"
20	390	98	#line 390 "C:\Users\Lshi\Documents\Extracurriculars\Gov School\Robotics\GSET_Robotics\Maze\409_Maze_Test.nxc"
20	390	98	#line 390 "C:\Users\Lshi\Documents\Extracurriculars\Gov School\Robotics\GSET_Robotics\Maze\409_Maze_Test.nxc"
20	391	98		subret __switchDir_return
21	425	0	#line 425 "C:\Users\Lshi\Documents\Extracurriculars\Gov School\Robotics\GSET_Robotics\Maze\409_Maze_Test.nxc"
21	426	0		subret ____initialize_global_data_return
#CLUMPS
Clump	Name	Offset	File
0	main	0	C:\Users\Lshi\Documents\Extracurriculars\Gov School\Robotics\GSET_Robotics\Maze\409_Maze_Test.nxc
1	__RotateMotor1	128	NXTDefs.h
2	__RotateMotor4	297	NXTDefs.h
3	__RotateMotor6	466	NXTDefs.h
4	__RotateMotorVar	635	NXTDefs.h
5	__ResetSensorSubroutine	679	NXTDefs.h
6	__ReadLSBytes1	692	NXTDefs.h
7	__ReadLSBytes2	777	NXTDefs.h
8	__ReadLSBytes3	862	NXTDefs.h
9	lineFollow	947	C:\Users\Lshi\Documents\Extracurriculars\Gov School\Robotics\GSET_Robotics\Maze\409_Maze_Test.nxc
10	color	1268	C:\Users\Lshi\Documents\Extracurriculars\Gov School\Robotics\GSET_Robotics\Maze\409_Maze_Test.nxc
11	mazeNav	1421	C:\Users\Lshi\Documents\Extracurriculars\Gov School\Robotics\GSET_Robotics\Maze\409_Maze_Test.nxc
12	turnHeadTo	2112	C:\Users\Lshi\Documents\Extracurriculars\Gov School\Robotics\GSET_Robotics\Maze\409_Maze_Test.nxc
13	driveUpToNotWall	2155	C:\Users\Lshi\Documents\Extracurriculars\Gov School\Robotics\GSET_Robotics\Maze\409_Maze_Test.nxc
14	driveUpToWall	2235	C:\Users\Lshi\Documents\Extracurriculars\Gov School\Robotics\GSET_Robotics\Maze\409_Maze_Test.nxc
15	doubleWheelTurn	2392	C:\Users\Lshi\Documents\Extracurriculars\Gov School\Robotics\GSET_Robotics\Maze\409_Maze_Test.nxc
16	singleWheelTurn	2530	C:\Users\Lshi\Documents\Extracurriculars\Gov School\Robotics\GSET_Robotics\Maze\409_Maze_Test.nxc
17	turnCheck	2578	C:\Users\Lshi\Documents\Extracurriculars\Gov School\Robotics\GSET_Robotics\Maze\409_Maze_Test.nxc
18	ballFind	2623	C:\Users\Lshi\Documents\Extracurriculars\Gov School\Robotics\GSET_Robotics\Maze\409_Maze_Test.nxc
19	ballCatch	2641	C:\Users\Lshi\Documents\Extracurriculars\Gov School\Robotics\GSET_Robotics\Maze\409_Maze_Test.nxc
20	switchDir	2955	C:\Users\Lshi\Documents\Extracurriculars\Gov School\Robotics\GSET_Robotics\Maze\409_Maze_Test.nxc
21	__initialize_global_data	3055	C:\Users\Lshi\Documents\Extracurriculars\Gov School\Robotics\GSET_Robotics\Maze\409_Maze_Test.nxc
